EXPORTS 
	?$TSS0@?1??_GetStaticAmbientSchedulerStorage@details@Concurrency@@YAPEAV?$shared_ptr@Uscheduler_interface@Concurrency@@@std@@XZ@4HA 	 DATA
	?$TSS0@?1??get_type_descriptor@Standard_ConstructionError@@SAAEBV?$handle@VStandard_Type@@@opencascade@@XZ@4HA 	 DATA
	?$TSS0@?1??get_type_descriptor@Standard_DomainError@@SAAEBV?$handle@VStandard_Type@@@opencascade@@XZ@4HA 	 DATA
	?$TSS0@?1??get_type_descriptor@Standard_OutOfRange@@SAAEBV?$handle@VStandard_Type@@@opencascade@@XZ@4HA 	 DATA
	?$TSS0@?1??get_type_descriptor@Standard_RangeError@@SAAEBV?$handle@VStandard_Type@@@opencascade@@XZ@4HA 	 DATA
	?$TSS0@?1??get_type_descriptor@Standard_TypeMismatch@@SAAEBV?$handle@VStandard_Type@@@opencascade@@XZ@4HA 	 DATA
	?$TSS0@?1??manage_caching_sizes@internal@Eigen@@YAXW4Action@3@PEA_J11@Z@4HA 	 DATA
	??_R0?AU?$_InitialTaskHandle@XV<lambda_1>@?1???$?0V?$_Fake_no_copy_callable_adapter@P8System@GCS@@EAAXAEBV?$Matrix@N$0?0$0?0$0A@$0?0$0?0@Eigen@@AEBV?$map@HHU?$less@H@std@@V?$allocator@U?$pair@$$CBHH@std@@@2@@std@@AEBV?$vector@PEANV?$allocator@PEAN@std@@@6@_N@ZPEAV12@AEAV34@AEAV56@AEAV76@_N@std@@@?$_Task_async_state@X@std@@QEAA@$$QEAV?$_Fake_no_copy_callable_adapter@P8System@GCS@@EAAXAEBV?$Matrix@N$0?0$0?0$0A@$0?0$0?0@Eigen@@AEBV?$map@HHU?$less@H@std@@V?$allocator@U?$pair@$$CBHH@std@@@2@@std@@AEBV?$vector@PEANV?$allocator@PEAN@std@@@6@_N@ZPEAV12@AEAV34@AEAV56@AEAV76@_N@3@@Z@U_TypeSelectorNoAsync@details@Concurrency@@@?$task@E@Concurrency@@@8 	 DATA
	??_R0?AU?$_PPLTaskHandle@EU?$_InitialTaskHandle@XV<lambda_1>@?1???$?0V?$_Fake_no_copy_callable_adapter@P8System@GCS@@EAAXAEBV?$Matrix@N$0?0$0?0$0A@$0?0$0?0@Eigen@@AEBV?$map@HHU?$less@H@std@@V?$allocator@U?$pair@$$CBHH@std@@@2@@std@@AEBV?$vector@PEANV?$allocator@PEAN@std@@@6@_N@ZPEAV12@AEAV34@AEAV56@AEAV76@_N@std@@@?$_Task_async_state@X@std@@QEAA@$$QEAV?$_Fake_no_copy_callable_adapter@P8System@GCS@@EAAXAEBV?$Matrix@N$0?0$0?0$0A@$0?0$0?0@Eigen@@AEBV?$map@HHU?$less@H@std@@V?$allocator@U?$pair@$$CBHH@std@@@2@@std@@AEBV?$vector@PEANV?$allocator@PEAN@std@@@6@_N@ZPEAV12@AEAV34@AEAV56@AEAV76@_N@3@@Z@U_TypeSelectorNoAsync@details@Concurrency@@@?$task@E@Concurrency@@U_TaskProcHandle@details@3@@details@Concurrency@@@8 	 DATA
	??_R0?AU?$_Task_impl@E@details@Concurrency@@@8 	 DATA
	??_R0?AU?$basic_array_source@D@iostreams@boost@@@8 	 DATA
	??_R0?AU?$checked_array_deleter@W4default_color_type@boost@@@checked_deleters@boost@@@8 	 DATA
	??_R0?AU?$output_adapter_protocol@D@detail@json_abi_v3_12_0@nlohmann@@@8 	 DATA
	??_R0?AU?$stream@U?$basic_array_source@D@iostreams@boost@@U?$char_traits@D@std@@V?$allocator@D@5@@iostreams@boost@@@8 	 DATA
	??_R0?AU?$token_finderF@U?$is_any_ofF@D@detail@algorithm@boost@@@detail@algorithm@boost@@@8 	 DATA
	??_R0?AU?$wrapexcept@Vbad_function_call@boost@@@boost@@@8 	 DATA
	??_R0?AU?$wrapexcept@Vfailure@ios_base@std@@@boost@@@8 	 DATA
	??_R0?AU_TaskProcHandle@details@Concurrency@@@8 	 DATA
	??_R0?AU_Task_impl_base@details@Concurrency@@@8 	 DATA
	??_R0?AUscheduler_interface@Concurrency@@@8 	 DATA
	??_R0?AV<lambda_1>@?1???$?0V?$_Fake_no_copy_callable_adapter@P8System@GCS@@EAAXAEBV?$Matrix@N$0?0$0?0$0A@$0?0$0?0@Eigen@@AEBV?$map@HHU?$less@H@std@@V?$allocator@U?$pair@$$CBHH@std@@@2@@std@@AEBV?$vector@PEANV?$allocator@PEAN@std@@@6@_N@ZPEAV12@AEAV34@AEAV56@AEAV76@_N@std@@@?$_Task_async_state@X@std@@QEAA@$$QEAV?$_Fake_no_copy_callable_adapter@P8System@GCS@@EAAXAEBV?$Matrix@N$0?0$0?0$0A@$0?0$0?0@Eigen@@AEBV?$map@HHU?$less@H@std@@V?$allocator@U?$pair@$$CBHH@std@@@2@@std@@AEBV?$vector@PEANV?$allocator@PEAN@std@@@6@_N@ZPEAV12@AEAV34@AEAV56@AEAV76@_N@2@@Z@@8 	 DATA
	??_R0?AV<lambda_1>@?1??_MakeVoidToUnitFunc@details@Concurrency@@YA?AV?$function@$$A6AEXZ@std@@AEBV?$function@$$A6AXXZ@5@@Z@@8 	 DATA
	??_R0?AV<lambda_1>@?4??_ScheduleContinuationTask@_Task_impl_base@details@Concurrency@@QEAAXPEAU_ContinuationTaskHandleBase@34@@Z@@8 	 DATA
	??_R0?AV<lambda_1>@?7???R0?4??_ScheduleContinuationTask@_Task_impl_base@details@Concurrency@@QEAAXPEAU_ContinuationTaskHandleBase@34@@Z@QEBA@XZ@@8 	 DATA
	??_R0?AV<lambda_1>@?CC@??_CancelAndRunContinuations@?$_Task_impl@E@details@Concurrency@@UEAA_N_N00AEBV?$shared_ptr@U_ExceptionHolder@details@Concurrency@@@std@@@Z@@8 	 DATA
	??_R0?AV?$NCollection_Array1@VBnd_Box@@@@@8 	 DATA
	??_R0?AV?$NCollection_DataMap@HVBisector_Bisec@@U?$NCollection_DefaultHasher@H@@@@@8 	 DATA
	??_R0?AV?$NCollection_DataMap@HVgp_Pnt2d@@U?$NCollection_DefaultHasher@H@@@@@8 	 DATA
	??_R0?AV?$NCollection_DataMap@HVgp_Vec2d@@U?$NCollection_DefaultHasher@H@@@@@8 	 DATA
	??_R0?AV?$NCollection_DataMap@V?$handle@VMAT_BasicElt@@@opencascade@@VTopoDS_Shape@@U?$NCollection_DefaultHasher@V?$handle@VMAT_BasicElt@@@opencascade@@@@@@@8 	 DATA
	??_R0?AV?$NCollection_DataMap@VMAT2d_BiInt@@HU?$NCollection_DefaultHasher@VMAT2d_BiInt@@@@@@@8 	 DATA
	??_R0?AV?$NCollection_DataMap@VTCollection_AsciiString@@V?$handle@VSTEPCAFControl_ExternFile@@@opencascade@@U?$NCollection_DefaultHasher@VTCollection_AsciiString@@@@@@@8 	 DATA
	??_R0?AV?$NCollection_DataMap@VTDF_Label@@V?$handle@VSTEPCAFControl_ExternFile@@@opencascade@@U?$NCollection_DefaultHasher@VTDF_Label@@@@@@@8 	 DATA
	??_R0?AV?$NCollection_DataMap@VTDF_Label@@VTopoDS_Shape@@U?$NCollection_DefaultHasher@VTDF_Label@@@@@@@8 	 DATA
	??_R0?AV?$NCollection_DataMap@VTopoDS_Edge@@UNewCurveInfo@BRepTools_Modifier@@VTopTools_ShapeMapHasher@@@@@8 	 DATA
	??_R0?AV?$NCollection_DataMap@VTopoDS_Face@@UNewSurfaceInfo@BRepTools_Modifier@@VTopTools_ShapeMapHasher@@@@@8 	 DATA
	??_R0?AV?$NCollection_DataMap@VTopoDS_Shape@@HVTopTools_ShapeMapHasher@@@@@8 	 DATA
	??_R0?AV?$NCollection_DataMap@VTopoDS_Shape@@NVTopTools_ShapeMapHasher@@@@@8 	 DATA
	??_R0?AV?$NCollection_DataMap@VTopoDS_Shape@@UTReplacement@BRepTools_ReShape@@VTopTools_ShapeMapHasher@@@@@8 	 DATA
	??_R0?AV?$NCollection_DataMap@VTopoDS_Shape@@V1@VTopTools_ShapeMapHasher@@@@@8 	 DATA
	??_R0?AV?$NCollection_DataMap@VTopoDS_Shape@@V?$NCollection_DataMap@VTopoDS_Shape@@V1@VTopTools_ShapeMapHasher@@@@VTopTools_ShapeMapHasher@@@@@8 	 DATA
	??_R0?AV?$NCollection_DataMap@VTopoDS_Shape@@V?$NCollection_List@H@@VTopTools_ShapeMapHasher@@@@@8 	 DATA
	??_R0?AV?$NCollection_DataMap@VTopoDS_Shape@@V?$NCollection_List@VBRepOffset_Interval@@@@VTopTools_ShapeMapHasher@@@@@8 	 DATA
	??_R0?AV?$NCollection_DataMap@VTopoDS_Shape@@V?$NCollection_List@VTopoDS_Shape@@@@VTopTools_ShapeMapHasher@@@@@8 	 DATA
	??_R0?AV?$NCollection_DataMap@VTopoDS_Shape@@V?$NCollection_Sequence@V?$handle@VMAT_BasicElt@@@opencascade@@@@VTopTools_ShapeMapHasher@@@@@8 	 DATA
	??_R0?AV?$NCollection_DataMap@VTopoDS_Shape@@V?$handle@VStandard_Transient@@@opencascade@@VTopTools_ShapeMapHasher@@@@@8 	 DATA
	??_R0?AV?$NCollection_DataMap@VTopoDS_Shape@@V?$handle@VTopTools_HArray2OfShape@@@opencascade@@VTopTools_ShapeMapHasher@@@@@8 	 DATA
	??_R0?AV?$NCollection_DataMap@VTopoDS_Vertex@@VTopoDS_Edge@@U?$NCollection_DefaultHasher@VTopoDS_Vertex@@@@@@@8 	 DATA
	??_R0?AV?$NCollection_IndexedDataMap@VTopoDS_Shape@@V?$NCollection_List@VTopoDS_Shape@@@@U?$NCollection_DefaultHasher@VTopoDS_Shape@@@@@@@8 	 DATA
	??_R0?AV?$NCollection_IndexedDataMap@VTopoDS_Shape@@V?$NCollection_List@VTopoDS_Shape@@@@VTopTools_ShapeMapHasher@@@@@8 	 DATA
	??_R0?AV?$NCollection_IndexedDataMap@VTopoDS_Shape@@V?$handle@VBRepCheck_Result@@@opencascade@@U?$NCollection_DefaultHasher@VTopoDS_Shape@@@@@@@8 	 DATA
	??_R0?AV?$NCollection_IndexedMap@VTopoDS_Shape@@VTopTools_ShapeMapHasher@@@@@8 	 DATA
	??_R0?AV?$NCollection_List@H@@@8 	 DATA
	??_R0?AV?$NCollection_List@VBRepFill_OffsetWire@@@@@8 	 DATA
	??_R0?AV?$NCollection_List@VBRepOffset_Interval@@@@@8 	 DATA
	??_R0?AV?$NCollection_List@VTopoDS_Shape@@@@@8 	 DATA
	??_R0?AV?$NCollection_Map@VTDF_Label@@U?$NCollection_DefaultHasher@VTDF_Label@@@@@@@8 	 DATA
	??_R0?AV?$NCollection_Map@VTopoDS_Shape@@VTopTools_ShapeMapHasher@@@@@8 	 DATA
	??_R0?AV?$NCollection_Sequence@H@@@8 	 DATA
	??_R0?AV?$NCollection_Sequence@N@@@8 	 DATA
	??_R0?AV?$NCollection_Sequence@V?$handle@VMAT_BasicElt@@@opencascade@@@@@8 	 DATA
	??_R0?AV?$NCollection_Sequence@V?$handle@VStandard_Transient@@@opencascade@@@@@8 	 DATA
	??_R0?AV?$NCollection_Sequence@VBRepExtrema_SolutionElem@@@@@8 	 DATA
	??_R0?AV?$NCollection_Sequence@VExtrema_POnSurf@@@@@8 	 DATA
	??_R0?AV?$NCollection_Sequence@VTDF_Label@@@@@8 	 DATA
	??_R0?AV?$NCollection_Sequence@VTopoDS_Shape@@@@@8 	 DATA
	??_R0?AV?$_Associated_state@H@std@@@8 	 DATA
	??_R0?AV?$_CancellationTokenCallback@V<lambda_1>@?1??_RegisterCancellation@_Task_impl_base@details@Concurrency@@QEAAXV?$weak_ptr@U_Task_impl_base@details@Concurrency@@@std@@@Z@@details@Concurrency@@@8 	 DATA
	??_R0?AV?$_Deferred_async_state@X@std@@@8 	 DATA
	??_R0?AV?$_Fake_no_copy_callable_adapter@P8System@GCS@@EAAXAEBV?$Matrix@N$0?0$0?0$0A@$0?0$0?0@Eigen@@AEBV?$map@HHU?$less@H@std@@V?$allocator@U?$pair@$$CBHH@std@@@2@@std@@AEBV?$vector@PEANV?$allocator@PEAN@std@@@6@_N@ZPEAV12@AEAV34@AEAV56@AEAV76@_N@std@@@8 	 DATA
	??_R0?AV?$_Func_base@E$$V@std@@@8 	 DATA
	??_R0?AV?$_Func_base@UResolvedRef@oreo@@AEBUElementRef@2@@std@@@8 	 DATA
	??_R0?AV?$_Func_base@X$$V@std@@@8 	 DATA
	??_R0?AV?$_Func_impl_no_alloc@V<lambda_1>@?1???$?0V?$_Fake_no_copy_callable_adapter@P8System@GCS@@EAAXAEBV?$Matrix@N$0?0$0?0$0A@$0?0$0?0@Eigen@@AEBV?$map@HHU?$less@H@std@@V?$allocator@U?$pair@$$CBHH@std@@@2@@std@@AEBV?$vector@PEANV?$allocator@PEAN@std@@@6@_N@ZPEAV12@AEAV34@AEAV56@AEAV76@_N@std@@@?$_Task_async_state@X@std@@QEAA@$$QEAV?$_Fake_no_copy_callable_adapter@P8System@GCS@@EAAXAEBV?$Matrix@N$0?0$0?0$0A@$0?0$0?0@Eigen@@AEBV?$map@HHU?$less@H@std@@V?$allocator@U?$pair@$$CBHH@std@@@2@@std@@AEBV?$vector@PEANV?$allocator@PEAN@std@@@6@_N@ZPEAV12@AEAV34@AEAV56@AEAV76@_N@3@@Z@X$$V@std@@@8 	 DATA
	??_R0?AV?$_Func_impl_no_alloc@V<lambda_1>@?1??_MakeVoidToUnitFunc@details@Concurrency@@YA?AV?$function@$$A6AEXZ@std@@AEBV?$function@$$A6AXXZ@6@@Z@E$$V@std@@@8 	 DATA
	??_R0?AV?$_Func_impl_no_alloc@V<lambda_1>@?4??_ScheduleContinuationTask@_Task_impl_base@details@Concurrency@@QEAAXPEAU_ContinuationTaskHandleBase@45@@Z@X$$V@std@@@8 	 DATA
	??_R0?AV?$_Func_impl_no_alloc@V<lambda_1>@?7???R1?4??_ScheduleContinuationTask@_Task_impl_base@details@Concurrency@@QEAAXPEAU_ContinuationTaskHandleBase@45@@Z@QEBA@XZ@X$$V@std@@@8 	 DATA
	??_R0?AV?$_Func_impl_no_alloc@V<lambda_1>@?CC@??_CancelAndRunContinuations@?$_Task_impl@E@details@Concurrency@@UEAA_N_N00AEBV?$shared_ptr@U_ExceptionHolder@details@Concurrency@@@std@@@Z@X$$V@std@@@8 	 DATA
	??_R0?AV?$_Func_impl_no_alloc@V?$_Fake_no_copy_callable_adapter@P8System@GCS@@EAAXAEBV?$Matrix@N$0?0$0?0$0A@$0?0$0?0@Eigen@@AEBV?$map@HHU?$less@H@std@@V?$allocator@U?$pair@$$CBHH@std@@@2@@std@@AEBV?$vector@PEANV?$allocator@PEAN@std@@@6@_N@ZPEAV12@AEAV34@AEAV56@AEAV76@_N@std@@X$$V@std@@@8 	 DATA
	??_R0?AV?$_Iosb@H@std@@@8 	 DATA
	??_R0?AV?$_Packaged_state@$$A6AXXZ@std@@@8 	 DATA
	??_R0?AV?$_Ref_count@VKernelContext@oreo@@@std@@@8 	 DATA
	??_R0?AV?$_Ref_count_obj2@U?$_Task_impl@E@details@Concurrency@@@std@@@8 	 DATA
	??_R0?AV?$_Ref_count_obj2@U_ExceptionHolder@details@Concurrency@@@std@@@8 	 DATA
	??_R0?AV?$_Ref_count_obj2@V?$output_string_adapter@DV?$basic_string@DU?$char_traits@D@std@@V?$allocator@D@2@@std@@@detail@json_abi_v3_12_0@nlohmann@@@std@@@8 	 DATA
	??_R0?AV?$_Ref_count_obj2@VElementMap@Data@@@std@@@8 	 DATA
	??_R0?AV?$_Ref_count_obj2@VElementMap@oreo@@@std@@@8 	 DATA
	??_R0?AV?$_Task_async_state@X@std@@@8 	 DATA
	??_R0?AV?$base_from_member@V?$stream_buffer@U?$basic_array_source@D@iostreams@boost@@U?$char_traits@D@std@@V?$allocator@D@5@Uinput_seekable@23@@iostreams@boost@@$0A@@boost@@@8 	 DATA
	??_R0?AV?$basic_filebuf@DU?$char_traits@D@std@@@std@@@8 	 DATA
	??_R0?AV?$basic_ifstream@DU?$char_traits@D@std@@@std@@@8 	 DATA
	??_R0?AV?$basic_ios@DU?$char_traits@D@std@@@std@@@8 	 DATA
	??_R0?AV?$basic_iostream@DU?$char_traits@D@std@@@std@@@8 	 DATA
	??_R0?AV?$basic_istream@DU?$char_traits@D@std@@@std@@@8 	 DATA
	??_R0?AV?$basic_istringstream@DU?$char_traits@D@std@@V?$allocator@D@2@@std@@@8 	 DATA
	??_R0?AV?$basic_ofstream@DU?$char_traits@D@std@@@std@@@8 	 DATA
	??_R0?AV?$basic_ostream@DU?$char_traits@D@std@@@std@@@8 	 DATA
	??_R0?AV?$basic_ostringstream@DU?$char_traits@D@std@@V?$allocator@D@2@@std@@@8 	 DATA
	??_R0?AV?$basic_streambuf@DU?$char_traits@D@std@@@std@@@8 	 DATA
	??_R0?AV?$basic_stringbuf@DU?$char_traits@D@std@@V?$allocator@D@2@@std@@@8 	 DATA
	??_R0?AV?$basic_stringstream@DU?$char_traits@D@std@@V?$allocator@D@2@@std@@@8 	 DATA
	??_R0?AV?$direct_streambuf@U?$basic_array_source@D@iostreams@boost@@U?$char_traits@D@std@@@detail@iostreams@boost@@@8 	 DATA
	??_R0?AV?$linked_streambuf@DU?$char_traits@D@std@@@detail@iostreams@boost@@@8 	 DATA
	??_R0?AV?$output_string_adapter@DV?$basic_string@DU?$char_traits@D@std@@V?$allocator@D@2@@std@@@detail@json_abi_v3_12_0@nlohmann@@@8 	 DATA
	??_R0?AV?$sp_counted_impl_pd@PEAW4default_color_type@boost@@U?$checked_array_deleter@W4default_color_type@boost@@@checked_deleters@2@@detail@boost@@@8 	 DATA
	??_R0?AV?$stream_base@U?$basic_array_source@D@iostreams@boost@@U?$char_traits@D@std@@V?$allocator@D@5@V?$basic_istream@DU?$char_traits@D@std@@@5@@detail@iostreams@boost@@@8 	 DATA
	??_R0?AV?$stream_buffer@U?$basic_array_source@D@iostreams@boost@@U?$char_traits@D@std@@V?$allocator@D@5@Uinput_seekable@23@@iostreams@boost@@@8 	 DATA
	??_R0?AVArc@GCS@@@8 	 DATA
	??_R0?AVArcOfEllipse@GCS@@@8 	 DATA
	??_R0?AVArcOfHyperbola@GCS@@@8 	 DATA
	??_R0?AVArcOfParabola@GCS@@@8 	 DATA
	??_R0?AVBSpline@GCS@@@8 	 DATA
	??_R0?AVBaseClass@Base@@@8 	 DATA
	??_R0?AVCircle@GCS@@@8 	 DATA
	??_R0?AVConstraint@GCS@@@8 	 DATA
	??_R0?AVConstraintAngleViaPoint@GCS@@@8 	 DATA
	??_R0?AVConstraintAngleViaPointAndParam@GCS@@@8 	 DATA
	??_R0?AVConstraintAngleViaPointAndTwoParams@GCS@@@8 	 DATA
	??_R0?AVConstraintAngleViaTwoPoints@GCS@@@8 	 DATA
	??_R0?AVConstraintArcLength@GCS@@@8 	 DATA
	??_R0?AVConstraintC2CDistance@GCS@@@8 	 DATA
	??_R0?AVConstraintC2LDistance@GCS@@@8 	 DATA
	??_R0?AVConstraintCenterOfGravity@GCS@@@8 	 DATA
	??_R0?AVConstraintCurveValue@GCS@@@8 	 DATA
	??_R0?AVConstraintDifference@GCS@@@8 	 DATA
	??_R0?AVConstraintEllipseTangentLine@GCS@@@8 	 DATA
	??_R0?AVConstraintEqual@GCS@@@8 	 DATA
	??_R0?AVConstraintEqualFocalDistance@GCS@@@8 	 DATA
	??_R0?AVConstraintEqualLineLength@GCS@@@8 	 DATA
	??_R0?AVConstraintEqualMajorAxesConic@GCS@@@8 	 DATA
	??_R0?AVConstraintInternalAlignmentPoint2Ellipse@GCS@@@8 	 DATA
	??_R0?AVConstraintInternalAlignmentPoint2Hyperbola@GCS@@@8 	 DATA
	??_R0?AVConstraintL2LAngle@GCS@@@8 	 DATA
	??_R0?AVConstraintMidpointOnLine@GCS@@@8 	 DATA
	??_R0?AVConstraintP2CDistance@GCS@@@8 	 DATA
	??_R0?AVConstraintP2LDistance@GCS@@@8 	 DATA
	??_R0?AVConstraintP2PAngle@GCS@@@8 	 DATA
	??_R0?AVConstraintP2PDistance@GCS@@@8 	 DATA
	??_R0?AVConstraintParallel@GCS@@@8 	 DATA
	??_R0?AVConstraintPerpendicular@GCS@@@8 	 DATA
	??_R0?AVConstraintPointOnBSpline@GCS@@@8 	 DATA
	??_R0?AVConstraintPointOnEllipse@GCS@@@8 	 DATA
	??_R0?AVConstraintPointOnHyperbola@GCS@@@8 	 DATA
	??_R0?AVConstraintPointOnLine@GCS@@@8 	 DATA
	??_R0?AVConstraintPointOnParabola@GCS@@@8 	 DATA
	??_R0?AVConstraintPointOnPerpBisector@GCS@@@8 	 DATA
	??_R0?AVConstraintSlopeAtBSplineKnot@GCS@@@8 	 DATA
	??_R0?AVConstraintSnell@GCS@@@8 	 DATA
	??_R0?AVConstraintTangentCircumf@GCS@@@8 	 DATA
	??_R0?AVConstraintWeightedLinearCombination@GCS@@@8 	 DATA
	??_R0?AVCurve@GCS@@@8 	 DATA
	??_R0?AVEllipse@GCS@@@8 	 DATA
	??_R0?AVHandled@Base@@@8 	 DATA
	??_R0?AVHyperbola@GCS@@@8 	 DATA
	??_R0?AVLine@GCS@@@8 	 DATA
	??_R0?AVMajorRadiusConic@GCS@@@8 	 DATA
	??_R0?AVMakerMapper@oreo@@@8 	 DATA
	??_R0?AVNCollection_BaseList@@@8 	 DATA
	??_R0?AVNCollection_BaseMap@@@8 	 DATA
	??_R0?AVNCollection_BaseSequence@@@8 	 DATA
	??_R0?AVNullMapper@oreo@@@8 	 DATA
	??_R0?AVParabola@GCS@@@8 	 DATA
	??_R0?AVPersistence@Base@@@8 	 DATA
	??_R0?AVShapeMapper@oreo@@@8 	 DATA
	??_R0?AVStandard_ConstructionError@@@8 	 DATA
	??_R0?AVStandard_DomainError@@@8 	 DATA
	??_R0?AVStandard_Failure@@@8 	 DATA
	??_R0?AVStandard_OutOfRange@@@8 	 DATA
	??_R0?AVStandard_RangeError@@@8 	 DATA
	??_R0?AVStandard_Transient@@@8 	 DATA
	??_R0?AVStandard_TypeMismatch@@@8 	 DATA
	??_R0?AVStringHasher@App@@@8 	 DATA
	??_R0?AVStringID@App@@@8 	 DATA
	??_R0?AVTDF_Attribute@@@8 	 DATA
	??_R0?AVTDataStd_Name@@@8 	 DATA
	??_R0?AVTopoDS_TCompound@@@8 	 DATA
	??_R0?AVTopoDS_TShape@@@8 	 DATA
	??_R0?AVValueError@Base@@@8 	 DATA
	??_R0?AVXSControl_Reader@@@8 	 DATA
	??_R0?AV_CancellationTokenRegistration@details@Concurrency@@@8 	 DATA
	??_R0?AV_DefaultPPLTaskScheduler@details@Concurrency@@@8 	 DATA
	??_R0?AV_Future_error_category2@std@@@8 	 DATA
	??_R0?AV_Generic_error_category@std@@@8 	 DATA
	??_R0?AV_Interruption_exception@details@Concurrency@@@8 	 DATA
	??_R0?AV_Iostream_error_category2@std@@@8 	 DATA
	??_R0?AV_RefCounter@details@Concurrency@@@8 	 DATA
	??_R0?AV_Ref_count_base@std@@@8 	 DATA
	??_R0?AV_System_error@std@@@8 	 DATA
	??_R0?AV_System_error_category@std@@@8 	 DATA
	??_R0?AVbad_alloc@std@@@8 	 DATA
	??_R0?AVbad_array_new_length@std@@@8 	 DATA
	??_R0?AVbad_cast@std@@@8 	 DATA
	??_R0?AVbad_function_call@boost@@@8 	 DATA
	??_R0?AVbad_variant_access@std@@@8 	 DATA
	??_R0?AVbad_weak_ptr@std@@@8 	 DATA
	??_R0?AVclone_base@exception_detail@boost@@@8 	 DATA
	??_R0?AVerror_category@std@@@8 	 DATA
	??_R0?AVexception@boost@@@8 	 DATA
	??_R0?AVexception@detail@json_abi_v3_12_0@nlohmann@@@8 	 DATA
	??_R0?AVexception@std@@@8 	 DATA
	??_R0?AVfailure@ios_base@std@@@8 	 DATA
	??_R0?AVfilesystem_error@filesystem@std@@@8 	 DATA
	??_R0?AVfuture_error@std@@@8 	 DATA
	??_R0?AVinvalid_argument@std@@@8 	 DATA
	??_R0?AVinvalid_iterator@detail@json_abi_v3_12_0@nlohmann@@@8 	 DATA
	??_R0?AVinvalid_operation@Concurrency@@@8 	 DATA
	??_R0?AVios_base@std@@@8 	 DATA
	??_R0?AVlogic_error@std@@@8 	 DATA
	??_R0?AVother_error@detail@json_abi_v3_12_0@nlohmann@@@8 	 DATA
	??_R0?AVout_of_range@detail@json_abi_v3_12_0@nlohmann@@@8 	 DATA
	??_R0?AVout_of_range@std@@@8 	 DATA
	??_R0?AVoverflow_error@std@@@8 	 DATA
	??_R0?AVparse_error@detail@json_abi_v3_12_0@nlohmann@@@8 	 DATA
	??_R0?AVruntime_error@std@@@8 	 DATA
	??_R0?AVsp_counted_base@detail@boost@@@8 	 DATA
	??_R0?AVsystem_error@std@@@8 	 DATA
	??_R0?AVtask_canceled@Concurrency@@@8 	 DATA
	??_R0?AVtype_error@detail@json_abi_v3_12_0@nlohmann@@@8 	 DATA
	?THE_TYPE_INSTANCE@?1??get_type_descriptor@Standard_ConstructionError@@SAAEBV?$handle@VStandard_Type@@@opencascade@@XZ@4V34@B 	 DATA
	?THE_TYPE_INSTANCE@?1??get_type_descriptor@Standard_DomainError@@SAAEBV?$handle@VStandard_Type@@@opencascade@@XZ@4V34@B 	 DATA
	?THE_TYPE_INSTANCE@?1??get_type_descriptor@Standard_OutOfRange@@SAAEBV?$handle@VStandard_Type@@@opencascade@@XZ@4V34@B 	 DATA
	?THE_TYPE_INSTANCE@?1??get_type_descriptor@Standard_RangeError@@SAAEBV?$handle@VStandard_Type@@@opencascade@@XZ@4V34@B 	 DATA
	?THE_TYPE_INSTANCE@?1??get_type_descriptor@Standard_TypeMismatch@@SAAEBV?$handle@VStandard_Type@@@opencascade@@XZ@4V34@B 	 DATA
	?_Flag@?1??_GetStaticAmbientSchedulerRef@details@Concurrency@@YAAEAV?$shared_ptr@Uscheduler_interface@Concurrency@@@std@@XZ@4Uonce_flag@5@A 	 DATA
	?_OptionsStorage@?1??__local_stdio_printf_options@@9@4_KA 	 DATA
	?_Psave@?$_Facetptr@V?$codecvt@DDU_Mbstatet@@@std@@@std@@2PEBVfacet@locale@2@EB 	 DATA
	?_Psave@?$_Facetptr@V?$ctype@D@std@@@std@@2PEBVfacet@locale@2@EB 	 DATA
	?_S_scheduler@?1??_GetStaticAmbientSchedulerStorage@details@Concurrency@@YAPEAV?$shared_ptr@Uscheduler_interface@Concurrency@@@std@@XZ@4V45@A 	 DATA
	?_S_scheduler_address@?1??_GetStaticAmbientSchedulerRef@details@Concurrency@@YAAEAV?$shared_ptr@Uscheduler_interface@Concurrency@@@std@@XZ@4PEAV45@EA 	 DATA
	?_Static@?1???$_Immortalize_memcpy_image@V_Future_error_category2@std@@@std@@YAAEBV_Future_error_category2@1@XZ@4U?$_Constexpr_immortalize_impl@V_Future_error_category2@std@@@1@A 	 DATA
	?_Static@?1???$_Immortalize_memcpy_image@V_Generic_error_category@std@@@std@@YAAEBV_Generic_error_category@1@XZ@4U?$_Constexpr_immortalize_impl@V_Generic_error_category@std@@@1@A 	 DATA
	?_Static@?1???$_Immortalize_memcpy_image@V_Iostream_error_category2@std@@@std@@YAAEBV_Iostream_error_category2@1@XZ@4U?$_Constexpr_immortalize_impl@V_Iostream_error_category2@std@@@1@A 	 DATA
	?_Static@?1???$_Immortalize_memcpy_image@V_System_error_category@std@@@std@@YAAEBV_System_error_category@1@XZ@4U?$_Constexpr_immortalize_impl@V_System_error_category@std@@@1@A 	 DATA
	?_Stinit@?1??_Init@?$basic_filebuf@DU?$char_traits@D@std@@@std@@IEAAXPEAU_iobuf@@W4_Initfl@23@@Z@4U_Mbstatet@@A 	 DATA
	?instance@?1??Console@Base@@YAAEAVConsoleStub@2@XZ@4V32@A 	 DATA
	?m_cacheSizes@?1??manage_caching_sizes@internal@Eigen@@YAXW4Action@3@PEA_J11@Z@4UCacheSizes@23@A 	 DATA
	?mtx@?1??occtStaticMutex@oreo@@YAAEAVmutex@std@@XZ@4V34@A 	 DATA
	?none@?1??Py_None_Stub@@YAPEAUPyObject@@XZ@4U2@A 	 DATA
	??$?0$09UElementRef@oreo@@$0A@@?$_Variant_storage_@$0A@NH_NV?$basic_string@DU?$char_traits@D@std@@V?$allocator@D@2@@std@@Vgp_Vec@@Vgp_Pnt@@Vgp_Dir@@Vgp_Ax1@@Vgp_Ax2@@Vgp_Pln@@UElementRef@oreo@@V?$vector@UElementRef@oreo@@V?$allocator@UElementRef@oreo@@@std@@@2@@std@@QEAA@U?$integral_constant@_K$09@1@$$QEAUElementRef@oreo@@@Z
	??$?0AEAV?$basic_string@DU?$char_traits@D@std@@V?$allocator@D@2@@std@@V01@$0A@@?$basic_json@Vmap@std@@Vvector@2@V?$basic_string@DU?$char_traits@D@std@@V?$allocator@D@2@@2@_N_J_KNVallocator@2@Uadl_serializer@json_abi_v3_12_0@nlohmann@@V?$vector@EV?$allocator@E@std@@@2@X@json_abi_v3_12_0@nlohmann@@QEAA@AEAV?$basic_string@DU?$char_traits@D@std@@V?$allocator@D@2@@std@@@Z
	??$?0AEAY02$$CBD$0A@@?$json_ref@V?$basic_json@Vmap@std@@Vvector@2@V?$basic_string@DU?$char_traits@D@std@@V?$allocator@D@2@@2@_N_J_KNVallocator@2@Uadl_serializer@json_abi_v3_12_0@nlohmann@@V?$vector@EV?$allocator@E@std@@@2@X@json_abi_v3_12_0@nlohmann@@@detail@json_abi_v3_12_0@nlohmann@@QEAA@AEAY02$$CBD@Z
	??$?0AEAY05$$CBD$0A@@?$json_ref@V?$basic_json@Vmap@std@@Vvector@2@V?$basic_string@DU?$char_traits@D@std@@V?$allocator@D@2@@2@_N_J_KNVallocator@2@Uadl_serializer@json_abi_v3_12_0@nlohmann@@V?$vector@EV?$allocator@E@std@@@2@X@json_abi_v3_12_0@nlohmann@@@detail@json_abi_v3_12_0@nlohmann@@QEAA@AEAY05$$CBD@Z
	??$?0AEBV?$_Fake_no_copy_callable_adapter@P8System@GCS@@EAAXAEBV?$Matrix@N$0?0$0?0$0A@$0?0$0?0@Eigen@@AEBV?$map@HHU?$less@H@std@@V?$allocator@U?$pair@$$CBHH@std@@@2@@std@@AEBV?$vector@PEANV?$allocator@PEAN@std@@@6@_N@ZPEAV12@AEAV34@AEAV56@AEAV76@_N@std@@$0A@@?$_Func_impl_no_alloc@V?$_Fake_no_copy_callable_adapter@P8System@GCS@@EAAXAEBV?$Matrix@N$0?0$0?0$0A@$0?0$0?0@Eigen@@AEBV?$map@HHU?$less@H@std@@V?$allocator@U?$pair@$$CBHH@std@@@2@@std@@AEBV?$vector@PEANV?$allocator@PEAN@std@@@6@_N@ZPEAV12@AEAV34@AEAV56@AEAV76@_N@std@@X$$V@std@@QEAA@AEBV?$_Fake_no_copy_callable_adapter@P8System@GCS@@EAAXAEBV?$Matrix@N$0?0$0?0$0A@$0?0$0?0@Eigen@@AEBV?$map@HHU?$less@H@std@@V?$allocator@U?$pair@$$CBHH@std@@@2@@std@@AEBV?$vector@PEANV?$allocator@PEAN@std@@@6@_N@ZPEAV12@AEAV34@AEAV56@AEAV76@_N@1@@Z
	??$?0AEBV?$basic_string@DU?$char_traits@D@std@@V?$allocator@D@2@@std@@V01@$0A@@?$basic_json@Vmap@std@@Vvector@2@V?$basic_string@DU?$char_traits@D@std@@V?$allocator@D@2@@2@_N_J_KNVallocator@2@Uadl_serializer@json_abi_v3_12_0@nlohmann@@V?$vector@EV?$allocator@E@std@@@2@X@json_abi_v3_12_0@nlohmann@@QEAA@AEBV?$basic_string@DU?$char_traits@D@std@@V?$allocator@D@2@@std@@@Z
	??$?0PEAD$0A@@?$basic_string@DU?$char_traits@D@std@@V?$allocator@D@2@@std@@QEAA@PEAD0AEBV?$allocator@D@1@@Z
	??$?0PEAW4default_color_type@boost@@U?$checked_array_deleter@W4default_color_type@boost@@@checked_deleters@1@@shared_count@detail@boost@@QEAA@PEAW4default_color_type@2@U?$checked_array_deleter@W4default_color_type@boost@@@checked_deleters@2@@Z
	??$?0PEBDH@?$stream@U?$basic_array_source@D@iostreams@boost@@U?$char_traits@D@std@@V?$allocator@D@5@@iostreams@boost@@QEAA@AEAPEBDAEBHPEAX@Z
	??$?0U?$token_finderF@U?$is_any_ofF@D@detail@algorithm@boost@@@detail@algorithm@boost@@@?$find_iterator_base@V?$_String_iterator@V?$_String_val@U?$_Simple_types@D@std@@@std@@@std@@@detail@algorithm@boost@@IEAA@U?$token_finderF@U?$is_any_ofF@D@detail@algorithm@boost@@@123@H@Z
	??$?0U_Exact_args_t@std@@PEAVSystem@GCS@@AEAV?$Matrix@N$0?0$0?0$0A@$0?0$0?0@Eigen@@AEAV?$map@HHU?$less@H@std@@V?$allocator@U?$pair@$$CBHH@std@@@2@@1@AEAV?$vector@PEANV?$allocator@PEAN@std@@@1@_N$0A@@?$tuple@PEAVSystem@GCS@@V?$Matrix@N$0?0$0?0$0A@$0?0$0?0@Eigen@@V?$map@HHU?$less@H@std@@V?$allocator@U?$pair@$$CBHH@std@@@2@@std@@V?$vector@PEANV?$allocator@PEAN@std@@@6@_N@std@@QEAA@U_Exact_args_t@1@$$QEAPEAVSystem@GCS@@AEAV?$Matrix@N$0?0$0?0$0A@$0?0$0?0@Eigen@@AEAV?$map@HHU?$less@H@std@@V?$allocator@U?$pair@$$CBHH@std@@@2@@1@AEAV?$vector@PEANV?$allocator@PEAN@std@@@1@$$QEA_N@Z
	??$?0V<lambda_1>@?1???$?0V?$_Fake_no_copy_callable_adapter@P8System@GCS@@EAAXAEBV?$Matrix@N$0?0$0?0$0A@$0?0$0?0@Eigen@@AEBV?$map@HHU?$less@H@std@@V?$allocator@U?$pair@$$CBHH@std@@@2@@std@@AEBV?$vector@PEANV?$allocator@PEAN@std@@@6@_N@ZPEAV12@AEAV34@AEAV56@AEAV76@_N@std@@@?$_Task_async_state@X@std@@QEAA@$$QEAV?$_Fake_no_copy_callable_adapter@P8System@GCS@@EAAXAEBV?$Matrix@N$0?0$0?0$0A@$0?0$0?0@Eigen@@AEBV?$map@HHU?$less@H@std@@V?$allocator@U?$pair@$$CBHH@std@@@2@@std@@AEBV?$vector@PEANV?$allocator@PEAN@std@@@6@_N@ZPEAV12@AEAV34@AEAV56@AEAV76@_N@2@@Z@@?$task@X@Concurrency@@QEAA@V<lambda_1>@?1???$?0V?$_Fake_no_copy_callable_adapter@P8System@GCS@@EAAXAEBV?$Matrix@N$0?0$0?0$0A@$0?0$0?0@Eigen@@AEBV?$map@HHU?$less@H@std@@V?$allocator@U?$pair@$$CBHH@std@@@2@@std@@AEBV?$vector@PEANV?$allocator@PEAN@std@@@6@_N@ZPEAV12@AEAV34@AEAV56@AEAV76@_N@std@@@?$_Task_async_state@X@std@@QEAA@$$QEAV?$_Fake_no_copy_callable_adapter@P8System@GCS@@EAAXAEBV?$Matrix@N$0?0$0?0$0A@$0?0$0?0@Eigen@@AEBV?$map@HHU?$less@H@std@@V?$allocator@U?$pair@$$CBHH@std@@@2@@std@@AEBV?$vector@PEANV?$allocator@PEAN@std@@@6@_N@ZPEAV12@AEAV34@AEAV56@AEAV76@_N@4@@Z@AEBVtask_options@1@@Z
	??$?0V?$Matrix@N$0?0$0?0$0A@$0?0$0?0@Eigen@@@?$ColPivHouseholderQR@V?$Matrix@N$0?0$0?0$0A@$0?0$0?0@Eigen@@H@Eigen@@QEAA@AEBU?$EigenBase@V?$Matrix@N$0?0$0?0$0A@$0?0$0?0@Eigen@@@1@@Z
	??$?0V?$Matrix@N$0?0$0?0$0A@$0?0$0?0@Eigen@@@?$FullPivLU@V?$Matrix@N$0?0$0?0$0A@$0?0$0?0@Eigen@@H@Eigen@@QEAA@AEBU?$EigenBase@V?$Matrix@N$0?0$0?0$0A@$0?0$0?0@Eigen@@@1@@Z
	??$?0V?$PermutationMatrix@$0?0$0?0H@Eigen@@@?$PermutationMatrix@$0?0$0?0H@Eigen@@QEAA@AEBV?$InverseImpl@V?$PermutationMatrix@$0?0$0?0H@Eigen@@UPermutationStorage@2@@1@@Z
	??$?0V?$Transpose@V?$Matrix@N$0?0$0?0$0A@$0?0$0?0@Eigen@@@Eigen@@@?$FullPivHouseholderQR@V?$Matrix@N$0?0$0?0$0A@$0?0$0?0@Eigen@@H@Eigen@@QEAA@AEBU?$EigenBase@V?$Transpose@V?$Matrix@N$0?0$0?0$0A@$0?0$0?0@Eigen@@@Eigen@@@1@@Z
	??$?0V?$_Fake_no_copy_callable_adapter@P8System@GCS@@EAAXAEBV?$Matrix@N$0?0$0?0$0A@$0?0$0?0@Eigen@@AEBV?$map@HHU?$less@H@std@@V?$allocator@U?$pair@$$CBHH@std@@@2@@std@@AEBV?$vector@PEANV?$allocator@PEAN@std@@@6@_N@ZPEAV12@AEAV34@AEAV56@AEAV76@_N@std@@$0A@@?$_Packaged_state@$$A6AXXZ@std@@QEAA@$$QEAV?$_Fake_no_copy_callable_adapter@P8System@GCS@@EAAXAEBV?$Matrix@N$0?0$0?0$0A@$0?0$0?0@Eigen@@AEBV?$map@HHU?$less@H@std@@V?$allocator@U?$pair@$$CBHH@std@@@2@@std@@AEBV?$vector@PEANV?$allocator@PEAN@std@@@6@_N@ZPEAV12@AEAV34@AEAV56@AEAV76@_N@1@@Z
	??$?0V?$_Fake_no_copy_callable_adapter@P8System@GCS@@EAAXAEBV?$Matrix@N$0?0$0?0$0A@$0?0$0?0@Eigen@@AEBV?$map@HHU?$less@H@std@@V?$allocator@U?$pair@$$CBHH@std@@@2@@std@@AEBV?$vector@PEANV?$allocator@PEAN@std@@@6@_N@ZPEAV12@AEAV34@AEAV56@AEAV76@_N@std@@@?$_Task_async_state@X@std@@QEAA@$$QEAV?$_Fake_no_copy_callable_adapter@P8System@GCS@@EAAXAEBV?$Matrix@N$0?0$0?0$0A@$0?0$0?0@Eigen@@AEBV?$map@HHU?$less@H@std@@V?$allocator@U?$pair@$$CBHH@std@@@2@@std@@AEBV?$vector@PEANV?$allocator@PEAN@std@@@6@_N@ZPEAV12@AEAV34@AEAV56@AEAV76@_N@1@@Z
	??$?0V?$_Vector_iterator@V?$_Vector_val@U?$_Simple_types@PEAN@std@@@std@@@std@@@?$set@PEANU?$less@PEAN@std@@V?$allocator@PEAN@2@@std@@QEAA@V?$_Vector_iterator@V?$_Vector_val@U?$_Simple_types@PEAN@std@@@std@@@1@0@Z
	??$?0V?$basic_string@DU?$char_traits@D@std@@V?$allocator@D@2@@std@@$0A@$0A@@?$variant@NH_NV?$basic_string@DU?$char_traits@D@std@@V?$allocator@D@2@@std@@Vgp_Vec@@Vgp_Pnt@@Vgp_Dir@@Vgp_Ax1@@Vgp_Ax2@@Vgp_Pln@@UElementRef@oreo@@V?$vector@UElementRef@oreo@@V?$allocator@UElementRef@oreo@@@std@@@2@@std@@QEAA@$$QEAV?$basic_string@DU?$char_traits@D@std@@V?$allocator@D@2@@1@@Z
	??$?0V?$basic_string@DU?$char_traits@D@std@@V?$allocator@D@2@@std@@$0A@@path@filesystem@std@@QEAA@AEBV?$basic_string@DU?$char_traits@D@std@@V?$allocator@D@2@@2@W4format@012@@Z
	??$?0V?$transform_iterator@U?$copy_iterator_rangeF@V?$basic_string@DU?$char_traits@D@std@@V?$allocator@D@2@@std@@V?$_String_iterator@V?$_String_val@U?$_Simple_types@D@std@@@std@@@2@@detail@algorithm@boost@@V?$split_iterator@V?$_String_iterator@V?$_String_val@U?$_Simple_types@D@std@@@std@@@std@@@34@Uuse_default@4@U64@@iterators@boost@@$0A@@?$vector@V?$basic_string@DU?$char_traits@D@std@@V?$allocator@D@2@@std@@V?$allocator@V?$basic_string@DU?$char_traits@D@std@@V?$allocator@D@2@@std@@@2@@std@@QEAA@V?$transform_iterator@U?$copy_iterator_rangeF@V?$basic_string@DU?$char_traits@D@std@@V?$allocator@D@2@@std@@V?$_String_iterator@V?$_String_val@U?$_Simple_types@D@std@@@std@@@2@@detail@algorithm@boost@@V?$split_iterator@V?$_String_iterator@V?$_String_val@U?$_Simple_types@D@std@@@std@@@std@@@34@Uuse_default@4@U64@@iterators@boost@@0AEBV?$allocator@V?$basic_string@DU?$char_traits@D@std@@V?$allocator@D@2@@std@@@1@@Z
	??$?0V?$vector@UElementRef@oreo@@V?$allocator@UElementRef@oreo@@@std@@@std@@$0A@$0A@@?$variant@NH_NV?$basic_string@DU?$char_traits@D@std@@V?$allocator@D@2@@std@@Vgp_Vec@@Vgp_Pnt@@Vgp_Dir@@Vgp_Ax1@@Vgp_Ax2@@Vgp_Pln@@UElementRef@oreo@@V?$vector@UElementRef@oreo@@V?$allocator@UElementRef@oreo@@@std@@@2@@std@@QEAA@$$QEAV?$vector@UElementRef@oreo@@V?$allocator@UElementRef@oreo@@@std@@@1@@Z
	??$?0VMappedName@Data@@V?$QList@VStringIDRef@App@@@@$0A@@?$pair@VMappedName@Data@@V?$QList@VStringIDRef@App@@@@@std@@QEAA@$$QEAVMappedName@Data@@$$QEAV?$QList@VStringIDRef@App@@@@@Z
	??$?0VQByteArray@@$00@QByteArrayView@@QEAA@AEBVQByteArray@@@Z
	??$?4U?$default_delete@UMappedNameRef@Data@@@std@@$0A@@?$unique_ptr@UMappedNameRef@Data@@U?$default_delete@UMappedNameRef@Data@@@std@@@std@@QEAAAEAV01@$$QEAV01@@Z
	??$?4V?$Block@V?$SparseMatrix@N$0A@H@Eigen@@$0?0$0?0$0A@@Eigen@@@?$SparseMatrix@N$0A@H@Eigen@@QEAAAEAV01@AEBV?$SparseMatrixBase@V?$Block@V?$SparseMatrix@N$0A@H@Eigen@@$0?0$0?0$0A@@Eigen@@@1@@Z
	??$?4V?$SparseView@V?$Matrix@N$0?0$0?0$0A@$0?0$0?0@Eigen@@@Eigen@@@?$SparseMatrix@N$0A@H@Eigen@@QEAAAEAV01@AEBV?$SparseMatrixBase@V?$SparseView@V?$Matrix@N$0?0$0?0$0A@$0?0$0?0@Eigen@@@Eigen@@@1@@Z
	??$?4V?$Transpose@V?$Block@V?$SparseMatrix@N$0A@H@Eigen@@$0?0$0?0$0A@@Eigen@@@Eigen@@@?$SparseMatrix@N$0A@H@Eigen@@QEAAAEAV01@AEBV?$SparseMatrixBase@V?$Transpose@V?$Block@V?$SparseMatrix@N$0A@H@Eigen@@$0?0$0?0$0A@@Eigen@@@Eigen@@@1@@Z
	??$?4V?$TriangularView@$$CBV?$Block@$$CBV?$Matrix@N$0?0$0?0$0A@$0?0$0?0@Eigen@@$0?0$0?0$0A@@Eigen@@$01@Eigen@@@?$MatrixBase@V?$Matrix@N$0?0$0?0$0A@$0?0$0?0@Eigen@@@Eigen@@QEAAAEAV?$Matrix@N$0?0$0?0$0A@$0?0$0?0@1@AEBU?$EigenBase@V?$TriangularView@$$CBV?$Block@$$CBV?$Matrix@N$0?0$0?0$0A@$0?0$0?0@Eigen@@$0?0$0?0$0A@@Eigen@@$01@Eigen@@@1@@Z
	??$?4V?$TriangularView@$$CBV?$Block@$$CBV?$SparseMatrix@N$0A@H@Eigen@@$0?0$0?0$0A@@Eigen@@$01@Eigen@@@?$MatrixBase@V?$Matrix@N$0?0$0?0$0A@$0?0$0?0@Eigen@@@Eigen@@QEAAAEAV?$Matrix@N$0?0$0?0$0A@$0?0$0?0@1@AEBU?$EigenBase@V?$TriangularView@$$CBV?$Block@$$CBV?$SparseMatrix@N$0A@H@Eigen@@$0?0$0?0$0A@@Eigen@@$01@Eigen@@@1@@Z
	??$?4V?$TriangularView@$$CBV?$Matrix@N$0?0$0?0$0A@$0?0$0?0@Eigen@@$01@Eigen@@@?$MatrixBase@V?$Matrix@N$0?0$0?0$0A@$0?0$0?0@Eigen@@@Eigen@@QEAAAEAV?$Matrix@N$0?0$0?0$0A@$0?0$0?0@1@AEBU?$EigenBase@V?$TriangularView@$$CBV?$Matrix@N$0?0$0?0$0A@$0?0$0?0@Eigen@@$01@Eigen@@@1@@Z
	??$?4V?$TriangularView@$$CBV?$SparseMatrix@N$0A@H@Eigen@@$01@Eigen@@@?$MatrixBase@V?$Matrix@N$0?0$0?0$0A@$0?0$0?0@Eigen@@@Eigen@@QEAAAEAV?$Matrix@N$0?0$0?0$0A@$0?0$0?0@1@AEBU?$EigenBase@V?$TriangularView@$$CBV?$SparseMatrix@N$0A@H@Eigen@@$01@Eigen@@@1@@Z
	??$?5DU?$char_traits@D@std@@@std@@YAAEAV?$basic_istream@DU?$char_traits@D@std@@@0@AEAV10@AEAD@Z
	??$?5DU?$char_traits@D@std@@V?$allocator@D@1@@std@@YAAEAV?$basic_istream@DU?$char_traits@D@std@@@0@AEAV10@AEAV?$basic_string@DU?$char_traits@D@std@@V?$allocator@D@2@@0@@Z
	??$?6$$BY0BF@D@_FC_StreamThrow@@QEAAAEAU0@AEAY0BF@$$CBD@Z
	??$?6$$BY0BG@D@_FC_StreamThrow@@QEAAAEAU0@AEAY0BG@$$CBD@Z
	??$?6$$BY0BL@D@_FC_StreamThrow@@QEAAAEAU0@AEAY0BL@$$CBD@Z
	??$?6$$BY0BM@D@_FC_StreamThrow@@QEAAAEAU0@AEAY0BM@$$CBD@Z
	??$?6$$BY0BN@D@_FC_StreamThrow@@QEAAAEAU0@AEAY0BN@$$CBD@Z
	??$?6$$BY0CA@D@_FC_StreamThrow@@QEAAAEAU0@AEAY0CA@$$CBD@Z
	??$?6$$BY0CD@D@_FC_StreamThrow@@QEAAAEAU0@AEAY0CD@$$CBD@Z
	??$?6$$BY0CE@D@_FC_StreamThrow@@QEAAAEAU0@AEAY0CE@$$CBD@Z
	??$?6DU?$char_traits@D@std@@V?$allocator@D@1@@std@@YAAEAV?$basic_ostream@DU?$char_traits@D@std@@@0@AEAV10@AEBV?$basic_string@DU?$char_traits@D@std@@V?$allocator@D@2@@0@@Z
	??$?6PEBD@_FC_StreamThrow@@QEAAAEAU0@AEBQEBD@Z
	??$?6U?$char_traits@D@std@@@std@@YAAEAV?$basic_ostream@DU?$char_traits@D@std@@@0@AEAV10@D@Z
	??$?6U?$char_traits@D@std@@@std@@YAAEAV?$basic_ostream@DU?$char_traits@D@std@@@0@AEAV10@PEBD@Z
	??$?6V?$Transpose@V?$Matrix@N$0?0$00$0A@$0?0$00@Eigen@@@Eigen@@@Eigen@@YAAEAV?$basic_ostream@DU?$char_traits@D@std@@@std@@AEAV12@AEBV?$DenseBase@V?$Transpose@V?$Matrix@N$0?0$00$0A@$0?0$00@Eigen@@@Eigen@@@0@@Z
	??$?6VIndexedName@Data@@@_FC_StreamThrow@@QEAAAEAU0@AEBVIndexedName@Data@@@Z
	??$?6VMappedName@Data@@@_FC_StreamThrow@@QEAAAEAU0@AEBVMappedName@Data@@@Z
	??$?8DU?$char_traits@D@std@@V?$allocator@D@1@@std@@YA_NAEBV?$basic_string@DU?$char_traits@D@std@@V?$allocator@D@2@@0@QEBD@Z
	??$?8U?$hashed_index_node@U?$index_node_base@V?$mutant_relation@U?$tagged@QEAVStringID@App@@Uleft@member_at@relation@bimaps@boost@@@tags@bimaps@boost@@U?$tagged@$$CBJUright@member_at@relation@bimaps@boost@@@234@Una@mpl@4@$00@relation@bimaps@boost@@V?$allocator@V?$mutant_relation@U?$tagged@QEAVStringID@App@@Uleft@member_at@relation@bimaps@boost@@@tags@bimaps@boost@@U?$tagged@$$CBJUright@member_at@relation@bimaps@boost@@@234@Una@mpl@4@$00@relation@bimaps@boost@@@std@@@detail@multi_index@boost@@@detail@multi_index@boost@@V?$bucket_array@V?$allocator@V?$mutant_relation@U?$tagged@QEAVStringID@App@@Uleft@member_at@relation@bimaps@boost@@@tags@bimaps@boost@@U?$tagged@$$CBJUright@member_at@relation@bimaps@boost@@@234@Una@mpl@4@$00@relation@bimaps@boost@@@std@@@123@Uhashed_unique_tag@123@Uhashed_index_global_iterator_tag@123@@detail@multi_index@boost@@YA_NAEBV?$hashed_index_iterator@U?$hashed_index_node@U?$index_node_base@V?$mutant_relation@U?$tagged@QEAVStringID@App@@Uleft@member_at@relation@bimaps@boost@@@tags@bimaps@boost@@U?$tagged@$$CBJUright@member_at@relation@bimaps@boost@@@234@Una@mpl@4@$00@relation@bimaps@boost@@V?$allocator@V?$mutant_relation@U?$tagged@QEAVStringID@App@@Uleft@member_at@relation@bimaps@boost@@@tags@bimaps@boost@@U?$tagged@$$CBJUright@member_at@relation@bimaps@boost@@@234@Una@mpl@4@$00@relation@bimaps@boost@@@std@@@detail@multi_index@boost@@@detail@multi_index@boost@@V?$bucket_array@V?$allocator@V?$mutant_relation@U?$tagged@QEAVStringID@App@@Uleft@member_at@relation@bimaps@boost@@@tags@bimaps@boost@@U?$tagged@$$CBJUright@member_at@relation@bimaps@boost@@@234@Una@mpl@4@$00@relation@bimaps@boost@@@std@@@234@Uhashed_unique_tag@234@Uhashed_index_global_iterator_tag@234@@012@0@Z
	??$?8U?$ordered_index_node@Unull_augment_policy@detail@multi_index@boost@@U?$hashed_index_node@U?$index_node_base@V?$mutant_relation@U?$tagged@QEAVStringID@App@@Uleft@member_at@relation@bimaps@boost@@@tags@bimaps@boost@@U?$tagged@$$CBJUright@member_at@relation@bimaps@boost@@@234@Una@mpl@4@$00@relation@bimaps@boost@@V?$allocator@V?$mutant_relation@U?$tagged@QEAVStringID@App@@Uleft@member_at@relation@bimaps@boost@@@tags@bimaps@boost@@U?$tagged@$$CBJUright@member_at@relation@bimaps@boost@@@234@Una@mpl@4@$00@relation@bimaps@boost@@@std@@@detail@multi_index@boost@@@234@@detail@multi_index@boost@@@detail@multi_index@boost@@YA_NAEBV?$bidir_node_iterator@U?$ordered_index_node@Unull_augment_policy@detail@multi_index@boost@@U?$hashed_index_node@U?$index_node_base@V?$mutant_relation@U?$tagged@QEAVStringID@App@@Uleft@member_at@relation@bimaps@boost@@@tags@bimaps@boost@@U?$tagged@$$CBJUright@member_at@relation@bimaps@boost@@@234@Una@mpl@4@$00@relation@bimaps@boost@@V?$allocator@V?$mutant_relation@U?$tagged@QEAVStringID@App@@Uleft@member_at@relation@bimaps@boost@@@tags@bimaps@boost@@U?$tagged@$$CBJUright@member_at@relation@bimaps@boost@@@234@Una@mpl@4@$00@relation@bimaps@boost@@@std@@@detail@multi_index@boost@@@234@@detail@multi_index@boost@@@012@0@Z
	??$?9DU?$char_traits@D@std@@V?$allocator@D@1@@std@@YA_NAEBV?$basic_string@DU?$char_traits@D@std@@V?$allocator@D@2@@0@0@Z
	??$?9DU?$char_traits@D@std@@V?$allocator@D@1@@std@@YA_NAEBV?$basic_string@DU?$char_traits@D@std@@V?$allocator@D@2@@0@QEBD@Z
	??$?9U_Task_impl_base@details@Concurrency@@@std@@YA_NAEBV?$shared_ptr@U_Task_impl_base@details@Concurrency@@@0@$$T@Z
	??$?9V?$iter_impl@$$CBV?$basic_json@Vmap@std@@Vvector@2@V?$basic_string@DU?$char_traits@D@std@@V?$allocator@D@2@@2@_N_J_KNVallocator@2@Uadl_serializer@json_abi_v3_12_0@nlohmann@@V?$vector@EV?$allocator@E@std@@@2@X@json_abi_v3_12_0@nlohmann@@@detail@json_abi_v3_12_0@nlohmann@@$0A@@?$iter_impl@$$CBV?$basic_json@Vmap@std@@Vvector@2@V?$basic_string@DU?$char_traits@D@std@@V?$allocator@D@2@@2@_N_J_KNVallocator@2@Uadl_serializer@json_abi_v3_12_0@nlohmann@@V?$vector@EV?$allocator@E@std@@@2@X@json_abi_v3_12_0@nlohmann@@@detail@json_abi_v3_12_0@nlohmann@@QEBA_NAEBV0123@@Z
	??$?9V?$iter_impl@V?$basic_json@Vmap@std@@Vvector@2@V?$basic_string@DU?$char_traits@D@std@@V?$allocator@D@2@@2@_N_J_KNVallocator@2@Uadl_serializer@json_abi_v3_12_0@nlohmann@@V?$vector@EV?$allocator@E@std@@@2@X@json_abi_v3_12_0@nlohmann@@@detail@json_abi_v3_12_0@nlohmann@@$0A@@?$iter_impl@V?$basic_json@Vmap@std@@Vvector@2@V?$basic_string@DU?$char_traits@D@std@@V?$allocator@D@2@@2@_N_J_KNVallocator@2@Uadl_serializer@json_abi_v3_12_0@nlohmann@@V?$vector@EV?$allocator@E@std@@@2@X@json_abi_v3_12_0@nlohmann@@@detail@json_abi_v3_12_0@nlohmann@@QEBA_NAEBV0123@@Z
	??$?A$$CBD@?$basic_json@Vmap@std@@Vvector@2@V?$basic_string@DU?$char_traits@D@std@@V?$allocator@D@2@@2@_N_J_KNVallocator@2@Uadl_serializer@json_abi_v3_12_0@nlohmann@@V?$vector@EV?$allocator@E@std@@@2@X@json_abi_v3_12_0@nlohmann@@QEBAAEBV012@PEBD@Z
	??$?CU_ExceptionHolder@details@Concurrency@@$0A@@?$shared_ptr@U_ExceptionHolder@details@Concurrency@@@std@@QEBAPEAU_ExceptionHolder@details@Concurrency@@XZ
	??$?DV?$Block@V?$Block@V?$Matrix@N$0?0$00$0A@$0?0$00@Eigen@@$0?0$00$0A@@Eigen@@$0?0$00$0A@@Eigen@@@?$MatrixBase@V?$Transpose@$$CBV?$Block@$$CBV?$Matrix@N$0?0$0?0$0A@$0?0$0?0@Eigen@@$0?0$00$0A@@Eigen@@@Eigen@@@Eigen@@QEBA?BV?$Product@V?$Transpose@$$CBV?$Block@$$CBV?$Matrix@N$0?0$0?0$0A@$0?0$0?0@Eigen@@$0?0$00$0A@@Eigen@@@Eigen@@V?$Block@V?$Block@V?$Matrix@N$0?0$00$0A@$0?0$00@Eigen@@$0?0$00$0A@@Eigen@@$0?0$00$0A@@2@$0A@@1@AEBV?$MatrixBase@V?$Block@V?$Block@V?$Matrix@N$0?0$00$0A@$0?0$00@Eigen@@$0?0$00$0A@@Eigen@@$0?0$00$0A@@Eigen@@@1@@Z
	??$?DV?$Block@V?$Block@V?$Matrix@N$0?0$00$0A@$0?0$00@Eigen@@$0?0$0?0$0A@@Eigen@@$0?0$0?0$0A@@Eigen@@@?$MatrixBase@V?$Transpose@$$CBV?$Block@$$CBV?$Matrix@N$0?0$0?0$0A@$0?0$0?0@Eigen@@$0?0$00$0A@@Eigen@@@Eigen@@@Eigen@@QEBA?BV?$Product@V?$Transpose@$$CBV?$Block@$$CBV?$Matrix@N$0?0$0?0$0A@$0?0$0?0@Eigen@@$0?0$00$0A@@Eigen@@@Eigen@@V?$Block@V?$Block@V?$Matrix@N$0?0$00$0A@$0?0$00@Eigen@@$0?0$0?0$0A@@Eigen@@$0?0$0?0$0A@@2@$0A@@1@AEBV?$MatrixBase@V?$Block@V?$Block@V?$Matrix@N$0?0$00$0A@$0?0$00@Eigen@@$0?0$0?0$0A@@Eigen@@$0?0$0?0$0A@@Eigen@@@1@@Z
	??$?DV?$Block@V?$Block@V?$Matrix@N$0?0$0?0$0A@$0?0$0?0@Eigen@@$00$0?0$0A@@Eigen@@$00$0?0$0A@@Eigen@@@?$MatrixBase@V?$Block@V?$Block@V?$Matrix@N$0?0$0?0$0A@$0?0$0?0@Eigen@@$0?0$00$00@Eigen@@$0?0$00$0A@@Eigen@@@Eigen@@QEBA?BV?$Product@V?$Block@V?$Block@V?$Matrix@N$0?0$0?0$0A@$0?0$0?0@Eigen@@$0?0$00$00@Eigen@@$0?0$00$0A@@Eigen@@V?$Block@V?$Block@V?$Matrix@N$0?0$0?0$0A@$0?0$0?0@Eigen@@$00$0?0$0A@@Eigen@@$00$0?0$0A@@2@$0A@@1@AEBV?$MatrixBase@V?$Block@V?$Block@V?$Matrix@N$0?0$0?0$0A@$0?0$0?0@Eigen@@$00$0?0$0A@@Eigen@@$00$0?0$0A@@Eigen@@@1@@Z
	??$?DV?$Block@V?$Block@V?$Matrix@N$0?0$0?0$0A@$0?0$0?0@Eigen@@$0?0$0?0$0A@@Eigen@@$0?0$0?0$0A@@Eigen@@@?$MatrixBase@V?$Transpose@$$CBV?$Block@$$CBV?$Block@$$CBV?$Matrix@N$0?0$0?0$0A@$0?0$0?0@Eigen@@$0?0$00$00@Eigen@@$0?0$00$0A@@Eigen@@@Eigen@@@Eigen@@QEBA?BV?$Product@V?$Transpose@$$CBV?$Block@$$CBV?$Block@$$CBV?$Matrix@N$0?0$0?0$0A@$0?0$0?0@Eigen@@$0?0$00$00@Eigen@@$0?0$00$0A@@Eigen@@@Eigen@@V?$Block@V?$Block@V?$Matrix@N$0?0$0?0$0A@$0?0$0?0@Eigen@@$0?0$0?0$0A@@Eigen@@$0?0$0?0$0A@@2@$0A@@1@AEBV?$MatrixBase@V?$Block@V?$Block@V?$Matrix@N$0?0$0?0$0A@$0?0$0?0@Eigen@@$0?0$0?0$0A@@Eigen@@$0?0$0?0$0A@@Eigen@@@1@@Z
	??$?DV?$Block@V?$Block@V?$Matrix@N$0?0$0?0$0A@$0?0$0?0@Eigen@@$0?0$0?0$0A@@Eigen@@$0?0$0?0$0A@@Eigen@@@?$MatrixBase@V?$Transpose@$$CBV?$Block@V?$Block@V?$Matrix@N$0?0$0?0$0A@$0?0$0?0@Eigen@@$0?0$00$00@Eigen@@$0?0$00$0A@@Eigen@@@Eigen@@@Eigen@@QEBA?BV?$Product@V?$Transpose@$$CBV?$Block@V?$Block@V?$Matrix@N$0?0$0?0$0A@$0?0$0?0@Eigen@@$0?0$00$00@Eigen@@$0?0$00$0A@@Eigen@@@Eigen@@V?$Block@V?$Block@V?$Matrix@N$0?0$0?0$0A@$0?0$0?0@Eigen@@$0?0$0?0$0A@@Eigen@@$0?0$0?0$0A@@2@$0A@@1@AEBV?$MatrixBase@V?$Block@V?$Block@V?$Matrix@N$0?0$0?0$0A@$0?0$0?0@Eigen@@$0?0$0?0$0A@@Eigen@@$0?0$0?0$0A@@Eigen@@@1@@Z
	??$?DV?$Block@V?$Matrix@N$0?0$00$0A@$0?0$00@Eigen@@$0?0$00$0A@@Eigen@@@?$MatrixBase@V?$Block@$$CBV?$Matrix@N$0?0$0?0$0A@$0?0$0?0@Eigen@@$0?0$0?0$0A@@Eigen@@@Eigen@@QEBA?BV?$Product@V?$Block@$$CBV?$Matrix@N$0?0$0?0$0A@$0?0$0?0@Eigen@@$0?0$0?0$0A@@Eigen@@V?$Block@V?$Matrix@N$0?0$00$0A@$0?0$00@Eigen@@$0?0$00$0A@@2@$0A@@1@AEBV?$MatrixBase@V?$Block@V?$Matrix@N$0?0$00$0A@$0?0$00@Eigen@@$0?0$00$0A@@Eigen@@@1@@Z
	??$?DV?$Block@V?$Matrix@N$0?0$00$0A@$0?0$00@Eigen@@$0?0$00$0A@@Eigen@@@?$MatrixBase@V?$Block@V?$Matrix@N$0?0$0?0$0A@$0?0$0?0@Eigen@@$00$0?0$0A@@Eigen@@@Eigen@@QEBA?BV?$Product@V?$Block@V?$Matrix@N$0?0$0?0$0A@$0?0$0?0@Eigen@@$00$0?0$0A@@Eigen@@V?$Block@V?$Matrix@N$0?0$00$0A@$0?0$00@Eigen@@$0?0$00$0A@@2@$0A@@1@AEBV?$MatrixBase@V?$Block@V?$Matrix@N$0?0$00$0A@$0?0$00@Eigen@@$0?0$00$0A@@Eigen@@@1@@Z
	??$?DV?$Block@V?$Matrix@N$0?0$00$0A@$0?0$00@Eigen@@$0?0$00$0A@@Eigen@@@?$MatrixBase@V?$Block@V?$Matrix@N$0?0$0?0$0A@$0?0$0?0@Eigen@@$0?0$0?0$0A@@Eigen@@@Eigen@@QEBA?BV?$Product@V?$Block@V?$Matrix@N$0?0$0?0$0A@$0?0$0?0@Eigen@@$0?0$0?0$0A@@Eigen@@V?$Block@V?$Matrix@N$0?0$00$0A@$0?0$00@Eigen@@$0?0$00$0A@@2@$0A@@1@AEBV?$MatrixBase@V?$Block@V?$Matrix@N$0?0$00$0A@$0?0$00@Eigen@@$0?0$00$0A@@Eigen@@@1@@Z
	??$?DV?$CwiseBinaryOp@U?$scalar_difference_op@NN@internal@Eigen@@$$CBV?$Product@V?$Product@V?$Matrix@N$0?0$0?0$0A@$0?0$0?0@Eigen@@V12@$0A@@Eigen@@V?$Matrix@N$0?0$00$0A@$0?0$00@2@$0A@@3@$$CBV?$Matrix@N$0?0$00$0A@$0?0$00@3@@Eigen@@@?$MatrixBase@V?$Transpose@V?$Matrix@N$0?0$0?0$0A@$0?0$0?0@Eigen@@@Eigen@@@Eigen@@QEBA?BV?$Product@V?$Transpose@V?$Matrix@N$0?0$0?0$0A@$0?0$0?0@Eigen@@@Eigen@@V?$CwiseBinaryOp@U?$scalar_difference_op@NN@internal@Eigen@@$$CBV?$Product@V?$Product@V?$Matrix@N$0?0$0?0$0A@$0?0$0?0@Eigen@@V12@$0A@@Eigen@@V?$Matrix@N$0?0$00$0A@$0?0$00@2@$0A@@3@$$CBV?$Matrix@N$0?0$00$0A@$0?0$00@3@@2@$0A@@1@AEBV?$MatrixBase@V?$CwiseBinaryOp@U?$scalar_difference_op@NN@internal@Eigen@@$$CBV?$Product@V?$Product@V?$Matrix@N$0?0$0?0$0A@$0?0$0?0@Eigen@@V12@$0A@@Eigen@@V?$Matrix@N$0?0$00$0A@$0?0$00@2@$0A@@3@$$CBV?$Matrix@N$0?0$00$0A@$0?0$00@3@@Eigen@@@1@@Z
	??$?DV?$CwiseBinaryOp@U?$scalar_sum_op@NN@internal@Eigen@@$$CBV?$Product@V?$Matrix@N$0?0$0?0$0A@$0?0$0?0@Eigen@@V?$Matrix@N$0?0$00$0A@$0?0$00@2@$0A@@3@$$CBV?$Matrix@N$0?0$00$0A@$0?0$00@3@@Eigen@@@?$MatrixBase@V?$Transpose@V?$Matrix@N$0?0$0?0$0A@$0?0$0?0@Eigen@@@Eigen@@@Eigen@@QEBA?BV?$Product@V?$Transpose@V?$Matrix@N$0?0$0?0$0A@$0?0$0?0@Eigen@@@Eigen@@V?$CwiseBinaryOp@U?$scalar_sum_op@NN@internal@Eigen@@$$CBV?$Product@V?$Matrix@N$0?0$0?0$0A@$0?0$0?0@Eigen@@V?$Matrix@N$0?0$00$0A@$0?0$00@2@$0A@@3@$$CBV?$Matrix@N$0?0$00$0A@$0?0$00@3@@2@$0A@@1@AEBV?$MatrixBase@V?$CwiseBinaryOp@U?$scalar_sum_op@NN@internal@Eigen@@$$CBV?$Product@V?$Matrix@N$0?0$0?0$0A@$0?0$0?0@Eigen@@V?$Matrix@N$0?0$00$0A@$0?0$00@2@$0A@@3@$$CBV?$Matrix@N$0?0$00$0A@$0?0$00@3@@Eigen@@@1@@Z
	??$?DV?$CwiseUnaryOp@U?$scalar_opposite_op@N@internal@Eigen@@$$CBV?$Matrix@N$0?0$00$0A@$0?0$00@3@@Eigen@@@?$MatrixBase@V?$Transpose@V?$Matrix@N$0?0$0?0$0A@$0?0$0?0@Eigen@@@Eigen@@@Eigen@@QEBA?BV?$Product@V?$Transpose@V?$Matrix@N$0?0$0?0$0A@$0?0$0?0@Eigen@@@Eigen@@V?$CwiseUnaryOp@U?$scalar_opposite_op@N@internal@Eigen@@$$CBV?$Matrix@N$0?0$00$0A@$0?0$00@3@@2@$0A@@1@AEBV?$MatrixBase@V?$CwiseUnaryOp@U?$scalar_opposite_op@N@internal@Eigen@@$$CBV?$Matrix@N$0?0$00$0A@$0?0$00@3@@Eigen@@@1@@Z
	??$?DV?$Map@V?$Matrix@N$00$00$00$00$00@Eigen@@$0A@V?$Stride@$0A@$0A@@2@@Eigen@@@?$MatrixBase@V?$CwiseBinaryOp@U?$scalar_product_op@NN@internal@Eigen@@$$CBV?$CwiseNullaryOp@U?$scalar_constant_op@N@internal@Eigen@@$$CBV?$Matrix@N$0?0$00$0A@$0?0$00@3@@3@$$CBV?$Block@$$CBV?$Matrix@N$0?0$0?0$0A@$0?0$0?0@Eigen@@$0?0$00$0A@@3@@Eigen@@@Eigen@@QEBA?BV?$Product@V?$CwiseBinaryOp@U?$scalar_product_op@NN@internal@Eigen@@$$CBV?$CwiseNullaryOp@U?$scalar_constant_op@N@internal@Eigen@@$$CBV?$Matrix@N$0?0$00$0A@$0?0$00@3@@3@$$CBV?$Block@$$CBV?$Matrix@N$0?0$0?0$0A@$0?0$0?0@Eigen@@$0?0$00$0A@@3@@Eigen@@V?$Map@V?$Matrix@N$00$00$00$00$00@Eigen@@$0A@V?$Stride@$0A@$0A@@2@@2@$0A@@1@AEBV?$MatrixBase@V?$Map@V?$Matrix@N$00$00$00$00$00@Eigen@@$0A@V?$Stride@$0A@$0A@@2@@Eigen@@@1@@Z
	??$?DV?$Map@V?$Matrix@N$00$0?0$00$00$00@Eigen@@$0A@V?$Stride@$0A@$0A@@2@@Eigen@@@?$MatrixBase@V?$CwiseBinaryOp@U?$scalar_product_op@NN@internal@Eigen@@$$CBV?$CwiseNullaryOp@U?$scalar_constant_op@N@internal@Eigen@@$$CBV?$Matrix@N$0?0$00$0A@$0?0$00@3@@3@$$CBV?$Block@$$CBV?$Matrix@N$0?0$0?0$0A@$0?0$0?0@Eigen@@$0?0$00$0A@@3@@Eigen@@@Eigen@@QEBA?BV?$Product@V?$CwiseBinaryOp@U?$scalar_product_op@NN@internal@Eigen@@$$CBV?$CwiseNullaryOp@U?$scalar_constant_op@N@internal@Eigen@@$$CBV?$Matrix@N$0?0$00$0A@$0?0$00@3@@3@$$CBV?$Block@$$CBV?$Matrix@N$0?0$0?0$0A@$0?0$0?0@Eigen@@$0?0$00$0A@@3@@Eigen@@V?$Map@V?$Matrix@N$00$0?0$00$00$00@Eigen@@$0A@V?$Stride@$0A@$0A@@2@@2@$0A@@1@AEBV?$MatrixBase@V?$Map@V?$Matrix@N$00$0?0$00$00$00@Eigen@@$0A@V?$Stride@$0A@$0A@@2@@Eigen@@@1@@Z
	??$?DV?$Map@V?$Matrix@N$00$0?0$00$00$0?0@Eigen@@$0A@V?$Stride@$0A@$0A@@2@@Eigen@@@?$MatrixBase@V?$CwiseBinaryOp@U?$scalar_product_op@NN@internal@Eigen@@$$CBV?$CwiseNullaryOp@U?$scalar_constant_op@N@internal@Eigen@@$$CBV?$Matrix@N$0?0$00$0A@$0?0$00@3@@3@$$CBV?$Block@$$CBV?$Block@$$CBV?$Matrix@N$0?0$0?0$0A@$0?0$0?0@Eigen@@$0?0$00$00@Eigen@@$0?0$00$0A@@3@@Eigen@@@Eigen@@QEBA?BV?$Product@V?$CwiseBinaryOp@U?$scalar_product_op@NN@internal@Eigen@@$$CBV?$CwiseNullaryOp@U?$scalar_constant_op@N@internal@Eigen@@$$CBV?$Matrix@N$0?0$00$0A@$0?0$00@3@@3@$$CBV?$Block@$$CBV?$Block@$$CBV?$Matrix@N$0?0$0?0$0A@$0?0$0?0@Eigen@@$0?0$00$00@Eigen@@$0?0$00$0A@@3@@Eigen@@V?$Map@V?$Matrix@N$00$0?0$00$00$0?0@Eigen@@$0A@V?$Stride@$0A@$0A@@2@@2@$0A@@1@AEBV?$MatrixBase@V?$Map@V?$Matrix@N$00$0?0$00$00$0?0@Eigen@@$0A@V?$Stride@$0A@$0A@@2@@Eigen@@@1@@Z
	??$?DV?$Map@V?$Matrix@N$00$0?0$00$00$0?0@Eigen@@$0A@V?$Stride@$0A@$0A@@2@@Eigen@@@?$MatrixBase@V?$CwiseBinaryOp@U?$scalar_product_op@NN@internal@Eigen@@$$CBV?$CwiseNullaryOp@U?$scalar_constant_op@N@internal@Eigen@@$$CBV?$Matrix@N$0?0$00$0A@$0?0$00@3@@3@$$CBV?$Block@V?$Block@V?$Matrix@N$0?0$0?0$0A@$0?0$0?0@Eigen@@$0?0$00$00@Eigen@@$0?0$00$0A@@3@@Eigen@@@Eigen@@QEBA?BV?$Product@V?$CwiseBinaryOp@U?$scalar_product_op@NN@internal@Eigen@@$$CBV?$CwiseNullaryOp@U?$scalar_constant_op@N@internal@Eigen@@$$CBV?$Matrix@N$0?0$00$0A@$0?0$00@3@@3@$$CBV?$Block@V?$Block@V?$Matrix@N$0?0$0?0$0A@$0?0$0?0@Eigen@@$0?0$00$00@Eigen@@$0?0$00$0A@@3@@Eigen@@V?$Map@V?$Matrix@N$00$0?0$00$00$0?0@Eigen@@$0A@V?$Stride@$0A@$0A@@2@@2@$0A@@1@AEBV?$MatrixBase@V?$Map@V?$Matrix@N$00$0?0$00$00$0?0@Eigen@@$0A@V?$Stride@$0A@$0A@@2@@Eigen@@@1@@Z
	??$?DV?$Matrix@N$0?0$00$0A@$0?0$00@Eigen@@@?$MatrixBase@V?$CwiseUnaryOp@U?$scalar_opposite_op@N@internal@Eigen@@$$CBV?$Matrix@N$0?0$0?0$0A@$0?0$0?0@3@@Eigen@@@Eigen@@QEBA?BV?$Product@V?$CwiseUnaryOp@U?$scalar_opposite_op@N@internal@Eigen@@$$CBV?$Matrix@N$0?0$0?0$0A@$0?0$0?0@3@@Eigen@@V?$Matrix@N$0?0$00$0A@$0?0$00@2@$0A@@1@AEBV?$MatrixBase@V?$Matrix@N$0?0$00$0A@$0?0$00@Eigen@@@1@@Z
	??$?DV?$Matrix@N$0?0$00$0A@$0?0$00@Eigen@@@?$MatrixBase@V?$Matrix@N$0?0$0?0$0A@$0?0$0?0@Eigen@@@Eigen@@QEBA?BV?$Product@V?$Matrix@N$0?0$0?0$0A@$0?0$0?0@Eigen@@V?$Matrix@N$0?0$00$0A@$0?0$00@2@$0A@@1@AEBV?$MatrixBase@V?$Matrix@N$0?0$00$0A@$0?0$00@Eigen@@@1@@Z
	??$?DV?$Matrix@N$0?0$00$0A@$0?0$00@Eigen@@@?$MatrixBase@V?$Product@V?$Matrix@N$0?0$0?0$0A@$0?0$0?0@Eigen@@V12@$0A@@Eigen@@@Eigen@@QEBA?BV?$Product@V?$Product@V?$Matrix@N$0?0$0?0$0A@$0?0$0?0@Eigen@@V12@$0A@@Eigen@@V?$Matrix@N$0?0$00$0A@$0?0$00@2@$0A@@1@AEBV?$MatrixBase@V?$Matrix@N$0?0$00$0A@$0?0$00@Eigen@@@1@@Z
	??$?DV?$Matrix@N$0?0$00$0A@$0?0$00@Eigen@@@?$MatrixBase@V?$Transpose@V?$Matrix@N$0?0$00$0A@$0?0$00@Eigen@@@Eigen@@@Eigen@@QEBA?BV?$Product@V?$Transpose@V?$Matrix@N$0?0$00$0A@$0?0$00@Eigen@@@Eigen@@V?$Matrix@N$0?0$00$0A@$0?0$00@2@$0A@@1@AEBV?$MatrixBase@V?$Matrix@N$0?0$00$0A@$0?0$00@Eigen@@@1@@Z
	??$?DV?$Matrix@N$0?0$00$0A@$0?0$00@Eigen@@@?$MatrixBase@V?$Transpose@V?$Matrix@N$0?0$0?0$0A@$0?0$0?0@Eigen@@@Eigen@@@Eigen@@QEBA?BV?$Product@V?$Transpose@V?$Matrix@N$0?0$0?0$0A@$0?0$0?0@Eigen@@@Eigen@@V?$Matrix@N$0?0$00$0A@$0?0$00@2@$0A@@1@AEBV?$MatrixBase@V?$Matrix@N$0?0$00$0A@$0?0$00@Eigen@@@1@@Z
	??$?DV?$Matrix@N$0?0$0?0$0A@$0?0$0?0@Eigen@@@?$MatrixBase@V?$Matrix@N$0?0$0?0$0A@$0?0$0?0@Eigen@@@Eigen@@QEBA?BV?$Product@V?$Matrix@N$0?0$0?0$0A@$0?0$0?0@Eigen@@V12@$0A@@1@AEBV01@@Z
	??$?DV?$Matrix@N$0?0$0?0$0A@$0?0$0?0@Eigen@@@?$MatrixBase@V?$Product@V?$Transpose@V?$Matrix@N$0?0$0?0$0A@$0?0$0?0@Eigen@@@Eigen@@V?$Matrix@N$0?0$0?0$0A@$0?0$0?0@2@$0A@@Eigen@@@Eigen@@QEBA?BV?$Product@V?$Product@V?$Transpose@V?$Matrix@N$0?0$0?0$0A@$0?0$0?0@Eigen@@@Eigen@@V?$Matrix@N$0?0$0?0$0A@$0?0$0?0@2@$0A@@Eigen@@V?$Matrix@N$0?0$0?0$0A@$0?0$0?0@2@$0A@@1@AEBV?$MatrixBase@V?$Matrix@N$0?0$0?0$0A@$0?0$0?0@Eigen@@@1@@Z
	??$?DV?$Matrix@N$0?0$0?0$0A@$0?0$0?0@Eigen@@@?$MatrixBase@V?$Transpose@V?$Matrix@N$0?0$0?0$0A@$0?0$0?0@Eigen@@@Eigen@@@Eigen@@QEBA?BV?$Product@V?$Transpose@V?$Matrix@N$0?0$0?0$0A@$0?0$0?0@Eigen@@@Eigen@@V?$Matrix@N$0?0$0?0$0A@$0?0$0?0@2@$0A@@1@AEBV?$MatrixBase@V?$Matrix@N$0?0$0?0$0A@$0?0$0?0@Eigen@@@1@@Z
	??$?DV?$PermutationMatrix@$0?0$0?0H@Eigen@@V?$CwiseUnaryOp@U?$scalar_opposite_op@N@internal@Eigen@@$$CBV?$Matrix@N$0?0$00$0A@$0?0$00@3@@1@@Eigen@@YA?BV?$Product@V?$PermutationMatrix@$0?0$0?0H@Eigen@@V?$CwiseUnaryOp@U?$scalar_opposite_op@N@internal@Eigen@@$$CBV?$Matrix@N$0?0$00$0A@$0?0$00@3@@2@$0A@@0@AEBV?$PermutationBase@V?$PermutationMatrix@$0?0$0?0H@Eigen@@@0@AEBV?$MatrixBase@V?$CwiseUnaryOp@U?$scalar_opposite_op@N@internal@Eigen@@$$CBV?$Matrix@N$0?0$00$0A@$0?0$00@3@@Eigen@@@0@@Z
	??$?DV?$PermutationMatrix@$0?0$0?0H@Eigen@@V?$Matrix@N$0?0$00$0A@$0?0$00@1@@Eigen@@YA?BV?$Product@V?$PermutationMatrix@$0?0$0?0H@Eigen@@V?$Matrix@N$0?0$00$0A@$0?0$00@2@$0A@@0@AEBV?$PermutationBase@V?$PermutationMatrix@$0?0$0?0H@Eigen@@@0@AEBV?$MatrixBase@V?$Matrix@N$0?0$00$0A@$0?0$00@Eigen@@@0@@Z
	??$?DV?$Solve@V?$FullPivLU@V?$Matrix@N$0?0$0?0$0A@$0?0$0?0@Eigen@@H@Eigen@@V?$CwiseUnaryOp@U?$scalar_opposite_op@N@internal@Eigen@@$$CBV?$Matrix@N$0?0$00$0A@$0?0$00@3@@2@@Eigen@@@?$MatrixBase@V?$Transpose@$$CBV?$Matrix@N$0?0$0?0$0A@$0?0$0?0@Eigen@@@Eigen@@@Eigen@@QEBA?BV?$Product@V?$Transpose@$$CBV?$Matrix@N$0?0$0?0$0A@$0?0$0?0@Eigen@@@Eigen@@V?$Solve@V?$FullPivLU@V?$Matrix@N$0?0$0?0$0A@$0?0$0?0@Eigen@@H@Eigen@@V?$CwiseUnaryOp@U?$scalar_opposite_op@N@internal@Eigen@@$$CBV?$Matrix@N$0?0$00$0A@$0?0$00@3@@2@@2@$0A@@1@AEBV?$MatrixBase@V?$Solve@V?$FullPivLU@V?$Matrix@N$0?0$0?0$0A@$0?0$0?0@Eigen@@H@Eigen@@V?$CwiseUnaryOp@U?$scalar_opposite_op@N@internal@Eigen@@$$CBV?$Matrix@N$0?0$00$0A@$0?0$00@3@@2@@Eigen@@@1@@Z
	??$?DV?$Solve@V?$LDLT@V?$Matrix@N$0?0$0?0$0A@$0?0$0?0@Eigen@@$00@Eigen@@V?$CwiseUnaryOp@U?$scalar_opposite_op@N@internal@Eigen@@$$CBV?$Matrix@N$0?0$00$0A@$0?0$00@3@@2@@Eigen@@@?$MatrixBase@V?$Transpose@$$CBV?$Matrix@N$0?0$0?0$0A@$0?0$0?0@Eigen@@@Eigen@@@Eigen@@QEBA?BV?$Product@V?$Transpose@$$CBV?$Matrix@N$0?0$0?0$0A@$0?0$0?0@Eigen@@@Eigen@@V?$Solve@V?$LDLT@V?$Matrix@N$0?0$0?0$0A@$0?0$0?0@Eigen@@$00@Eigen@@V?$CwiseUnaryOp@U?$scalar_opposite_op@N@internal@Eigen@@$$CBV?$Matrix@N$0?0$00$0A@$0?0$00@3@@2@@2@$0A@@1@AEBV?$MatrixBase@V?$Solve@V?$LDLT@V?$Matrix@N$0?0$0?0$0A@$0?0$0?0@Eigen@@$00@Eigen@@V?$CwiseUnaryOp@U?$scalar_opposite_op@N@internal@Eigen@@$$CBV?$Matrix@N$0?0$00$0A@$0?0$00@3@@2@@Eigen@@@1@@Z
	??$?DV?$Transpose@$$CBV?$Matrix@N$0?0$0?0$0A@$0?0$0?0@Eigen@@@Eigen@@@?$MatrixBase@V?$Matrix@N$0?0$0?0$0A@$0?0$0?0@Eigen@@@Eigen@@QEBA?BV?$Product@V?$Matrix@N$0?0$0?0$0A@$0?0$0?0@Eigen@@V?$Transpose@$$CBV?$Matrix@N$0?0$0?0$0A@$0?0$0?0@Eigen@@@2@$0A@@1@AEBV?$MatrixBase@V?$Transpose@$$CBV?$Matrix@N$0?0$0?0$0A@$0?0$0?0@Eigen@@@Eigen@@@1@@Z
	??$?DV?$Transpose@V?$Matrix@N$0?0$00$0A@$0?0$00@Eigen@@@Eigen@@@?$MatrixBase@V?$CwiseBinaryOp@U?$scalar_product_op@NN@internal@Eigen@@$$CBV?$CwiseNullaryOp@U?$scalar_constant_op@N@internal@Eigen@@$$CBV?$Matrix@N$0?0$00$0A@$0?0$00@3@@3@$$CBV?$Matrix@N$0?0$00$0A@$0?0$00@3@@Eigen@@@Eigen@@QEBA?BV?$Product@V?$CwiseBinaryOp@U?$scalar_product_op@NN@internal@Eigen@@$$CBV?$CwiseNullaryOp@U?$scalar_constant_op@N@internal@Eigen@@$$CBV?$Matrix@N$0?0$00$0A@$0?0$00@3@@3@$$CBV?$Matrix@N$0?0$00$0A@$0?0$00@3@@Eigen@@V?$Transpose@V?$Matrix@N$0?0$00$0A@$0?0$00@Eigen@@@2@$0A@@1@AEBV?$MatrixBase@V?$Transpose@V?$Matrix@N$0?0$00$0A@$0?0$00@Eigen@@@Eigen@@@1@@Z
	??$?DV?$Transpose@V?$Matrix@N$0?0$00$0A@$0?0$00@Eigen@@@Eigen@@@?$MatrixBase@V?$Matrix@N$0?0$00$0A@$0?0$00@Eigen@@@Eigen@@QEBA?BV?$Product@V?$Matrix@N$0?0$00$0A@$0?0$00@Eigen@@V?$Transpose@V?$Matrix@N$0?0$00$0A@$0?0$00@Eigen@@@2@$0A@@1@AEBV?$MatrixBase@V?$Transpose@V?$Matrix@N$0?0$00$0A@$0?0$00@Eigen@@@Eigen@@@1@@Z
	??$?DV?$Transpositions@$0?0$0?0H@Eigen@@V?$CwiseUnaryOp@U?$scalar_opposite_op@N@internal@Eigen@@$$CBV?$Matrix@N$0?0$00$0A@$0?0$00@3@@1@@Eigen@@YA?BV?$Product@V?$Transpositions@$0?0$0?0H@Eigen@@V?$CwiseUnaryOp@U?$scalar_opposite_op@N@internal@Eigen@@$$CBV?$Matrix@N$0?0$00$0A@$0?0$00@3@@2@$01@0@AEBV?$TranspositionsBase@V?$Transpositions@$0?0$0?0H@Eigen@@@0@AEBV?$MatrixBase@V?$CwiseUnaryOp@U?$scalar_opposite_op@N@internal@Eigen@@$$CBV?$Matrix@N$0?0$00$0A@$0?0$00@3@@Eigen@@@0@@Z
	??$?HDU?$char_traits@D@std@@V?$allocator@D@1@@std@@YA?AV?$basic_string@DU?$char_traits@D@std@@V?$allocator@D@2@@0@$$QEAV10@0@Z
	??$?HDU?$char_traits@D@std@@V?$allocator@D@1@@std@@YA?AV?$basic_string@DU?$char_traits@D@std@@V?$allocator@D@2@@0@$$QEAV10@AEBV10@@Z
	??$?HDU?$char_traits@D@std@@V?$allocator@D@1@@std@@YA?AV?$basic_string@DU?$char_traits@D@std@@V?$allocator@D@2@@0@$$QEAV10@QEBD@Z
	??$?HDU?$char_traits@D@std@@V?$allocator@D@1@@std@@YA?AV?$basic_string@DU?$char_traits@D@std@@V?$allocator@D@2@@0@QEBD$$QEAV10@@Z
	??$?HDU?$char_traits@D@std@@V?$allocator@D@1@@std@@YA?AV?$basic_string@DU?$char_traits@D@std@@V?$allocator@D@2@@0@QEBDAEBV10@@Z
	??$?MDU?$char_traits@D@std@@V?$allocator@D@1@@std@@YA_NAEBV?$basic_string@DU?$char_traits@D@std@@V?$allocator@D@2@@0@0@Z
	??$?MDU?$char_traits@D@std@@V?$allocator@D@1@@std@@YA_NAEBV?$basic_string@DU?$char_traits@D@std@@V?$allocator@D@2@@0@QEBD@Z
	??$?MDU?$char_traits@D@std@@V?$allocator@D@1@@std@@YA_NQEBDAEBV?$basic_string@DU?$char_traits@D@std@@V?$allocator@D@2@@0@@Z
	??$?RAEBV?$basic_string@DU?$char_traits@D@std@@V?$allocator@D@2@@std@@AEBV01@@?$less@X@std@@QEBA_NAEBV?$basic_string@DU?$char_traits@D@std@@V?$allocator@D@2@@1@0@Z
	??$?RV?$Block@V?$Block@V?$Block@V?$Matrix@N$0?0$0?0$0A@$0?0$0?0@Eigen@@$0?0$0?0$0A@@Eigen@@$0?0$0?0$0A@@Eigen@@$0?0$00$00@Eigen@@V?$CwiseBinaryOp@U?$scalar_product_op@NN@internal@Eigen@@$$CBV?$CwiseNullaryOp@U?$scalar_constant_op@N@internal@Eigen@@$$CBV?$Matrix@N$0?0$00$0A@$0?0$00@3@@3@$$CBV?$Map@V?$Matrix@N$0?0$00$0A@$0?0$00@Eigen@@$0BA@V?$Stride@$0A@$0A@@2@@3@@1@@sub@?$generic_product_impl@V?$CwiseBinaryOp@U?$scalar_product_op@NN@internal@Eigen@@$$CBV?$CwiseNullaryOp@U?$scalar_constant_op@N@internal@Eigen@@$$CBV?$Matrix@N$0?0$00$0A@$0?0$00@3@@3@$$CBV?$Block@$$CBV?$Block@$$CBV?$Matrix@N$0?0$0?0$0A@$0?0$0?0@Eigen@@$0?0$00$00@Eigen@@$0?0$00$0A@@3@@Eigen@@V?$Map@V?$Matrix@N$00$0?0$00$00$0?0@Eigen@@$0A@V?$Stride@$0A@$0A@@2@@2@UDenseShape@2@U42@$04@internal@Eigen@@QEBAXAEBV?$Block@V?$Block@V?$Block@V?$Matrix@N$0?0$0?0$0A@$0?0$0?0@Eigen@@$0?0$0?0$0A@@Eigen@@$0?0$0?0$0A@@Eigen@@$0?0$00$00@3@AEBV?$CwiseBinaryOp@U?$scalar_product_op@NN@internal@Eigen@@$$CBV?$CwiseNullaryOp@U?$scalar_constant_op@N@internal@Eigen@@$$CBV?$Matrix@N$0?0$00$0A@$0?0$00@3@@3@$$CBV?$Map@V?$Matrix@N$0?0$00$0A@$0?0$00@Eigen@@$0BA@V?$Stride@$0A@$0A@@2@@3@@3@@Z
	??$?RV?$Block@V?$Block@V?$Block@V?$Matrix@N$0?0$0?0$0A@$0?0$0?0@Eigen@@$0?0$0?0$0A@@Eigen@@$0?0$0?0$0A@@Eigen@@$0?0$00$00@Eigen@@V?$CwiseBinaryOp@U?$scalar_product_op@NN@internal@Eigen@@$$CBV?$CwiseNullaryOp@U?$scalar_constant_op@N@internal@Eigen@@$$CBV?$Matrix@N$0?0$00$0A@$0?0$00@3@@3@$$CBV?$Map@V?$Matrix@N$0?0$00$0A@$0?0$00@Eigen@@$0BA@V?$Stride@$0A@$0A@@2@@3@@1@@sub@?$generic_product_impl@V?$CwiseBinaryOp@U?$scalar_product_op@NN@internal@Eigen@@$$CBV?$CwiseNullaryOp@U?$scalar_constant_op@N@internal@Eigen@@$$CBV?$Matrix@N$0?0$00$0A@$0?0$00@3@@3@$$CBV?$Block@V?$Block@V?$Matrix@N$0?0$0?0$0A@$0?0$0?0@Eigen@@$0?0$00$00@Eigen@@$0?0$00$0A@@3@@Eigen@@V?$Map@V?$Matrix@N$00$0?0$00$00$0?0@Eigen@@$0A@V?$Stride@$0A@$0A@@2@@2@UDenseShape@2@U42@$04@internal@Eigen@@QEBAXAEBV?$Block@V?$Block@V?$Block@V?$Matrix@N$0?0$0?0$0A@$0?0$0?0@Eigen@@$0?0$0?0$0A@@Eigen@@$0?0$0?0$0A@@Eigen@@$0?0$00$00@3@AEBV?$CwiseBinaryOp@U?$scalar_product_op@NN@internal@Eigen@@$$CBV?$CwiseNullaryOp@U?$scalar_constant_op@N@internal@Eigen@@$$CBV?$Matrix@N$0?0$00$0A@$0?0$00@3@@3@$$CBV?$Map@V?$Matrix@N$0?0$00$0A@$0?0$00@Eigen@@$0BA@V?$Stride@$0A@$0A@@2@@3@@3@@Z
	??$?RV?$Block@V?$Block@V?$Matrix@N$0?0$0?0$0A@$0?0$0?0@Eigen@@$0?0$0?0$0A@@Eigen@@$0?0$00$00@Eigen@@V?$CwiseBinaryOp@U?$scalar_product_op@NN@internal@Eigen@@$$CBV?$CwiseNullaryOp@U?$scalar_constant_op@N@internal@Eigen@@$$CBV?$Matrix@N$0?0$00$0A@$0?0$00@3@@3@$$CBV?$Block@V?$Block@V?$Matrix@N$0?0$0?0$0A@$0?0$0?0@Eigen@@$0?0$00$00@Eigen@@$0?0$00$0A@@3@@1@@sub@?$generic_product_impl@V?$Block@V?$Block@V?$Matrix@N$0?0$0?0$0A@$0?0$0?0@Eigen@@$0?0$00$00@Eigen@@$0?0$00$0A@@Eigen@@V?$Block@V?$Block@V?$Matrix@N$0?0$0?0$0A@$0?0$0?0@Eigen@@$00$0?0$0A@@Eigen@@$00$0?0$0A@@2@UDenseShape@2@U42@$04@internal@Eigen@@QEBAXAEBV?$Block@V?$Block@V?$Matrix@N$0?0$0?0$0A@$0?0$0?0@Eigen@@$0?0$0?0$0A@@Eigen@@$0?0$00$00@3@AEBV?$CwiseBinaryOp@U?$scalar_product_op@NN@internal@Eigen@@$$CBV?$CwiseNullaryOp@U?$scalar_constant_op@N@internal@Eigen@@$$CBV?$Matrix@N$0?0$00$0A@$0?0$00@3@@3@$$CBV?$Block@V?$Block@V?$Matrix@N$0?0$0?0$0A@$0?0$0?0@Eigen@@$0?0$00$00@Eigen@@$0?0$00$0A@@3@@3@@Z
	??$?RV?$SparseMatrix@N$0A@H@Eigen@@@?$COLAMDOrdering@H@Eigen@@QEAAXAEBV?$SparseMatrix@N$0A@H@1@AEAV?$PermutationMatrix@$0?0$0?0H@1@@Z
	??$?RV?$_String_iterator@V?$_String_val@U?$_Simple_types@D@std@@@std@@@std@@@?$token_finderF@U?$is_any_ofF@D@detail@algorithm@boost@@@detail@algorithm@boost@@QEBA?AV?$iterator_range@V?$_String_iterator@V?$_String_val@U?$_Simple_types@D@std@@@std@@@std@@@3@V?$_String_iterator@V?$_String_val@U?$_Simple_types@D@std@@@std@@@std@@0@Z
	??$?ZV?$CwiseBinaryOp@U?$scalar_product_op@NN@internal@Eigen@@$$CBV?$CwiseNullaryOp@U?$scalar_constant_op@N@internal@Eigen@@$$CBV?$Matrix@N$0?0$00$0A@$0?0$00@3@@3@$$CBV?$Block@V?$SparseMatrix@N$0A@H@Eigen@@$0?0$00$00@3@@Eigen@@@?$DenseBase@V?$Matrix@N$0?0$00$0A@$0?0$00@Eigen@@@Eigen@@QEAAAEAV?$Matrix@N$0?0$00$0A@$0?0$00@1@AEBU?$EigenBase@V?$CwiseBinaryOp@U?$scalar_product_op@NN@internal@Eigen@@$$CBV?$CwiseNullaryOp@U?$scalar_constant_op@N@internal@Eigen@@$$CBV?$Matrix@N$0?0$00$0A@$0?0$00@3@@3@$$CBV?$Block@V?$SparseMatrix@N$0A@H@Eigen@@$0?0$00$00@3@@Eigen@@@1@@Z
	??$NullaryExpr@U?$linspaced_op@H@internal@Eigen@@@?$DenseBase@V?$Block@V?$Matrix@H$0?0$00$0A@$0?0$00@Eigen@@$0?0$00$0A@@Eigen@@@Eigen@@SA?BV?$CwiseNullaryOp@U?$linspaced_op@H@internal@Eigen@@V?$Matrix@H$0?0$00$0A@$0?0$00@3@@1@_JAEBU?$linspaced_op@H@internal@1@@Z
	??$NullaryExpr@U?$linspaced_op@H@internal@Eigen@@@?$DenseBase@V?$Matrix@H$0?0$00$0A@$0?0$00@Eigen@@@Eigen@@SA?BV?$CwiseNullaryOp@U?$linspaced_op@H@internal@Eigen@@V?$Matrix@H$0?0$00$0A@$0?0$00@3@@1@_JAEBU?$linspaced_op@H@internal@1@@Z
	??$NullaryExpr@U?$scalar_constant_op@N@internal@Eigen@@@?$DenseBase@V?$Array@N$0?0$00$0A@$0?0$00@Eigen@@@Eigen@@SA?BV?$CwiseNullaryOp@U?$scalar_constant_op@N@internal@Eigen@@V?$Array@N$0?0$00$0A@$0?0$00@3@@1@_J0AEBU?$scalar_constant_op@N@internal@1@@Z
	??$NullaryExpr@U?$scalar_identity_op@N@internal@Eigen@@@?$DenseBase@V?$Matrix@N$0?0$0?0$0A@$0?0$0?0@Eigen@@@Eigen@@SA?BV?$CwiseNullaryOp@U?$scalar_identity_op@N@internal@Eigen@@V?$Matrix@N$0?0$0?0$0A@$0?0$0?0@3@@1@_J0AEBU?$scalar_identity_op@N@internal@1@@Z
	??$_Allocate@$0BA@U_Default_allocate_traits@std@@@std@@YAPEAX_K@Z
	??$_Allocate_at_least_helper@V?$allocator@VArc@GCS@@@std@@@std@@YAPEAVArc@GCS@@AEAV?$allocator@VArc@GCS@@@0@AEA_K@Z
	??$_Allocate_at_least_helper@V?$allocator@VCircle@GCS@@@std@@@std@@YAPEAVCircle@GCS@@AEAV?$allocator@VCircle@GCS@@@0@AEA_K@Z
	??$_Allocate_at_least_helper@V?$allocator@VLine@GCS@@@std@@@std@@YAPEAVLine@GCS@@AEAV?$allocator@VLine@GCS@@@0@AEA_K@Z
	??$_Allocate_at_least_helper@V?$allocator@VPoint@GCS@@@std@@@std@@YAPEAVPoint@GCS@@AEAV?$allocator@VPoint@GCS@@@0@AEA_K@Z
	??$_Allocate_for_capacity@$0A@@?$basic_string@DU?$char_traits@D@std@@V?$allocator@D@2@@std@@CAPEADAEAV?$allocator@D@1@AEA_K@Z
	??$_Allocate_manually_vector_aligned@U_Default_allocate_traits@std@@@std@@YAPEAX_K@Z
	??$_Append_uncounted_range@V?$transform_iterator@U?$copy_iterator_rangeF@V?$basic_string@DU?$char_traits@D@std@@V?$allocator@D@2@@std@@V?$_String_iterator@V?$_String_val@U?$_Simple_types@D@std@@@std@@@2@@detail@algorithm@boost@@V?$split_iterator@V?$_String_iterator@V?$_String_val@U?$_Simple_types@D@std@@@std@@@std@@@34@Uuse_default@4@U64@@iterators@boost@@V123@@?$vector@V?$basic_string@DU?$char_traits@D@std@@V?$allocator@D@2@@std@@V?$allocator@V?$basic_string@DU?$char_traits@D@std@@V?$allocator@D@2@@std@@@2@@std@@AEAAXV?$transform_iterator@U?$copy_iterator_rangeF@V?$basic_string@DU?$char_traits@D@std@@V?$allocator@D@2@@std@@V?$_String_iterator@V?$_String_val@U?$_Simple_types@D@std@@@std@@@2@@detail@algorithm@boost@@V?$split_iterator@V?$_String_iterator@V?$_String_val@U?$_Simple_types@D@std@@@std@@@std@@@34@Uuse_default@4@U64@@iterators@boost@@V234@@Z
	??$_Assign@VNamedShape@oreo@@@?$_Optional_construct_base@VNamedShape@oreo@@@std@@QEAAX$$QEAVNamedShape@oreo@@@Z
	??$_Assign_counted_range@PEAH@?$vector@HV?$allocator@H@std@@@std@@AEAAXPEAH_K@Z
	??$_Assign_counted_range@PEAI@?$vector@IV?$allocator@I@std@@@std@@AEAAXPEAI_K@Z
	??$_Assign_counted_range@PEAM@?$vector@MV?$allocator@M@std@@@std@@AEAAXPEAM_K@Z
	??$_Assign_counted_range@PEAN@?$vector@NV?$allocator@N@std@@@std@@AEAAXPEAN_K@Z
	??$_Assign_counted_range@PEAPEAN@?$vector@PEANV?$allocator@PEAN@std@@@std@@AEAAXPEAPEAN_K@Z
	??$_Assign_counted_range@PEAPEAVConstraint@GCS@@@?$vector@PEAVConstraint@GCS@@V?$allocator@PEAVConstraint@GCS@@@std@@@std@@AEAAXPEAPEAVConstraint@GCS@@_K@Z
	??$_Assign_counted_range@PEAPEAVSubSystem@GCS@@@?$vector@PEAVSubSystem@GCS@@V?$allocator@PEAVSubSystem@GCS@@@std@@@std@@AEAAXPEAPEAVSubSystem@GCS@@_K@Z
	??$_Assign_counted_range@PEAPEAX@?$vector@PEAXV?$allocator@PEAX@std@@@std@@AEAAXPEAPEAX_K@Z
	??$_Assign_counted_range@PEAUElementRef@oreo@@@?$vector@UElementRef@oreo@@V?$allocator@UElementRef@oreo@@@std@@@std@@AEAAXPEAUElementRef@oreo@@_K@Z
	??$_Assign_counted_range@PEAV?$map@PEANPEANU?$less@PEAN@std@@V?$allocator@U?$pair@QEANPEAN@std@@@2@@std@@@?$vector@V?$map@PEANPEANU?$less@PEAN@std@@V?$allocator@U?$pair@QEANPEAN@std@@@2@@std@@V?$allocator@V?$map@PEANPEANU?$less@PEAN@std@@V?$allocator@U?$pair@QEANPEAN@std@@@2@@std@@@2@@std@@AEAAXPEAV?$map@PEANPEANU?$less@PEAN@std@@V?$allocator@U?$pair@QEANPEAN@std@@@2@@1@_K@Z
	??$_Assign_counted_range@PEAV?$vector@PEANV?$allocator@PEAN@std@@@std@@@?$vector@V?$vector@PEANV?$allocator@PEAN@std@@@std@@V?$allocator@V?$vector@PEANV?$allocator@PEAN@std@@@std@@@2@@std@@AEAAXPEAV?$vector@PEANV?$allocator@PEAN@std@@@1@_K@Z
	??$_Assign_counted_range@PEAV?$vector@PEAVConstraint@GCS@@V?$allocator@PEAVConstraint@GCS@@@std@@@std@@@?$vector@V?$vector@PEAVConstraint@GCS@@V?$allocator@PEAVConstraint@GCS@@@std@@@std@@V?$allocator@V?$vector@PEAVConstraint@GCS@@V?$allocator@PEAVConstraint@GCS@@@std@@@std@@@2@@std@@AEAAXPEAV?$vector@PEAVConstraint@GCS@@V?$allocator@PEAVConstraint@GCS@@@std@@@1@_K@Z
	??$_Assign_counted_range@PEAVMappedName@Data@@@?$vector@VMappedName@Data@@V?$allocator@VMappedName@Data@@@std@@@std@@AEAAXPEAVMappedName@Data@@_K@Z
	??$_Assign_counted_range@PEAVPoint@GCS@@@?$vector@VPoint@GCS@@V?$allocator@VPoint@GCS@@@std@@@std@@AEAAXPEAVPoint@GCS@@_K@Z
	??$_Atomic_address_as@DU?$_Atomic_padded@_N@std@@@std@@YAPECDAEAU?$_Atomic_padded@_N@0@@Z
	??$_Atomic_address_as@DU?$_Atomic_padded@_N@std@@@std@@YAPEDDAEBU?$_Atomic_padded@_N@0@@Z
	??$_Atomic_address_as@HU?$_Atomic_padded@H@std@@@std@@YAPEDHAEBU?$_Atomic_padded@H@0@@Z
	??$_Atomic_address_as@HU?$_Atomic_padded@J@std@@@std@@YAPECHAEAU?$_Atomic_padded@J@0@@Z
	??$_Atomic_address_as@HU?$_Atomic_padded@J@std@@@std@@YAPEDHAEBU?$_Atomic_padded@J@0@@Z
	??$_Atomic_address_as@JU?$_Atomic_padded@H@std@@@std@@YAPECJAEAU?$_Atomic_padded@H@0@@Z
	??$_Atomic_address_as@JU?$_Atomic_padded@J@std@@@std@@YAPECJAEAU?$_Atomic_padded@J@0@@Z
	??$_Atomic_reinterpret_as@D_N@std@@YADAEB_N@Z
	??$_Atomic_reinterpret_as@HJ@std@@YAHAEBJ@Z
	??$_Atomic_reinterpret_as@JJ@std@@YAJAEBJ@Z
	??$_Buynode@V?$allocator@U?$_Tree_node@U?$pair@$$CBV?$basic_string@DU?$char_traits@D@std@@V?$allocator@D@2@@std@@V?$variant@NH_NV?$basic_string@DU?$char_traits@D@std@@V?$allocator@D@2@@std@@Vgp_Vec@@Vgp_Pnt@@Vgp_Dir@@Vgp_Ax1@@Vgp_Ax2@@Vgp_Pln@@UElementRef@oreo@@V?$vector@UElementRef@oreo@@V?$allocator@UElementRef@oreo@@@std@@@2@@2@@std@@PEAX@std@@@std@@AEAU?$pair@$$CBV?$basic_string@DU?$char_traits@D@std@@V?$allocator@D@2@@std@@V?$variant@NH_NV?$basic_string@DU?$char_traits@D@std@@V?$allocator@D@2@@std@@Vgp_Vec@@Vgp_Pnt@@Vgp_Dir@@Vgp_Ax1@@Vgp_Ax2@@Vgp_Pln@@UElementRef@oreo@@V?$vector@UElementRef@oreo@@V?$allocator@UElementRef@oreo@@@std@@@2@@2@@2@@?$_Tree_node@U?$pair@$$CBV?$basic_string@DU?$char_traits@D@std@@V?$allocator@D@2@@std@@V?$variant@NH_NV?$basic_string@DU?$char_traits@D@std@@V?$allocator@D@2@@std@@Vgp_Vec@@Vgp_Pnt@@Vgp_Dir@@Vgp_Ax1@@Vgp_Ax2@@Vgp_Pln@@UElementRef@oreo@@V?$vector@UElementRef@oreo@@V?$allocator@UElementRef@oreo@@@std@@@2@@2@@std@@PEAX@std@@SAPEAU01@AEAV?$allocator@U?$_Tree_node@U?$pair@$$CBV?$basic_string@DU?$char_traits@D@std@@V?$allocator@D@2@@std@@V?$variant@NH_NV?$basic_string@DU?$char_traits@D@std@@V?$allocator@D@2@@std@@Vgp_Vec@@Vgp_Pnt@@Vgp_Dir@@Vgp_Ax1@@Vgp_Ax2@@Vgp_Pln@@UElementRef@oreo@@V?$vector@UElementRef@oreo@@V?$allocator@UElementRef@oreo@@@std@@@2@@2@@std@@PEAX@std@@@1@PEAU01@AEAU?$pair@$$CBV?$basic_string@DU?$char_traits@D@std@@V?$allocator@D@2@@std@@V?$variant@NH_NV?$basic_string@DU?$char_traits@D@std@@V?$allocator@D@2@@std@@Vgp_Vec@@Vgp_Pnt@@Vgp_Dir@@Vgp_Ax1@@Vgp_Ax2@@Vgp_Pln@@UElementRef@oreo@@V?$vector@UElementRef@oreo@@V?$allocator@UElementRef@oreo@@@std@@@2@@2@@1@@Z
	??$_Buynode@V?$allocator@U?$_Tree_node@U?$pair@QEBDUIndexedElements@ElementMap@Data@@@std@@PEAX@std@@@std@@AEAU?$pair@QEBDUIndexedElements@ElementMap@Data@@@2@@?$_Tree_node@U?$pair@QEBDUIndexedElements@ElementMap@Data@@@std@@PEAX@std@@SAPEAU01@AEAV?$allocator@U?$_Tree_node@U?$pair@QEBDUIndexedElements@ElementMap@Data@@@std@@PEAX@std@@@1@PEAU01@AEAU?$pair@QEBDUIndexedElements@ElementMap@Data@@@1@@Z
	??$_Construct@$00PEAD@?$basic_string@DU?$char_traits@D@std@@V?$allocator@D@2@@std@@AEAAXQEAD_K@Z
	??$_Construct@$00PEBD@?$basic_string@DU?$char_traits@D@std@@V?$allocator@D@2@@std@@AEAAXQEBD_K@Z
	??$_Construct@V?$_Deque_unchecked_const_iterator@V?$_Deque_val@U?$_Deque_simple_types@UMappedNameRef@Data@@@std@@@std@@@std@@V12@@?$deque@UMappedNameRef@Data@@V?$allocator@UMappedNameRef@Data@@@std@@@std@@AEAAXV?$_Deque_unchecked_const_iterator@V?$_Deque_val@U?$_Deque_simple_types@UMappedNameRef@Data@@@std@@@std@@@1@V21@@Z
	??$_Construct_in_place@V?$_Variant_storage_@$0A@NH_NV?$basic_string@DU?$char_traits@D@std@@V?$allocator@D@2@@std@@Vgp_Vec@@Vgp_Pnt@@Vgp_Dir@@Vgp_Ax1@@Vgp_Ax2@@Vgp_Pln@@UElementRef@oreo@@V?$vector@UElementRef@oreo@@V?$allocator@UElementRef@oreo@@@std@@@2@@std@@U?$integral_constant@_K$09@2@UElementRef@oreo@@@std@@YAXAEAV?$_Variant_storage_@$0A@NH_NV?$basic_string@DU?$char_traits@D@std@@V?$allocator@D@2@@std@@Vgp_Vec@@Vgp_Pnt@@Vgp_Dir@@Vgp_Ax1@@Vgp_Ax2@@Vgp_Pln@@UElementRef@oreo@@V?$vector@UElementRef@oreo@@V?$allocator@UElementRef@oreo@@@std@@@2@@0@$$QEAU?$integral_constant@_K$09@0@$$QEAUElementRef@oreo@@@Z
	??$_Construct_n@AEBQEAUDiagnostic@oreo@@AEBQEAU12@@?$vector@UDiagnostic@oreo@@V?$allocator@UDiagnostic@oreo@@@std@@@std@@AEAAX_KAEBQEAUDiagnostic@oreo@@1@Z
	??$_Construct_n@AEBQEAVTopoShapeAdapter@oreo@@AEBQEAV12@@?$vector@VTopoShapeAdapter@oreo@@V?$allocator@VTopoShapeAdapter@oreo@@@std@@@std@@AEAAX_KAEBQEAVTopoShapeAdapter@oreo@@1@Z
	??$_Construct_n@PEBUDiagnostic@oreo@@PEBU12@@?$vector@UDiagnostic@oreo@@V?$allocator@UDiagnostic@oreo@@@std@@@std@@AEAAX_K$$QEAPEBUDiagnostic@oreo@@1@Z
	??$_Construct_n@PEBVNamedShape@oreo@@PEBV12@@?$vector@VNamedShape@oreo@@V?$allocator@VNamedShape@oreo@@@std@@@std@@AEAAX_K$$QEAPEBVNamedShape@oreo@@1@Z
	??$_Convert_Source_to_wide@V?$basic_string@DU?$char_traits@D@std@@V?$allocator@D@2@@std@@U_Normal_conversion@filesystem@2@@filesystem@std@@YA?AV?$basic_string@_WU?$char_traits@_W@std@@V?$allocator@_W@2@@1@AEBV?$basic_string@DU?$char_traits@D@std@@V?$allocator@D@2@@1@U_Normal_conversion@01@@Z
	??$_Convert_stringoid_to_wide@U_Normal_conversion@filesystem@std@@@filesystem@std@@YA?AV?$basic_string@_WU?$char_traits@_W@std@@V?$allocator@_W@2@@1@V?$basic_string_view@DU?$char_traits@D@std@@@1@U_Normal_conversion@01@@Z
	??$_Convert_wide_to@U?$char_traits@D@std@@V?$allocator@D@2@D@filesystem@std@@YA?AV?$basic_string@DU?$char_traits@D@std@@V?$allocator@D@2@@1@V?$basic_string_view@_WU?$char_traits@_W@std@@@1@AEBV?$allocator@D@1@@Z
	??$_Convert_wide_to_narrow@U?$char_traits@D@std@@V?$allocator@D@2@@std@@YA?AV?$basic_string@DU?$char_traits@D@std@@V?$allocator@D@2@@0@W4__std_code_page@@V?$basic_string_view@_WU?$char_traits@_W@std@@@0@AEBV?$allocator@D@0@@Z
	??$_Convert_wide_to_narrow_replace_chars@U?$char_traits@D@std@@V?$allocator@D@2@@filesystem@std@@YA?AV?$basic_string@DU?$char_traits@D@std@@V?$allocator@D@2@@1@W4__std_code_page@@V?$basic_string_view@_WU?$char_traits@_W@std@@@1@AEBV?$allocator@D@1@@Z
	??$_Copy@$0A@@?$_Tree@V?$_Tmap_traits@PEANHU?$less@PEAN@std@@V?$allocator@U?$pair@QEANH@std@@@2@$0A@@std@@@std@@IEAAXAEBV01@@Z
	??$_Copy@$0A@@?$_Tree@V?$_Tmap_traits@PEANPEANU?$less@PEAN@std@@V?$allocator@U?$pair@QEANPEAN@std@@@2@$0A@@std@@@std@@IEAAXAEBV01@@Z
	??$_Copy@$0A@@?$_Tree@V?$_Tmap_traits@PEANV?$vector@PEAVConstraint@GCS@@V?$allocator@PEAVConstraint@GCS@@@std@@@std@@U?$less@PEAN@2@V?$allocator@U?$pair@QEANV?$vector@PEAVConstraint@GCS@@V?$allocator@PEAVConstraint@GCS@@@std@@@std@@@std@@@2@$0A@@std@@@std@@IEAAXAEBV01@@Z
	??$_Copy@$0A@@?$_Tree@V?$_Tmap_traits@PEAVConstraint@GCS@@V?$vector@PEANV?$allocator@PEAN@std@@@std@@U?$less@PEAVConstraint@GCS@@@4@V?$allocator@U?$pair@QEAVConstraint@GCS@@V?$vector@PEANV?$allocator@PEAN@std@@@std@@@std@@@4@$0A@@std@@@std@@IEAAXAEBV01@@Z
	??$_Copy@$0A@@?$_Tree@V?$_Tmap_traits@PEBDUIndexedElements@ElementMap@Data@@UCStringComp@23@V?$allocator@U?$pair@QEBDUIndexedElements@ElementMap@Data@@@std@@@std@@$0A@@std@@@std@@IEAAXAEBV01@@Z
	??$_Copy@$0A@@?$_Tree@V?$_Tmap_traits@VMappedName@Data@@VIndexedName@2@U?$less@X@std@@V?$allocator@U?$pair@$$CBVMappedName@Data@@VIndexedName@2@@std@@@5@$0A@@std@@@std@@IEAAXAEBV01@@Z
	??$_Copy@$0A@@?$_Tree@V?$_Tset_traits@PEAVConstraint@GCS@@U?$less@PEAVConstraint@GCS@@@std@@V?$allocator@PEAVConstraint@GCS@@@4@$0A@@std@@@std@@IEAAXAEBV01@@Z
	??$_Copy_backward_memmove@PEADPEAD@std@@YAPEADPEAD00@Z
	??$_Copy_backward_memmove@PEAEPEAE@std@@YAPEAEPEAE00@Z
	??$_Copy_backward_memmove@PEAMPEAM@std@@YAPEAMPEAM00@Z
	??$_Copy_backward_memmove@PEANPEAN@std@@YAPEANPEAN00@Z
	??$_Copy_backward_memmove@PEAPEANPEAPEAN@std@@YAPEAPEANPEAPEAN00@Z
	??$_Copy_memmove@PEADPEAD@std@@YAPEADPEAD00@Z
	??$_Copy_memmove@PEAEPEAE@std@@YAPEAEPEAE00@Z
	??$_Copy_memmove@PEAHPEAH@std@@YAPEAHPEAH00@Z
	??$_Copy_memmove@PEAIPEAI@std@@YAPEAIPEAI00@Z
	??$_Copy_memmove@PEAMPEAM@std@@YAPEAMPEAM00@Z
	??$_Copy_memmove@PEANPEAN@std@@YAPEANPEAN00@Z
	??$_Copy_memmove@PEAPEANPEAPEAN@std@@YAPEAPEANPEAPEAN00@Z
	??$_Copy_memmove@PEAPEAUMappedNameRef@Data@@PEAPEAU12@@std@@YAPEAPEAUMappedNameRef@Data@@PEAPEAU12@00@Z
	??$_Copy_memmove@PEAPEAV?$basic_json@Vmap@std@@Vvector@2@V?$basic_string@DU?$char_traits@D@std@@V?$allocator@D@2@@2@_N_J_KNVallocator@2@Uadl_serializer@json_abi_v3_12_0@nlohmann@@V?$vector@EV?$allocator@E@std@@@2@X@json_abi_v3_12_0@nlohmann@@PEAPEAV123@@std@@YAPEAPEAV?$basic_json@Vmap@std@@Vvector@2@V?$basic_string@DU?$char_traits@D@std@@V?$allocator@D@2@@2@_N_J_KNVallocator@2@Uadl_serializer@json_abi_v3_12_0@nlohmann@@V?$vector@EV?$allocator@E@std@@@2@X@json_abi_v3_12_0@nlohmann@@PEAPEAV123@00@Z
	??$_Copy_memmove@PEAPEAVConstraint@GCS@@PEAPEAV12@@std@@YAPEAPEAVConstraint@GCS@@PEAPEAV12@00@Z
	??$_Copy_memmove@PEAPEAVStringIDRef@App@@PEAPEAV12@@std@@YAPEAPEAVStringIDRef@App@@PEAPEAV12@00@Z
	??$_Copy_memmove@PEAPEAVSubSystem@GCS@@PEAPEAV12@@std@@YAPEAPEAVSubSystem@GCS@@PEAPEAV12@00@Z
	??$_Copy_memmove@PEAPEAXPEAPEAX@std@@YAPEAPEAXPEAPEAX00@Z
	??$_Copy_memmove@PEAPEBUFeature@oreo@@PEAPEBU12@@std@@YAPEAPEBUFeature@oreo@@PEAPEBU12@00@Z
	??$_Copy_memmove@PEAPEBVElementMap@Data@@PEAPEBV12@@std@@YAPEAPEBVElementMap@Data@@PEAPEBV12@00@Z
	??$_Copy_memmove@PEAUSketchArc@oreo@@PEAU12@@std@@YAPEAUSketchArc@oreo@@PEAU12@00@Z
	??$_Copy_memmove@PEAUSketchCircle@oreo@@PEAU12@@std@@YAPEAUSketchCircle@oreo@@PEAU12@00@Z
	??$_Copy_memmove@PEAUSketchConstraint@oreo@@PEAU12@@std@@YAPEAUSketchConstraint@oreo@@PEAU12@00@Z
	??$_Copy_memmove@PEAUSketchLine@oreo@@PEAU12@@std@@YAPEAUSketchLine@oreo@@PEAU12@00@Z
	??$_Copy_memmove@PEAUSketchPoint@oreo@@PEAU12@@std@@YAPEAUSketchPoint@oreo@@PEAU12@00@Z
	??$_Copy_memmove@PEAV?$stored_edge_iter@_KV?$_List_iterator@V?$_List_val@U?$_List_simple_types@U?$list_edge@_KUno_property@boost@@@boost@@@std@@@std@@@std@@Uno_property@boost@@@detail@boost@@PEAV123@@std@@YAPEAV?$stored_edge_iter@_KV?$_List_iterator@V?$_List_val@U?$_List_simple_types@U?$list_edge@_KUno_property@boost@@@boost@@@std@@@std@@@std@@Uno_property@boost@@@detail@boost@@PEAV123@00@Z
	??$_Copy_memmove@PEAVPoint@GCS@@PEAV12@@std@@YAPEAVPoint@GCS@@PEAV12@00@Z
	??$_Copy_memmove@PEAVPoly_Triangle@@PEAV1@@std@@YAPEAVPoly_Triangle@@PEAV1@00@Z
	??$_Copy_memmove@PEAVgp_Pnt@@PEAV1@@std@@YAPEAVgp_Pnt@@PEAV1@00@Z
	??$_Copy_memmove@PEAVgp_Vec@@PEAV1@@std@@YAPEAVgp_Vec@@PEAV1@00@Z
	??$_Copy_memmove@PEBDPEAD@std@@YAPEADPEBD0PEAD@Z
	??$_Copy_memmove_n@PEADPEAE@std@@YAPEAEPEAD_KPEAE@Z
	??$_Copy_memmove_n@PEAEPEAE@std@@YAPEAEPEAE_K0@Z
	??$_Copy_memmove_n@PEAHPEAH@std@@YAPEAHPEAH_K0@Z
	??$_Copy_memmove_n@PEAIPEAI@std@@YAPEAIPEAI_K0@Z
	??$_Copy_memmove_n@PEAMPEAM@std@@YAPEAMPEAM_K0@Z
	??$_Copy_memmove_n@PEANPEAN@std@@YAPEANPEAN_K0@Z
	??$_Copy_memmove_n@PEAPEANPEAPEAN@std@@YAPEAPEANPEAPEAN_K0@Z
	??$_Copy_memmove_n@PEAPEAVConstraint@GCS@@PEAPEAV12@@std@@YAPEAPEAVConstraint@GCS@@PEAPEAV12@_K0@Z
	??$_Copy_memmove_n@PEAPEAVSubSystem@GCS@@PEAPEAV12@@std@@YAPEAPEAVSubSystem@GCS@@PEAPEAV12@_K0@Z
	??$_Copy_memmove_n@PEAPEAXPEAPEAX@std@@YAPEAPEAXPEAPEAX_K0@Z
	??$_Copy_memmove_n@PEAVPoint@GCS@@PEAV12@@std@@YAPEAVPoint@GCS@@PEAV12@_K0@Z
	??$_Copy_memmove_n@PEBDPEAE@std@@YAPEAEPEBD_KPEAE@Z
	??$_Copy_memmove_n@PEBMPEAM@std@@YAPEAMPEBM_KPEAM@Z
	??$_Copy_memmove_tail@PEAD@std@@YAPEADQEBDQEAD_K2@Z
	??$_Copy_memmove_tail@PEAE@std@@YAPEAEQEBDQEAE_K2@Z
	??$_Copy_memmove_tail@PEAH@std@@YAPEAHQEBDQEAH_K2@Z
	??$_Copy_memmove_tail@PEAI@std@@YAPEAIQEBDQEAI_K2@Z
	??$_Copy_memmove_tail@PEAM@std@@YAPEAMQEBDQEAM_K2@Z
	??$_Copy_memmove_tail@PEAN@std@@YAPEANQEBDQEAN_K2@Z
	??$_Copy_memmove_tail@PEAPEAN@std@@YAPEAPEANQEBDQEAPEAN_K2@Z
	??$_Copy_memmove_tail@PEAPEAUMappedNameRef@Data@@@std@@YAPEAPEAUMappedNameRef@Data@@QEBDQEAPEAU12@_K2@Z
	??$_Copy_memmove_tail@PEAPEAV?$basic_json@Vmap@std@@Vvector@2@V?$basic_string@DU?$char_traits@D@std@@V?$allocator@D@2@@2@_N_J_KNVallocator@2@Uadl_serializer@json_abi_v3_12_0@nlohmann@@V?$vector@EV?$allocator@E@std@@@2@X@json_abi_v3_12_0@nlohmann@@@std@@YAPEAPEAV?$basic_json@Vmap@std@@Vvector@2@V?$basic_string@DU?$char_traits@D@std@@V?$allocator@D@2@@2@_N_J_KNVallocator@2@Uadl_serializer@json_abi_v3_12_0@nlohmann@@V?$vector@EV?$allocator@E@std@@@2@X@json_abi_v3_12_0@nlohmann@@QEBDQEAPEAV123@_K2@Z
	??$_Copy_memmove_tail@PEAPEAVConstraint@GCS@@@std@@YAPEAPEAVConstraint@GCS@@QEBDQEAPEAV12@_K2@Z
	??$_Copy_memmove_tail@PEAPEAVStringIDRef@App@@@std@@YAPEAPEAVStringIDRef@App@@QEBDQEAPEAV12@_K2@Z
	??$_Copy_memmove_tail@PEAPEAVSubSystem@GCS@@@std@@YAPEAPEAVSubSystem@GCS@@QEBDQEAPEAV12@_K2@Z
	??$_Copy_memmove_tail@PEAPEAX@std@@YAPEAPEAXQEBDQEAPEAX_K2@Z
	??$_Copy_memmove_tail@PEAPEBUFeature@oreo@@@std@@YAPEAPEBUFeature@oreo@@QEBDQEAPEBU12@_K2@Z
	??$_Copy_memmove_tail@PEAPEBVElementMap@Data@@@std@@YAPEAPEBVElementMap@Data@@QEBDQEAPEBV12@_K2@Z
	??$_Copy_memmove_tail@PEAUSketchArc@oreo@@@std@@YAPEAUSketchArc@oreo@@QEBDQEAU12@_K2@Z
	??$_Copy_memmove_tail@PEAUSketchCircle@oreo@@@std@@YAPEAUSketchCircle@oreo@@QEBDQEAU12@_K2@Z
	??$_Copy_memmove_tail@PEAUSketchConstraint@oreo@@@std@@YAPEAUSketchConstraint@oreo@@QEBDQEAU12@_K2@Z
	??$_Copy_memmove_tail@PEAUSketchLine@oreo@@@std@@YAPEAUSketchLine@oreo@@QEBDQEAU12@_K2@Z
	??$_Copy_memmove_tail@PEAUSketchPoint@oreo@@@std@@YAPEAUSketchPoint@oreo@@QEBDQEAU12@_K2@Z
	??$_Copy_memmove_tail@PEAV?$stored_edge_iter@_KV?$_List_iterator@V?$_List_val@U?$_List_simple_types@U?$list_edge@_KUno_property@boost@@@boost@@@std@@@std@@@std@@Uno_property@boost@@@detail@boost@@@std@@YAPEAV?$stored_edge_iter@_KV?$_List_iterator@V?$_List_val@U?$_List_simple_types@U?$list_edge@_KUno_property@boost@@@boost@@@std@@@std@@@std@@Uno_property@boost@@@detail@boost@@QEBDQEAV123@_K2@Z
	??$_Copy_memmove_tail@PEAVPoint@GCS@@@std@@YAPEAVPoint@GCS@@QEBDQEAV12@_K2@Z
	??$_Copy_memmove_tail@PEAVPoly_Triangle@@@std@@YAPEAVPoly_Triangle@@QEBDQEAV1@_K2@Z
	??$_Copy_memmove_tail@PEAVgp_Pnt@@@std@@YAPEAVgp_Pnt@@QEBDQEAV1@_K2@Z
	??$_Copy_memmove_tail@PEAVgp_Vec@@@std@@YAPEAVgp_Vec@@QEBDQEAV1@_K2@Z
	??$_Copy_nodes@$0A@@?$_Tree@V?$_Tmap_traits@HHU?$less@H@std@@V?$allocator@U?$pair@$$CBHH@std@@@2@$0A@@std@@@std@@IEAAPEAU?$_Tree_node@U?$pair@$$CBHH@std@@PEAX@1@PEAU21@0@Z
	??$_Copy_nodes@$0A@@?$_Tree@V?$_Tmap_traits@HUMappedChildElements@ElementMap@Data@@U?$less@H@std@@V?$allocator@U?$pair@$$CBHUMappedChildElements@ElementMap@Data@@@std@@@5@$0A@@std@@@std@@IEAAPEAU?$_Tree_node@U?$pair@$$CBHUMappedChildElements@ElementMap@Data@@@std@@PEAX@1@PEAU21@0@Z
	??$_Copy_nodes@$0A@@?$_Tree@V?$_Tmap_traits@PEANHU?$less@PEAN@std@@V?$allocator@U?$pair@QEANH@std@@@2@$0A@@std@@@std@@IEAAPEAU?$_Tree_node@U?$pair@QEANH@std@@PEAX@1@PEAU21@0@Z
	??$_Copy_nodes@$0A@@?$_Tree@V?$_Tmap_traits@PEANPEANU?$less@PEAN@std@@V?$allocator@U?$pair@QEANPEAN@std@@@2@$0A@@std@@@std@@IEAAPEAU?$_Tree_node@U?$pair@QEANPEAN@std@@PEAX@1@PEAU21@0@Z
	??$_Copy_nodes@$0A@@?$_Tree@V?$_Tmap_traits@PEANV?$vector@PEAVConstraint@GCS@@V?$allocator@PEAVConstraint@GCS@@@std@@@std@@U?$less@PEAN@2@V?$allocator@U?$pair@QEANV?$vector@PEAVConstraint@GCS@@V?$allocator@PEAVConstraint@GCS@@@std@@@std@@@std@@@2@$0A@@std@@@std@@IEAAPEAU?$_Tree_node@U?$pair@QEANV?$vector@PEAVConstraint@GCS@@V?$allocator@PEAVConstraint@GCS@@@std@@@std@@@std@@PEAX@1@PEAU21@0@Z
	??$_Copy_nodes@$0A@@?$_Tree@V?$_Tmap_traits@PEAVConstraint@GCS@@V?$vector@PEANV?$allocator@PEAN@std@@@std@@U?$less@PEAVConstraint@GCS@@@4@V?$allocator@U?$pair@QEAVConstraint@GCS@@V?$vector@PEANV?$allocator@PEAN@std@@@std@@@std@@@4@$0A@@std@@@std@@IEAAPEAU?$_Tree_node@U?$pair@QEAVConstraint@GCS@@V?$vector@PEANV?$allocator@PEAN@std@@@std@@@std@@PEAX@1@PEAU21@0@Z
	??$_Copy_nodes@$0A@@?$_Tree@V?$_Tmap_traits@PEAVElementMap@Data@@HU?$less@PEAVElementMap@Data@@@std@@V?$allocator@U?$pair@QEAVElementMap@Data@@H@std@@@4@$0A@@std@@@std@@IEAAPEAU?$_Tree_node@U?$pair@QEAVElementMap@Data@@H@std@@PEAX@1@PEAU21@0@Z
	??$_Copy_nodes@$0A@@?$_Tree@V?$_Tmap_traits@PEBDUIndexedElements@ElementMap@Data@@UCStringComp@23@V?$allocator@U?$pair@QEBDUIndexedElements@ElementMap@Data@@@std@@@std@@$0A@@std@@@std@@IEAAPEAU?$_Tree_node@U?$pair@QEBDUIndexedElements@ElementMap@Data@@@std@@PEAX@1@PEAU21@0@Z
	??$_Copy_nodes@$0A@@?$_Tree@V?$_Tmap_traits@V?$basic_string@DU?$char_traits@D@std@@V?$allocator@D@2@@std@@V?$basic_json@Vmap@std@@Vvector@2@V?$basic_string@DU?$char_traits@D@std@@V?$allocator@D@2@@2@_N_J_KNVallocator@2@Uadl_serializer@json_abi_v3_12_0@nlohmann@@V?$vector@EV?$allocator@E@std@@@2@X@json_abi_v3_12_0@nlohmann@@U?$less@X@2@V?$allocator@U?$pair@$$CBV?$basic_string@DU?$char_traits@D@std@@V?$allocator@D@2@@std@@V?$basic_json@Vmap@std@@Vvector@2@V?$basic_string@DU?$char_traits@D@std@@V?$allocator@D@2@@2@_N_J_KNVallocator@2@Uadl_serializer@json_abi_v3_12_0@nlohmann@@V?$vector@EV?$allocator@E@std@@@2@X@json_abi_v3_12_0@nlohmann@@@std@@@2@$0A@@std@@@std@@IEAAPEAU?$_Tree_node@U?$pair@$$CBV?$basic_string@DU?$char_traits@D@std@@V?$allocator@D@2@@std@@V?$basic_json@Vmap@std@@Vvector@2@V?$basic_string@DU?$char_traits@D@std@@V?$allocator@D@2@@2@_N_J_KNVallocator@2@Uadl_serializer@json_abi_v3_12_0@nlohmann@@V?$vector@EV?$allocator@E@std@@@2@X@json_abi_v3_12_0@nlohmann@@@std@@PEAX@1@PEAU21@0@Z
	??$_Copy_nodes@$0A@@?$_Tree@V?$_Tmap_traits@V?$basic_string@DU?$char_traits@D@std@@V?$allocator@D@2@@std@@V?$variant@NH_NV?$basic_string@DU?$char_traits@D@std@@V?$allocator@D@2@@std@@Vgp_Vec@@Vgp_Pnt@@Vgp_Dir@@Vgp_Ax1@@Vgp_Ax2@@Vgp_Pln@@UElementRef@oreo@@V?$vector@UElementRef@oreo@@V?$allocator@UElementRef@oreo@@@std@@@2@@2@U?$less@V?$basic_string@DU?$char_traits@D@std@@V?$allocator@D@2@@std@@@2@V?$allocator@U?$pair@$$CBV?$basic_string@DU?$char_traits@D@std@@V?$allocator@D@2@@std@@V?$variant@NH_NV?$basic_string@DU?$char_traits@D@std@@V?$allocator@D@2@@std@@Vgp_Vec@@Vgp_Pnt@@Vgp_Dir@@Vgp_Ax1@@Vgp_Ax2@@Vgp_Pln@@UElementRef@oreo@@V?$vector@UElementRef@oreo@@V?$allocator@UElementRef@oreo@@@std@@@2@@2@@std@@@2@$0A@@std@@@std@@IEAAPEAU?$_Tree_node@U?$pair@$$CBV?$basic_string@DU?$char_traits@D@std@@V?$allocator@D@2@@std@@V?$variant@NH_NV?$basic_string@DU?$char_traits@D@std@@V?$allocator@D@2@@std@@Vgp_Vec@@Vgp_Pnt@@Vgp_Dir@@Vgp_Ax1@@Vgp_Ax2@@Vgp_Pln@@UElementRef@oreo@@V?$vector@UElementRef@oreo@@V?$allocator@UElementRef@oreo@@@std@@@2@@2@@std@@PEAX@1@PEAU21@0@Z
	??$_Copy_nodes@$0A@@?$_Tree@V?$_Tmap_traits@VMappedName@Data@@VIndexedName@2@U?$less@X@std@@V?$allocator@U?$pair@$$CBVMappedName@Data@@VIndexedName@2@@std@@@5@$0A@@std@@@std@@IEAAPEAU?$_Tree_node@U?$pair@$$CBVMappedName@Data@@VIndexedName@2@@std@@PEAX@1@PEAU21@0@Z
	??$_Copy_nodes@$0A@@?$_Tree@V?$_Tset_traits@PEAVConstraint@GCS@@U?$less@PEAVConstraint@GCS@@@std@@V?$allocator@PEAVConstraint@GCS@@@4@$0A@@std@@@std@@IEAAPEAU?$_Tree_node@PEAVConstraint@GCS@@PEAX@1@PEAU21@0@Z
	??$_Copy_vbool@V?$_Vb_iterator@U?$_Wrap_alloc@V?$allocator@I@std@@@std@@@std@@V12@@std@@YA?AV?$_Vb_iterator@U?$_Wrap_alloc@V?$allocator@I@std@@@std@@@0@V10@00@Z
	??$_Destroy_range@V?$allocator@U?$pair@V?$basic_string@DU?$char_traits@D@std@@V?$allocator@D@2@@std@@V12@@std@@@std@@@std@@YAXPEAU?$pair@V?$basic_string@DU?$char_traits@D@std@@V?$allocator@D@2@@std@@V12@@0@QEAU10@AEAV?$allocator@U?$pair@V?$basic_string@DU?$char_traits@D@std@@V?$allocator@D@2@@std@@V12@@std@@@0@@Z
	??$_Destroy_range@V?$allocator@U?$pair@VIndexedName@oreo@@VMappedName@2@@std@@@std@@@std@@YAXPEAU?$pair@VIndexedName@oreo@@VMappedName@2@@0@QEAU10@AEAV?$allocator@U?$pair@VIndexedName@oreo@@VMappedName@2@@std@@@0@@Z
	??$_Destroy_range@V?$allocator@UMappedChildElements@ElementMap@Data@@@std@@@std@@YAXPEAUMappedChildElements@ElementMap@Data@@QEAU123@AEAV?$allocator@UMappedChildElements@ElementMap@Data@@@0@@Z
	??$_Destroy_range@V?$allocator@Ustored_vertex@config@?$adj_list_gen@V?$adjacency_list@UvecS@boost@@U12@UundirectedS@2@Uno_property@2@U42@U42@UlistS@2@@boost@@UvecS@2@U32@UundirectedS@2@Uno_property@2@U52@U52@UlistS@2@@detail@boost@@@std@@@std@@YAXPEAUstored_vertex@config@?$adj_list_gen@V?$adjacency_list@UvecS@boost@@U12@UundirectedS@2@Uno_property@2@U42@U42@UlistS@2@@boost@@UvecS@2@U32@UundirectedS@2@Uno_property@2@U52@U52@UlistS@2@@detail@boost@@QEAU12345@AEAV?$allocator@Ustored_vertex@config@?$adj_list_gen@V?$adjacency_list@UvecS@boost@@U12@UundirectedS@2@Uno_property@2@U42@U42@UlistS@2@@boost@@UvecS@2@U32@UundirectedS@2@Uno_property@2@U52@U52@UlistS@2@@detail@boost@@@0@@Z
	??$_Destroy_range@V?$allocator@V?$basic_string@DU?$char_traits@D@std@@V?$allocator@D@2@@std@@@std@@@std@@YAXPEAV?$basic_string@DU?$char_traits@D@std@@V?$allocator@D@2@@0@QEAV10@AEAV?$allocator@V?$basic_string@DU?$char_traits@D@std@@V?$allocator@D@2@@std@@@0@@Z
	??$_Destroy_range@V?$allocator@V?$shared_ptr@VElementMap@Data@@@std@@@std@@@std@@YAXPEAV?$shared_ptr@VElementMap@Data@@@0@QEAV10@AEAV?$allocator@V?$shared_ptr@VElementMap@Data@@@std@@@0@@Z
	??$_Destroy_range@V?$allocator@V?$vector@PEANV?$allocator@PEAN@std@@@std@@@std@@@std@@YAXPEAV?$vector@PEANV?$allocator@PEAN@std@@@0@QEAV10@AEAV?$allocator@V?$vector@PEANV?$allocator@PEAN@std@@@std@@@0@@Z
	??$_Destroy_range@V?$allocator@V?$vector@PEAVConstraint@GCS@@V?$allocator@PEAVConstraint@GCS@@@std@@@std@@@std@@@std@@YAXPEAV?$vector@PEAVConstraint@GCS@@V?$allocator@PEAVConstraint@GCS@@@std@@@0@QEAV10@AEAV?$allocator@V?$vector@PEAVConstraint@GCS@@V?$allocator@PEAVConstraint@GCS@@@std@@@std@@@0@@Z
	??$_Destroy_range@V?$allocator@VNamedShape@oreo@@@std@@@std@@YAXPEAVNamedShape@oreo@@QEAV12@AEAV?$allocator@VNamedShape@oreo@@@0@@Z
	??$_Destroy_range@V?$allocator@VTopoDS_Shape@@@std@@@std@@YAXPEAVTopoDS_Shape@@QEAV1@AEAV?$allocator@VTopoDS_Shape@@@0@@Z
	??$_Emplace_reallocate@$$T@?$vector@V?$basic_json@Vmap@std@@Vvector@2@V?$basic_string@DU?$char_traits@D@std@@V?$allocator@D@2@@2@_N_J_KNVallocator@2@Uadl_serializer@json_abi_v3_12_0@nlohmann@@V?$vector@EV?$allocator@E@std@@@2@X@json_abi_v3_12_0@nlohmann@@V?$allocator@V?$basic_json@Vmap@std@@Vvector@2@V?$basic_string@DU?$char_traits@D@std@@V?$allocator@D@2@@2@_N_J_KNVallocator@2@Uadl_serializer@json_abi_v3_12_0@nlohmann@@V?$vector@EV?$allocator@E@std@@@2@X@json_abi_v3_12_0@nlohmann@@@std@@@std@@AEAAPEAV?$basic_json@Vmap@std@@Vvector@2@V?$basic_string@DU?$char_traits@D@std@@V?$allocator@D@2@@2@_N_J_KNVallocator@2@Uadl_serializer@json_abi_v3_12_0@nlohmann@@V?$vector@EV?$allocator@E@std@@@2@X@json_abi_v3_12_0@nlohmann@@QEAV234@$$QEA$$T@Z
	??$_Emplace_reallocate@$$V@?$vector@Ustored_vertex@config@?$adj_list_gen@V?$adjacency_list@UvecS@boost@@U12@UundirectedS@2@Uno_property@2@U42@U42@UlistS@2@@boost@@UvecS@2@U32@UundirectedS@2@Uno_property@2@U52@U52@UlistS@2@@detail@boost@@V?$allocator@Ustored_vertex@config@?$adj_list_gen@V?$adjacency_list@UvecS@boost@@U12@UundirectedS@2@Uno_property@2@U42@U42@UlistS@2@@boost@@UvecS@2@U32@UundirectedS@2@Uno_property@2@U52@U52@UlistS@2@@detail@boost@@@std@@@std@@AEAAPEAUstored_vertex@config@?$adj_list_gen@V?$adjacency_list@UvecS@boost@@U12@UundirectedS@2@Uno_property@2@U42@U42@UlistS@2@@boost@@UvecS@2@U32@UundirectedS@2@Uno_property@2@U52@U52@UlistS@2@@detail@boost@@QEAU23456@@Z
	??$_Emplace_reallocate@$$V@?$vector@V?$basic_string@DU?$char_traits@D@std@@V?$allocator@D@2@@std@@V?$allocator@V?$basic_string@DU?$char_traits@D@std@@V?$allocator@D@2@@std@@@2@@std@@AEAAPEAV?$basic_string@DU?$char_traits@D@std@@V?$allocator@D@2@@1@QEAV21@@Z
	??$_Emplace_reallocate@AEAHAEAHAEAH@?$vector@VPoly_Triangle@@V?$allocator@VPoly_Triangle@@@std@@@std@@AEAAPEAVPoly_Triangle@@QEAV2@AEAH11@Z
	??$_Emplace_reallocate@AEAN@?$vector@V?$basic_json@Vmap@std@@Vvector@2@V?$basic_string@DU?$char_traits@D@std@@V?$allocator@D@2@@2@_N_J_KNVallocator@2@Uadl_serializer@json_abi_v3_12_0@nlohmann@@V?$vector@EV?$allocator@E@std@@@2@X@json_abi_v3_12_0@nlohmann@@V?$allocator@V?$basic_json@Vmap@std@@Vvector@2@V?$basic_string@DU?$char_traits@D@std@@V?$allocator@D@2@@2@_N_J_KNVallocator@2@Uadl_serializer@json_abi_v3_12_0@nlohmann@@V?$vector@EV?$allocator@E@std@@@2@X@json_abi_v3_12_0@nlohmann@@@std@@@std@@AEAAPEAV?$basic_json@Vmap@std@@Vvector@2@V?$basic_string@DU?$char_traits@D@std@@V?$allocator@D@2@@2@_N_J_KNVallocator@2@Uadl_serializer@json_abi_v3_12_0@nlohmann@@V?$vector@EV?$allocator@E@std@@@2@X@json_abi_v3_12_0@nlohmann@@QEAV234@AEAN@Z
	??$_Emplace_reallocate@AEAPEBDAEAPEBD@?$vector@U?$pair@V?$basic_string@DU?$char_traits@D@std@@V?$allocator@D@2@@std@@V12@@std@@V?$allocator@U?$pair@V?$basic_string@DU?$char_traits@D@std@@V?$allocator@D@2@@std@@V12@@std@@@2@@std@@AEAAPEAU?$pair@V?$basic_string@DU?$char_traits@D@std@@V?$allocator@D@2@@std@@V12@@1@QEAU21@AEAPEBD1@Z
	??$_Emplace_reallocate@AEAPEBDAEAY00$$CBD@?$vector@U?$pair@V?$basic_string@DU?$char_traits@D@std@@V?$allocator@D@2@@std@@V12@@std@@V?$allocator@U?$pair@V?$basic_string@DU?$char_traits@D@std@@V?$allocator@D@2@@std@@V12@@std@@@2@@std@@AEAAPEAU?$pair@V?$basic_string@DU?$char_traits@D@std@@V?$allocator@D@2@@std@@V12@@1@QEAU21@AEAPEBDAEAY00$$CBD@Z
	??$_Emplace_reallocate@AEAV?$basic_string@DU?$char_traits@D@std@@V?$allocator@D@2@@std@@@?$vector@V?$basic_json@Vmap@std@@Vvector@2@V?$basic_string@DU?$char_traits@D@std@@V?$allocator@D@2@@2@_N_J_KNVallocator@2@Uadl_serializer@json_abi_v3_12_0@nlohmann@@V?$vector@EV?$allocator@E@std@@@2@X@json_abi_v3_12_0@nlohmann@@V?$allocator@V?$basic_json@Vmap@std@@Vvector@2@V?$basic_string@DU?$char_traits@D@std@@V?$allocator@D@2@@2@_N_J_KNVallocator@2@Uadl_serializer@json_abi_v3_12_0@nlohmann@@V?$vector@EV?$allocator@E@std@@@2@X@json_abi_v3_12_0@nlohmann@@@std@@@std@@AEAAPEAV?$basic_json@Vmap@std@@Vvector@2@V?$basic_string@DU?$char_traits@D@std@@V?$allocator@D@2@@2@_N_J_KNVallocator@2@Uadl_serializer@json_abi_v3_12_0@nlohmann@@V?$vector@EV?$allocator@E@std@@@2@X@json_abi_v3_12_0@nlohmann@@QEAV234@AEAV?$basic_string@DU?$char_traits@D@std@@V?$allocator@D@2@@1@@Z
	??$_Emplace_reallocate@AEAVMappedName@Data@@AEAVIndexedName@2@@?$vector@UMappedElement@Data@@V?$allocator@UMappedElement@Data@@@std@@@std@@AEAAPEAUMappedElement@Data@@QEAU23@AEAVMappedName@3@AEAVIndexedName@3@@Z
	??$_Emplace_reallocate@AEAVTopoDS_Shape@@_J@?$vector@VNamedShape@oreo@@V?$allocator@VNamedShape@oreo@@@std@@@std@@AEAAPEAVNamedShape@oreo@@QEAV23@AEAVTopoDS_Shape@@$$QEA_J@Z
	??$_Emplace_reallocate@AEA_J@?$vector@V?$basic_json@Vmap@std@@Vvector@2@V?$basic_string@DU?$char_traits@D@std@@V?$allocator@D@2@@2@_N_J_KNVallocator@2@Uadl_serializer@json_abi_v3_12_0@nlohmann@@V?$vector@EV?$allocator@E@std@@@2@X@json_abi_v3_12_0@nlohmann@@V?$allocator@V?$basic_json@Vmap@std@@Vvector@2@V?$basic_string@DU?$char_traits@D@std@@V?$allocator@D@2@@2@_N_J_KNVallocator@2@Uadl_serializer@json_abi_v3_12_0@nlohmann@@V?$vector@EV?$allocator@E@std@@@2@X@json_abi_v3_12_0@nlohmann@@@std@@@std@@AEAAPEAV?$basic_json@Vmap@std@@Vvector@2@V?$basic_string@DU?$char_traits@D@std@@V?$allocator@D@2@@2@_N_J_KNVallocator@2@Uadl_serializer@json_abi_v3_12_0@nlohmann@@V?$vector@EV?$allocator@E@std@@@2@X@json_abi_v3_12_0@nlohmann@@QEAV234@AEA_J@Z
	??$_Emplace_reallocate@AEA_K@?$vector@V?$basic_json@Vmap@std@@Vvector@2@V?$basic_string@DU?$char_traits@D@std@@V?$allocator@D@2@@2@_N_J_KNVallocator@2@Uadl_serializer@json_abi_v3_12_0@nlohmann@@V?$vector@EV?$allocator@E@std@@@2@X@json_abi_v3_12_0@nlohmann@@V?$allocator@V?$basic_json@Vmap@std@@Vvector@2@V?$basic_string@DU?$char_traits@D@std@@V?$allocator@D@2@@2@_N_J_KNVallocator@2@Uadl_serializer@json_abi_v3_12_0@nlohmann@@V?$vector@EV?$allocator@E@std@@@2@X@json_abi_v3_12_0@nlohmann@@@std@@@std@@AEAAPEAV?$basic_json@Vmap@std@@Vvector@2@V?$basic_string@DU?$char_traits@D@std@@V?$allocator@D@2@@2@_N_J_KNVallocator@2@Uadl_serializer@json_abi_v3_12_0@nlohmann@@V?$vector@EV?$allocator@E@std@@@2@X@json_abi_v3_12_0@nlohmann@@QEAV234@AEA_K@Z
	??$_Emplace_reallocate@AEA_N@?$vector@V?$basic_json@Vmap@std@@Vvector@2@V?$basic_string@DU?$char_traits@D@std@@V?$allocator@D@2@@2@_N_J_KNVallocator@2@Uadl_serializer@json_abi_v3_12_0@nlohmann@@V?$vector@EV?$allocator@E@std@@@2@X@json_abi_v3_12_0@nlohmann@@V?$allocator@V?$basic_json@Vmap@std@@Vvector@2@V?$basic_string@DU?$char_traits@D@std@@V?$allocator@D@2@@2@_N_J_KNVallocator@2@Uadl_serializer@json_abi_v3_12_0@nlohmann@@V?$vector@EV?$allocator@E@std@@@2@X@json_abi_v3_12_0@nlohmann@@@std@@@std@@AEAAPEAV?$basic_json@Vmap@std@@Vvector@2@V?$basic_string@DU?$char_traits@D@std@@V?$allocator@D@2@@2@_N_J_KNVallocator@2@Uadl_serializer@json_abi_v3_12_0@nlohmann@@V?$vector@EV?$allocator@E@std@@@2@X@json_abi_v3_12_0@nlohmann@@QEAV234@AEA_N@Z
	??$_Emplace_reallocate@AEBN@?$vector@NV?$allocator@N@std@@@std@@AEAAPEANQEANAEBN@Z
	??$_Emplace_reallocate@AEBQEAN@?$vector@PEANV?$allocator@PEAN@std@@@std@@AEAAPEAPEANQEAPEANAEBQEAN@Z
	??$_Emplace_reallocate@AEBQEAV?$basic_json@Vmap@std@@Vvector@2@V?$basic_string@DU?$char_traits@D@std@@V?$allocator@D@2@@2@_N_J_KNVallocator@2@Uadl_serializer@json_abi_v3_12_0@nlohmann@@V?$vector@EV?$allocator@E@std@@@2@X@json_abi_v3_12_0@nlohmann@@@?$vector@PEAV?$basic_json@Vmap@std@@Vvector@2@V?$basic_string@DU?$char_traits@D@std@@V?$allocator@D@2@@2@_N_J_KNVallocator@2@Uadl_serializer@json_abi_v3_12_0@nlohmann@@V?$vector@EV?$allocator@E@std@@@2@X@json_abi_v3_12_0@nlohmann@@V?$allocator@PEAV?$basic_json@Vmap@std@@Vvector@2@V?$basic_string@DU?$char_traits@D@std@@V?$allocator@D@2@@2@_N_J_KNVallocator@2@Uadl_serializer@json_abi_v3_12_0@nlohmann@@V?$vector@EV?$allocator@E@std@@@2@X@json_abi_v3_12_0@nlohmann@@@std@@@std@@AEAAPEAPEAV?$basic_json@Vmap@std@@Vvector@2@V?$basic_string@DU?$char_traits@D@std@@V?$allocator@D@2@@2@_N_J_KNVallocator@2@Uadl_serializer@json_abi_v3_12_0@nlohmann@@V?$vector@EV?$allocator@E@std@@@2@X@json_abi_v3_12_0@nlohmann@@QEAPEAV234@AEBQEAV234@@Z
	??$_Emplace_reallocate@AEBQEAVConstraint@GCS@@@?$vector@PEAVConstraint@GCS@@V?$allocator@PEAVConstraint@GCS@@@std@@@std@@AEAAPEAPEAVConstraint@GCS@@QEAPEAV23@AEBQEAV23@@Z
	??$_Emplace_reallocate@AEBUChildElementMap@oreo@@@?$vector@UChildElementMap@oreo@@V?$allocator@UChildElementMap@oreo@@@std@@@std@@AEAAPEAUChildElementMap@oreo@@QEAU23@AEBU23@@Z
	??$_Emplace_reallocate@AEBUDiagnostic@oreo@@@?$vector@UDiagnostic@oreo@@V?$allocator@UDiagnostic@oreo@@@std@@@std@@AEAAPEAUDiagnostic@oreo@@QEAU23@AEBU23@@Z
	??$_Emplace_reallocate@AEBUElementRef@oreo@@@?$vector@UElementRef@oreo@@V?$allocator@UElementRef@oreo@@@std@@@std@@AEAAPEAUElementRef@oreo@@QEAU23@AEBU23@@Z
	??$_Emplace_reallocate@AEBUFaceGroup@oreo@@@?$vector@UFaceGroup@oreo@@V?$allocator@UFaceGroup@oreo@@@std@@@std@@AEAAPEAUFaceGroup@oreo@@QEAU23@AEBU23@@Z
	??$_Emplace_reallocate@AEBUFaceMeshDiagnostic@oreo@@@?$vector@UFaceMeshDiagnostic@oreo@@V?$allocator@UFaceMeshDiagnostic@oreo@@@std@@@std@@AEAAPEAUFaceMeshDiagnostic@oreo@@QEAU23@AEBU23@@Z
	??$_Emplace_reallocate@AEBUFeature@oreo@@@?$vector@UFeature@oreo@@V?$allocator@UFeature@oreo@@@std@@@std@@AEAAPEAUFeature@oreo@@QEAU23@AEBU23@@Z
	??$_Emplace_reallocate@AEBUHistoryTraceItem@oreo@@@?$vector@UHistoryTraceItem@oreo@@V?$allocator@UHistoryTraceItem@oreo@@@std@@@std@@AEAAPEAUHistoryTraceItem@oreo@@QEAU23@AEBU23@@Z
	??$_Emplace_reallocate@AEBUMappedChildElements@ElementMap@Data@@@?$vector@UMappedChildElements@ElementMap@Data@@V?$allocator@UMappedChildElements@ElementMap@Data@@@std@@@std@@AEAAPEAUMappedChildElements@ElementMap@Data@@QEAU234@AEBU234@@Z
	??$_Emplace_reallocate@AEBUSketchConstraint@oreo@@@?$vector@USketchConstraint@oreo@@V?$allocator@USketchConstraint@oreo@@@std@@@std@@AEAAPEAUSketchConstraint@oreo@@QEAU23@AEBU23@@Z
	??$_Emplace_reallocate@AEBV?$basic_json@Vmap@std@@Vvector@2@V?$basic_string@DU?$char_traits@D@std@@V?$allocator@D@2@@2@_N_J_KNVallocator@2@Uadl_serializer@json_abi_v3_12_0@nlohmann@@V?$vector@EV?$allocator@E@std@@@2@X@json_abi_v3_12_0@nlohmann@@@?$vector@V?$basic_json@Vmap@std@@Vvector@2@V?$basic_string@DU?$char_traits@D@std@@V?$allocator@D@2@@2@_N_J_KNVallocator@2@Uadl_serializer@json_abi_v3_12_0@nlohmann@@V?$vector@EV?$allocator@E@std@@@2@X@json_abi_v3_12_0@nlohmann@@V?$allocator@V?$basic_json@Vmap@std@@Vvector@2@V?$basic_string@DU?$char_traits@D@std@@V?$allocator@D@2@@2@_N_J_KNVallocator@2@Uadl_serializer@json_abi_v3_12_0@nlohmann@@V?$vector@EV?$allocator@E@std@@@2@X@json_abi_v3_12_0@nlohmann@@@std@@@std@@AEAAPEAV?$basic_json@Vmap@std@@Vvector@2@V?$basic_string@DU?$char_traits@D@std@@V?$allocator@D@2@@2@_N_J_KNVallocator@2@Uadl_serializer@json_abi_v3_12_0@nlohmann@@V?$vector@EV?$allocator@E@std@@@2@X@json_abi_v3_12_0@nlohmann@@QEAV234@AEBV234@@Z
	??$_Emplace_reallocate@AEBV?$vector@PEAVConstraint@GCS@@V?$allocator@PEAVConstraint@GCS@@@std@@@std@@@?$vector@V?$vector@PEAVConstraint@GCS@@V?$allocator@PEAVConstraint@GCS@@@std@@@std@@V?$allocator@V?$vector@PEAVConstraint@GCS@@V?$allocator@PEAVConstraint@GCS@@@std@@@std@@@2@@std@@AEAAPEAV?$vector@PEAVConstraint@GCS@@V?$allocator@PEAVConstraint@GCS@@@std@@@1@QEAV21@AEBV21@@Z
	??$_Emplace_reallocate@AEBVArc@GCS@@@?$vector@VArc@GCS@@V?$allocator@VArc@GCS@@@std@@@std@@AEAAPEAVArc@GCS@@QEAV23@AEBV23@@Z
	??$_Emplace_reallocate@AEBVCircle@GCS@@@?$vector@VCircle@GCS@@V?$allocator@VCircle@GCS@@@std@@@std@@AEAAPEAVCircle@GCS@@QEAV23@AEBV23@@Z
	??$_Emplace_reallocate@AEBVIndexedName@oreo@@AEBVMappedName@2@@?$vector@U?$pair@VIndexedName@oreo@@VMappedName@2@@std@@V?$allocator@U?$pair@VIndexedName@oreo@@VMappedName@2@@std@@@2@@std@@AEAAPEAU?$pair@VIndexedName@oreo@@VMappedName@2@@1@QEAU21@AEBVIndexedName@oreo@@AEBVMappedName@4@@Z
	??$_Emplace_reallocate@AEBVLine@GCS@@@?$vector@VLine@GCS@@V?$allocator@VLine@GCS@@@std@@@std@@AEAAPEAVLine@GCS@@QEAV23@AEBV23@@Z
	??$_Emplace_reallocate@AEBVMappedName@Data@@@?$vector@VMappedName@Data@@V?$allocator@VMappedName@Data@@@std@@@std@@AEAAPEAVMappedName@Data@@QEAV23@AEBV23@@Z
	??$_Emplace_reallocate@AEBVMappedName@Data@@AEBV?$QList@VStringIDRef@App@@@@@?$vector@U?$pair@VMappedName@Data@@V?$QList@VStringIDRef@App@@@@@std@@V?$allocator@U?$pair@VMappedName@Data@@V?$QList@VStringIDRef@App@@@@@std@@@2@@std@@AEAAPEAU?$pair@VMappedName@Data@@V?$QList@VStringIDRef@App@@@@@1@QEAU21@AEBVMappedName@Data@@AEBV?$QList@VStringIDRef@App@@@@@Z
	??$_Emplace_reallocate@AEBVMappedName@Data@@AEBVIndexedName@2@@?$vector@UMappedElement@Data@@V?$allocator@UMappedElement@Data@@@std@@@std@@AEAAPEAUMappedElement@Data@@QEAU23@AEBVMappedName@3@AEBVIndexedName@3@@Z
	??$_Emplace_reallocate@AEBVNamedShape@oreo@@@?$vector@VNamedShape@oreo@@V?$allocator@VNamedShape@oreo@@@std@@@std@@AEAAPEAVNamedShape@oreo@@QEAV23@AEBV23@@Z
	??$_Emplace_reallocate@AEBVPoint@GCS@@@?$vector@VPoint@GCS@@V?$allocator@VPoint@GCS@@@std@@@std@@AEAAPEAVPoint@GCS@@QEAV23@AEBV23@@Z
	??$_Emplace_reallocate@AEBVQByteArray@@@?$vector@VQByteArray@@V?$allocator@VQByteArray@@@std@@@std@@AEAAPEAVQByteArray@@QEAV2@AEBV2@@Z
	??$_Emplace_reallocate@AEBVTopoDS_Shape@@@?$vector@VTopoDS_Shape@@V?$allocator@VTopoDS_Shape@@@std@@@std@@AEAAPEAVTopoDS_Shape@@QEAV2@AEBV2@@Z
	??$_Emplace_reallocate@AEBVgp_Pnt@@@?$vector@Vgp_Pnt@@V?$allocator@Vgp_Pnt@@@std@@@std@@AEAAPEAVgp_Pnt@@QEAV2@AEBV2@@Z
	??$_Emplace_reallocate@D@?$vector@DV?$allocator@D@std@@@std@@AEAAPEADQEAD$$QEAD@Z
	??$_Emplace_reallocate@E@?$vector@EV?$allocator@E@std@@@std@@AEAAPEAEQEAE$$QEAE@Z
	??$_Emplace_reallocate@I@?$vector@IV?$allocator@I@std@@@std@@AEAAPEAIQEAI$$QEAI@Z
	??$_Emplace_reallocate@M@?$vector@MV?$allocator@M@std@@@std@@AEAAPEAMQEAM$$QEAM@Z
	??$_Emplace_reallocate@PEAN@?$vector@PEANV?$allocator@PEAN@std@@@std@@AEAAPEAPEANQEAPEAN$$QEAPEAN@Z
	??$_Emplace_reallocate@PEAV?$basic_json@Vmap@std@@Vvector@2@V?$basic_string@DU?$char_traits@D@std@@V?$allocator@D@2@@2@_N_J_KNVallocator@2@Uadl_serializer@json_abi_v3_12_0@nlohmann@@V?$vector@EV?$allocator@E@std@@@2@X@json_abi_v3_12_0@nlohmann@@@?$vector@PEAV?$basic_json@Vmap@std@@Vvector@2@V?$basic_string@DU?$char_traits@D@std@@V?$allocator@D@2@@2@_N_J_KNVallocator@2@Uadl_serializer@json_abi_v3_12_0@nlohmann@@V?$vector@EV?$allocator@E@std@@@2@X@json_abi_v3_12_0@nlohmann@@V?$allocator@PEAV?$basic_json@Vmap@std@@Vvector@2@V?$basic_string@DU?$char_traits@D@std@@V?$allocator@D@2@@2@_N_J_KNVallocator@2@Uadl_serializer@json_abi_v3_12_0@nlohmann@@V?$vector@EV?$allocator@E@std@@@2@X@json_abi_v3_12_0@nlohmann@@@std@@@std@@AEAAPEAPEAV?$basic_json@Vmap@std@@Vvector@2@V?$basic_string@DU?$char_traits@D@std@@V?$allocator@D@2@@2@_N_J_KNVallocator@2@Uadl_serializer@json_abi_v3_12_0@nlohmann@@V?$vector@EV?$allocator@E@std@@@2@X@json_abi_v3_12_0@nlohmann@@QEAPEAV234@$$QEAPEAV234@@Z
	??$_Emplace_reallocate@PEAVSubSystem@GCS@@@?$vector@PEAVSubSystem@GCS@@V?$allocator@PEAVSubSystem@GCS@@@std@@@std@@AEAAPEAPEAVSubSystem@GCS@@QEAPEAV23@$$QEAPEAV23@@Z
	??$_Emplace_reallocate@PEBUFeature@oreo@@@?$vector@PEBUFeature@oreo@@V?$allocator@PEBUFeature@oreo@@@std@@@std@@AEAAPEAPEBUFeature@oreo@@QEAPEBU23@$$QEAPEBU23@@Z
	??$_Emplace_reallocate@PEBVElementMap@Data@@@?$vector@PEBVElementMap@Data@@V?$allocator@PEBVElementMap@Data@@@std@@@std@@AEAAPEAPEBVElementMap@Data@@QEAPEBV23@$$QEAPEBV23@@Z
	??$_Emplace_reallocate@U?$pair@_KU?$pair@V?$optional@V?$edge_desc_impl@Uundirected_tag@boost@@_K@detail@boost@@@boost@@U?$pair@U?$out_edge_iter@V?$_Vector_iterator@V?$_Vector_val@U?$_Simple_types@V?$stored_edge_iter@_KV?$_List_iterator@V?$_List_val@U?$_List_simple_types@U?$list_edge@_KUno_property@boost@@@boost@@@std@@@std@@@std@@Uno_property@boost@@@detail@boost@@@std@@@std@@@std@@_KV?$edge_desc_impl@Uundirected_tag@boost@@_K@detail@boost@@_J@detail@boost@@U123@@std@@@std@@@std@@@?$vector@U?$pair@_KU?$pair@V?$optional@V?$edge_desc_impl@Uundirected_tag@boost@@_K@detail@boost@@@boost@@U?$pair@U?$out_edge_iter@V?$_Vector_iterator@V?$_Vector_val@U?$_Simple_types@V?$stored_edge_iter@_KV?$_List_iterator@V?$_List_val@U?$_List_simple_types@U?$list_edge@_KUno_property@boost@@@boost@@@std@@@std@@@std@@Uno_property@boost@@@detail@boost@@@std@@@std@@@std@@_KV?$edge_desc_impl@Uundirected_tag@boost@@_K@detail@boost@@_J@detail@boost@@U123@@std@@@std@@@std@@V?$allocator@U?$pair@_KU?$pair@V?$optional@V?$edge_desc_impl@Uundirected_tag@boost@@_K@detail@boost@@@boost@@U?$pair@U?$out_edge_iter@V?$_Vector_iterator@V?$_Vector_val@U?$_Simple_types@V?$stored_edge_iter@_KV?$_List_iterator@V?$_List_val@U?$_List_simple_types@U?$list_edge@_KUno_property@boost@@@boost@@@std@@@std@@@std@@Uno_property@boost@@@detail@boost@@@std@@@std@@@std@@_KV?$edge_desc_impl@Uundirected_tag@boost@@_K@detail@boost@@_J@detail@boost@@U123@@std@@@std@@@std@@@2@@std@@AEAAPEAU?$pair@_KU?$pair@V?$optional@V?$edge_desc_impl@Uundirected_tag@boost@@_K@detail@boost@@@boost@@U?$pair@U?$out_edge_iter@V?$_Vector_iterator@V?$_Vector_val@U?$_Simple_types@V?$stored_edge_iter@_KV?$_List_iterator@V?$_List_val@U?$_List_simple_types@U?$list_edge@_KUno_property@boost@@@boost@@@std@@@std@@@std@@Uno_property@boost@@@detail@boost@@@std@@@std@@@std@@_KV?$edge_desc_impl@Uundirected_tag@boost@@_K@detail@boost@@_J@detail@boost@@U123@@std@@@std@@@1@QEAU21@$$QEAU21@@Z
	??$_Emplace_reallocate@UDiagnostic@oreo@@@?$vector@UDiagnostic@oreo@@V?$allocator@UDiagnostic@oreo@@@std@@@std@@AEAAPEAUDiagnostic@oreo@@QEAU23@$$QEAU23@@Z
	??$_Emplace_reallocate@UEdgeSegment@oreo@@@?$vector@UEdgeSegment@oreo@@V?$allocator@UEdgeSegment@oreo@@@std@@@std@@AEAAPEAUEdgeSegment@oreo@@QEAU23@$$QEAU23@@Z
	??$_Emplace_reallocate@UMigration@oreo@@@?$vector@UMigration@oreo@@V?$allocator@UMigration@oreo@@@std@@@std@@AEAAPEAUMigration@oreo@@QEAU23@$$QEAU23@@Z
	??$_Emplace_reallocate@UNamedEdge@oreo@@@?$vector@UNamedEdge@oreo@@V?$allocator@UNamedEdge@oreo@@@std@@@std@@AEAAPEAUNamedEdge@oreo@@QEAU23@$$QEAU23@@Z
	??$_Emplace_reallocate@UNamedFace@oreo@@@?$vector@UNamedFace@oreo@@V?$allocator@UNamedFace@oreo@@@std@@@std@@AEAAPEAUNamedFace@oreo@@QEAU23@$$QEAU23@@Z
	??$_Emplace_reallocate@USketchArc@oreo@@@?$vector@USketchArc@oreo@@V?$allocator@USketchArc@oreo@@@std@@@std@@AEAAPEAUSketchArc@oreo@@QEAU23@$$QEAU23@@Z
	??$_Emplace_reallocate@USketchCircle@oreo@@@?$vector@USketchCircle@oreo@@V?$allocator@USketchCircle@oreo@@@std@@@std@@AEAAPEAUSketchCircle@oreo@@QEAU23@$$QEAU23@@Z
	??$_Emplace_reallocate@USketchLine@oreo@@@?$vector@USketchLine@oreo@@V?$allocator@USketchLine@oreo@@@std@@@std@@AEAAPEAUSketchLine@oreo@@QEAU23@$$QEAU23@@Z
	??$_Emplace_reallocate@USketchPoint@oreo@@@?$vector@USketchPoint@oreo@@V?$allocator@USketchPoint@oreo@@@std@@@std@@AEAAPEAUSketchPoint@oreo@@QEAU23@$$QEAU23@@Z
	??$_Emplace_reallocate@V?$basic_json@Vmap@std@@Vvector@2@V?$basic_string@DU?$char_traits@D@std@@V?$allocator@D@2@@2@_N_J_KNVallocator@2@Uadl_serializer@json_abi_v3_12_0@nlohmann@@V?$vector@EV?$allocator@E@std@@@2@X@json_abi_v3_12_0@nlohmann@@@?$vector@V?$basic_json@Vmap@std@@Vvector@2@V?$basic_string@DU?$char_traits@D@std@@V?$allocator@D@2@@2@_N_J_KNVallocator@2@Uadl_serializer@json_abi_v3_12_0@nlohmann@@V?$vector@EV?$allocator@E@std@@@2@X@json_abi_v3_12_0@nlohmann@@V?$allocator@V?$basic_json@Vmap@std@@Vvector@2@V?$basic_string@DU?$char_traits@D@std@@V?$allocator@D@2@@2@_N_J_KNVallocator@2@Uadl_serializer@json_abi_v3_12_0@nlohmann@@V?$vector@EV?$allocator@E@std@@@2@X@json_abi_v3_12_0@nlohmann@@@std@@@std@@AEAAPEAV?$basic_json@Vmap@std@@Vvector@2@V?$basic_string@DU?$char_traits@D@std@@V?$allocator@D@2@@2@_N_J_KNVallocator@2@Uadl_serializer@json_abi_v3_12_0@nlohmann@@V?$vector@EV?$allocator@E@std@@@2@X@json_abi_v3_12_0@nlohmann@@QEAV234@$$QEAV234@@Z
	??$_Emplace_reallocate@V?$basic_string@DU?$char_traits@D@std@@V?$allocator@D@2@@std@@@?$vector@V?$basic_string@DU?$char_traits@D@std@@V?$allocator@D@2@@std@@V?$allocator@V?$basic_string@DU?$char_traits@D@std@@V?$allocator@D@2@@std@@@2@@std@@AEAAPEAV?$basic_string@DU?$char_traits@D@std@@V?$allocator@D@2@@1@QEAV21@$$QEAV21@@Z
	??$_Emplace_reallocate@V?$shared_ptr@VElementMap@Data@@@std@@@?$vector@V?$shared_ptr@VElementMap@Data@@@std@@V?$allocator@V?$shared_ptr@VElementMap@Data@@@std@@@2@@std@@AEAAPEAV?$shared_ptr@VElementMap@Data@@@1@QEAV21@$$QEAV21@@Z
	??$_Emplace_reallocate@V?$stored_edge_iter@_KV?$_List_iterator@V?$_List_val@U?$_List_simple_types@U?$list_edge@_KUno_property@boost@@@boost@@@std@@@std@@@std@@Uno_property@boost@@@detail@boost@@@?$vector@V?$stored_edge_iter@_KV?$_List_iterator@V?$_List_val@U?$_List_simple_types@U?$list_edge@_KUno_property@boost@@@boost@@@std@@@std@@@std@@Uno_property@boost@@@detail@boost@@V?$allocator@V?$stored_edge_iter@_KV?$_List_iterator@V?$_List_val@U?$_List_simple_types@U?$list_edge@_KUno_property@boost@@@boost@@@std@@@std@@@std@@Uno_property@boost@@@detail@boost@@@std@@@std@@AEAAPEAV?$stored_edge_iter@_KV?$_List_iterator@V?$_List_val@U?$_List_simple_types@U?$list_edge@_KUno_property@boost@@@boost@@@std@@@std@@@std@@Uno_property@boost@@@detail@boost@@QEAV234@$$QEAV234@@Z
	??$_Emplace_reallocate@V?$unique_ptr@NU?$default_delete@N@std@@@std@@@?$vector@V?$unique_ptr@NU?$default_delete@N@std@@@std@@V?$allocator@V?$unique_ptr@NU?$default_delete@N@std@@@std@@@2@@std@@AEAAPEAV?$unique_ptr@NU?$default_delete@N@std@@@1@QEAV21@$$QEAV21@@Z
	??$_Emplace_reallocate@VMappedName@Data@@@?$vector@VMappedName@Data@@V?$allocator@VMappedName@Data@@@std@@@std@@AEAAPEAVMappedName@Data@@QEAV23@$$QEAV23@@Z
	??$_Emplace_reallocate@VMappedName@Data@@V?$QList@VStringIDRef@App@@@@@?$vector@U?$pair@VMappedName@Data@@V?$QList@VStringIDRef@App@@@@@std@@V?$allocator@U?$pair@VMappedName@Data@@V?$QList@VStringIDRef@App@@@@@std@@@2@@std@@AEAAPEAU?$pair@VMappedName@Data@@V?$QList@VStringIDRef@App@@@@@1@QEAU21@$$QEAVMappedName@Data@@$$QEAV?$QList@VStringIDRef@App@@@@@Z
	??$_Emplace_reallocate@VTopoShapeAdapter@oreo@@@?$vector@VTopoShapeAdapter@oreo@@V?$allocator@VTopoShapeAdapter@oreo@@@std@@@std@@AEAAPEAVTopoShapeAdapter@oreo@@QEAV23@$$QEAV23@@Z
	??$_Emplace_reallocate@W4value_t@detail@json_abi_v3_12_0@nlohmann@@@?$vector@V?$basic_json@Vmap@std@@Vvector@2@V?$basic_string@DU?$char_traits@D@std@@V?$allocator@D@2@@2@_N_J_KNVallocator@2@Uadl_serializer@json_abi_v3_12_0@nlohmann@@V?$vector@EV?$allocator@E@std@@@2@X@json_abi_v3_12_0@nlohmann@@V?$allocator@V?$basic_json@Vmap@std@@Vvector@2@V?$basic_string@DU?$char_traits@D@std@@V?$allocator@D@2@@2@_N_J_KNVallocator@2@Uadl_serializer@json_abi_v3_12_0@nlohmann@@V?$vector@EV?$allocator@E@std@@@2@X@json_abi_v3_12_0@nlohmann@@@std@@@std@@AEAAPEAV?$basic_json@Vmap@std@@Vvector@2@V?$basic_string@DU?$char_traits@D@std@@V?$allocator@D@2@@2@_N_J_KNVallocator@2@Uadl_serializer@json_abi_v3_12_0@nlohmann@@V?$vector@EV?$allocator@E@std@@@2@X@json_abi_v3_12_0@nlohmann@@QEAV234@$$QEAW4value_t@detail@34@@Z
	??$_Eqrange@V?$basic_string@DU?$char_traits@D@std@@V?$allocator@D@2@@std@@@?$_Tree@V?$_Tmap_traits@V?$basic_string@DU?$char_traits@D@std@@V?$allocator@D@2@@std@@VNamedShape@oreo@@U?$less@V?$basic_string@DU?$char_traits@D@std@@V?$allocator@D@2@@std@@@2@V?$allocator@U?$pair@$$CBV?$basic_string@DU?$char_traits@D@std@@V?$allocator@D@2@@std@@VNamedShape@oreo@@@std@@@2@$0A@@std@@@std@@IEBA?AU?$pair@PEAU?$_Tree_node@U?$pair@$$CBV?$basic_string@DU?$char_traits@D@std@@V?$allocator@D@2@@std@@VNamedShape@oreo@@@std@@PEAX@std@@PEAU12@@1@AEBV?$basic_string@DU?$char_traits@D@std@@V?$allocator@D@2@@1@@Z
	??$_Eqrange@V?$basic_string@DU?$char_traits@D@std@@V?$allocator@D@2@@std@@@?$_Tree@V?$_Tmap_traits@V?$basic_string@DU?$char_traits@D@std@@V?$allocator@D@2@@std@@_NU?$less@V?$basic_string@DU?$char_traits@D@std@@V?$allocator@D@2@@std@@@2@V?$allocator@U?$pair@$$CBV?$basic_string@DU?$char_traits@D@std@@V?$allocator@D@2@@std@@_N@std@@@2@$0A@@std@@@std@@IEBA?AU?$pair@PEAU?$_Tree_node@U?$pair@$$CBV?$basic_string@DU?$char_traits@D@std@@V?$allocator@D@2@@std@@_N@std@@PEAX@std@@PEAU12@@1@AEBV?$basic_string@DU?$char_traits@D@std@@V?$allocator@D@2@@1@@Z
	??$_Eqrange@VMappedName@oreo@@@?$_Tree@V?$_Tmap_traits@VMappedName@oreo@@VIndexedName@2@U?$less@VMappedName@oreo@@@std@@V?$allocator@U?$pair@$$CBVMappedName@oreo@@VIndexedName@2@@std@@@5@$0A@@std@@@std@@IEBA?AU?$pair@PEAU?$_Tree_node@U?$pair@$$CBVMappedName@oreo@@VIndexedName@2@@std@@PEAX@std@@PEAU12@@1@AEBVMappedName@oreo@@@Z
	??$_Erase_head@V?$allocator@U?$_Tree_node@PEAVConstraint@GCS@@PEAX@std@@@std@@@?$_Tree_val@U?$_Tree_simple_types@PEAVConstraint@GCS@@@std@@@std@@QEAAXAEAV?$allocator@U?$_Tree_node@PEAVConstraint@GCS@@PEAX@std@@@1@@Z
	??$_Erase_head@V?$allocator@U?$_Tree_node@U?$pair@$$CBHH@std@@PEAX@std@@@std@@@?$_Tree_val@U?$_Tree_simple_types@U?$pair@$$CBHH@std@@@std@@@std@@QEAAXAEAV?$allocator@U?$_Tree_node@U?$pair@$$CBHH@std@@PEAX@std@@@1@@Z
	??$_Erase_head@V?$allocator@U?$_Tree_node@U?$pair@QEANH@std@@PEAX@std@@@std@@@?$_Tree_val@U?$_Tree_simple_types@U?$pair@QEANH@std@@@std@@@std@@QEAAXAEAV?$allocator@U?$_Tree_node@U?$pair@QEANH@std@@PEAX@std@@@1@@Z
	??$_Erase_head@V?$allocator@U?$_Tree_node@U?$pair@QEANPEAN@std@@PEAX@std@@@std@@@?$_Tree_val@U?$_Tree_simple_types@U?$pair@QEANPEAN@std@@@std@@@std@@QEAAXAEAV?$allocator@U?$_Tree_node@U?$pair@QEANPEAN@std@@PEAX@std@@@1@@Z
	??$_Erase_head@V?$allocator@U?$_Tree_node@U?$pair@QEAVElementMap@Data@@H@std@@PEAX@std@@@std@@@?$_Tree_val@U?$_Tree_simple_types@U?$pair@QEAVElementMap@Data@@H@std@@@std@@@std@@QEAAXAEAV?$allocator@U?$_Tree_node@U?$pair@QEAVElementMap@Data@@H@std@@PEAX@std@@@1@@Z
	??$_Erase_tree@V?$allocator@U?$_Tree_node@HPEAX@std@@@std@@@?$_Tree_val@U?$_Tree_simple_types@H@std@@@std@@QEAAXAEAV?$allocator@U?$_Tree_node@HPEAX@std@@@1@PEAU?$_Tree_node@HPEAX@1@@Z
	??$_Erase_tree@V?$allocator@U?$_Tree_node@JPEAX@std@@@std@@@?$_Tree_val@U?$_Tree_simple_types@J@std@@@std@@QEAAXAEAV?$allocator@U?$_Tree_node@JPEAX@std@@@1@PEAU?$_Tree_node@JPEAX@1@@Z
	??$_Erase_tree@V?$allocator@U?$_Tree_node@PEANPEAX@std@@@std@@@?$_Tree_val@U?$_Tree_simple_types@PEAN@std@@@std@@QEAAXAEAV?$allocator@U?$_Tree_node@PEANPEAX@std@@@1@PEAU?$_Tree_node@PEANPEAX@1@@Z
	??$_Erase_tree@V?$allocator@U?$_Tree_node@PEAVConstraint@GCS@@PEAX@std@@@std@@@?$_Tree_val@U?$_Tree_simple_types@PEAVConstraint@GCS@@@std@@@std@@QEAAXAEAV?$allocator@U?$_Tree_node@PEAVConstraint@GCS@@PEAX@std@@@1@PEAU?$_Tree_node@PEAVConstraint@GCS@@PEAX@1@@Z
	??$_Erase_tree@V?$allocator@U?$_Tree_node@U?$pair@$$CBHH@std@@PEAX@std@@@std@@@?$_Tree_val@U?$_Tree_simple_types@U?$pair@$$CBHH@std@@@std@@@std@@QEAAXAEAV?$allocator@U?$_Tree_node@U?$pair@$$CBHH@std@@PEAX@std@@@1@PEAU?$_Tree_node@U?$pair@$$CBHH@std@@PEAX@1@@Z
	??$_Erase_tree@V?$allocator@U?$_Tree_node@U?$pair@$$CBHUCachedFace@MeshCache@oreo@@@std@@PEAX@std@@@std@@@?$_Tree_val@U?$_Tree_simple_types@U?$pair@$$CBHUCachedFace@MeshCache@oreo@@@std@@@std@@@std@@QEAAXAEAV?$allocator@U?$_Tree_node@U?$pair@$$CBHUCachedFace@MeshCache@oreo@@@std@@PEAX@std@@@1@PEAU?$_Tree_node@U?$pair@$$CBHUCachedFace@MeshCache@oreo@@@std@@PEAX@1@@Z
	??$_Erase_tree@V?$allocator@U?$_Tree_node@U?$pair@$$CBHUMappedChildElements@ElementMap@Data@@@std@@PEAX@std@@@std@@@?$_Tree_val@U?$_Tree_simple_types@U?$pair@$$CBHUMappedChildElements@ElementMap@Data@@@std@@@std@@@std@@QEAAXAEAV?$allocator@U?$_Tree_node@U?$pair@$$CBHUMappedChildElements@ElementMap@Data@@@std@@PEAX@std@@@1@PEAU?$_Tree_node@U?$pair@$$CBHUMappedChildElements@ElementMap@Data@@@std@@PEAX@1@@Z
	??$_Erase_tree@V?$allocator@U?$_Tree_node@U?$pair@$$CBJVStringIDRef@App@@@std@@PEAX@std@@@std@@@?$_Tree_val@U?$_Tree_simple_types@U?$pair@$$CBJVStringIDRef@App@@@std@@@std@@@std@@QEAAXAEAV?$allocator@U?$_Tree_node@U?$pair@$$CBJVStringIDRef@App@@@std@@PEAX@std@@@1@PEAU?$_Tree_node@U?$pair@$$CBJVStringIDRef@App@@@std@@PEAX@1@@Z
	??$_Erase_tree@V?$allocator@U?$_Tree_node@U?$pair@$$CBUNameKey@oreo@@UNameInfo@2@@std@@PEAX@std@@@std@@@?$_Tree_val@U?$_Tree_simple_types@U?$pair@$$CBUNameKey@oreo@@UNameInfo@2@@std@@@std@@@std@@QEAAXAEAV?$allocator@U?$_Tree_node@U?$pair@$$CBUNameKey@oreo@@UNameInfo@2@@std@@PEAX@std@@@1@PEAU?$_Tree_node@U?$pair@$$CBUNameKey@oreo@@UNameInfo@2@@std@@PEAX@1@@Z
	??$_Erase_tree@V?$allocator@U?$_Tree_node@U?$pair@$$CBV?$basic_string@DU?$char_traits@D@std@@V?$allocator@D@2@@std@@USchemaVersion@oreo@@@std@@PEAX@std@@@std@@@?$_Tree_val@U?$_Tree_simple_types@U?$pair@$$CBV?$basic_string@DU?$char_traits@D@std@@V?$allocator@D@2@@std@@USchemaVersion@oreo@@@std@@@std@@@std@@QEAAXAEAV?$allocator@U?$_Tree_node@U?$pair@$$CBV?$basic_string@DU?$char_traits@D@std@@V?$allocator@D@2@@std@@USchemaVersion@oreo@@@std@@PEAX@std@@@1@PEAU?$_Tree_node@U?$pair@$$CBV?$basic_string@DU?$char_traits@D@std@@V?$allocator@D@2@@std@@USchemaVersion@oreo@@@std@@PEAX@1@@Z
	??$_Erase_tree@V?$allocator@U?$_Tree_node@U?$pair@$$CBV?$basic_string@DU?$char_traits@D@std@@V?$allocator@D@2@@std@@V?$basic_json@Vmap@std@@Vvector@2@V?$basic_string@DU?$char_traits@D@std@@V?$allocator@D@2@@2@_N_J_KNVallocator@2@Uadl_serializer@json_abi_v3_12_0@nlohmann@@V?$vector@EV?$allocator@E@std@@@2@X@json_abi_v3_12_0@nlohmann@@@std@@PEAX@std@@@std@@@?$_Tree_val@U?$_Tree_simple_types@U?$pair@$$CBV?$basic_string@DU?$char_traits@D@std@@V?$allocator@D@2@@std@@V?$basic_json@Vmap@std@@Vvector@2@V?$basic_string@DU?$char_traits@D@std@@V?$allocator@D@2@@2@_N_J_KNVallocator@2@Uadl_serializer@json_abi_v3_12_0@nlohmann@@V?$vector@EV?$allocator@E@std@@@2@X@json_abi_v3_12_0@nlohmann@@@std@@@std@@@std@@QEAAXAEAV?$allocator@U?$_Tree_node@U?$pair@$$CBV?$basic_string@DU?$char_traits@D@std@@V?$allocator@D@2@@std@@V?$basic_json@Vmap@std@@Vvector@2@V?$basic_string@DU?$char_traits@D@std@@V?$allocator@D@2@@2@_N_J_KNVallocator@2@Uadl_serializer@json_abi_v3_12_0@nlohmann@@V?$vector@EV?$allocator@E@std@@@2@X@json_abi_v3_12_0@nlohmann@@@std@@PEAX@std@@@1@PEAU?$_Tree_node@U?$pair@$$CBV?$basic_string@DU?$char_traits@D@std@@V?$allocator@D@2@@std@@V?$basic_json@Vmap@std@@Vvector@2@V?$basic_string@DU?$char_traits@D@std@@V?$allocator@D@2@@2@_N_J_KNVallocator@2@Uadl_serializer@json_abi_v3_12_0@nlohmann@@V?$vector@EV?$allocator@E@std@@@2@X@json_abi_v3_12_0@nlohmann@@@std@@PEAX@1@@Z
	??$_Erase_tree@V?$allocator@U?$_Tree_node@U?$pair@$$CBV?$basic_string@DU?$char_traits@D@std@@V?$allocator@D@2@@std@@V?$variant@NH_NV?$basic_string@DU?$char_traits@D@std@@V?$allocator@D@2@@std@@Vgp_Vec@@Vgp_Pnt@@Vgp_Dir@@Vgp_Ax1@@Vgp_Ax2@@Vgp_Pln@@UElementRef@oreo@@V?$vector@UElementRef@oreo@@V?$allocator@UElementRef@oreo@@@std@@@2@@2@@std@@PEAX@std@@@std@@@?$_Tree_val@U?$_Tree_simple_types@U?$pair@$$CBV?$basic_string@DU?$char_traits@D@std@@V?$allocator@D@2@@std@@V?$variant@NH_NV?$basic_string@DU?$char_traits@D@std@@V?$allocator@D@2@@std@@Vgp_Vec@@Vgp_Pnt@@Vgp_Dir@@Vgp_Ax1@@Vgp_Ax2@@Vgp_Pln@@UElementRef@oreo@@V?$vector@UElementRef@oreo@@V?$allocator@UElementRef@oreo@@@std@@@2@@2@@std@@@std@@@std@@QEAAXAEAV?$allocator@U?$_Tree_node@U?$pair@$$CBV?$basic_string@DU?$char_traits@D@std@@V?$allocator@D@2@@std@@V?$variant@NH_NV?$basic_string@DU?$char_traits@D@std@@V?$allocator@D@2@@std@@Vgp_Vec@@Vgp_Pnt@@Vgp_Dir@@Vgp_Ax1@@Vgp_Ax2@@Vgp_Pln@@UElementRef@oreo@@V?$vector@UElementRef@oreo@@V?$allocator@UElementRef@oreo@@@std@@@2@@2@@std@@PEAX@std@@@1@PEAU?$_Tree_node@U?$pair@$$CBV?$basic_string@DU?$char_traits@D@std@@V?$allocator@D@2@@std@@V?$variant@NH_NV?$basic_string@DU?$char_traits@D@std@@V?$allocator@D@2@@std@@Vgp_Vec@@Vgp_Pnt@@Vgp_Dir@@Vgp_Ax1@@Vgp_Ax2@@Vgp_Pln@@UElementRef@oreo@@V?$vector@UElementRef@oreo@@V?$allocator@UElementRef@oreo@@@std@@@2@@2@@std@@PEAX@1@@Z
	??$_Erase_tree@V?$allocator@U?$_Tree_node@U?$pair@$$CBV?$basic_string@DU?$char_traits@D@std@@V?$allocator@D@2@@std@@VNamedShape@oreo@@@std@@PEAX@std@@@std@@@?$_Tree_val@U?$_Tree_simple_types@U?$pair@$$CBV?$basic_string@DU?$char_traits@D@std@@V?$allocator@D@2@@std@@VNamedShape@oreo@@@std@@@std@@@std@@QEAAXAEAV?$allocator@U?$_Tree_node@U?$pair@$$CBV?$basic_string@DU?$char_traits@D@std@@V?$allocator@D@2@@std@@VNamedShape@oreo@@@std@@PEAX@std@@@1@PEAU?$_Tree_node@U?$pair@$$CBV?$basic_string@DU?$char_traits@D@std@@V?$allocator@D@2@@std@@VNamedShape@oreo@@@std@@PEAX@1@@Z
	??$_Erase_tree@V?$allocator@U?$_Tree_node@U?$pair@$$CBV?$basic_string@DU?$char_traits@D@std@@V?$allocator@D@2@@std@@_N@std@@PEAX@std@@@std@@@?$_Tree_val@U?$_Tree_simple_types@U?$pair@$$CBV?$basic_string@DU?$char_traits@D@std@@V?$allocator@D@2@@std@@_N@std@@@std@@@std@@QEAAXAEAV?$allocator@U?$_Tree_node@U?$pair@$$CBV?$basic_string@DU?$char_traits@D@std@@V?$allocator@D@2@@std@@_N@std@@PEAX@std@@@1@PEAU?$_Tree_node@U?$pair@$$CBV?$basic_string@DU?$char_traits@D@std@@V?$allocator@D@2@@std@@_N@std@@PEAX@1@@Z
	??$_Erase_tree@V?$allocator@U?$_Tree_node@U?$pair@$$CBVIndexedName@Data@@V?$map@UNameKey@oreo@@UNameInfo@2@U?$less@UNameKey@oreo@@@std@@V?$allocator@U?$pair@$$CBUNameKey@oreo@@UNameInfo@2@@std@@@5@@std@@@std@@PEAX@std@@@std@@@?$_Tree_val@U?$_Tree_simple_types@U?$pair@$$CBVIndexedName@Data@@V?$map@UNameKey@oreo@@UNameInfo@2@U?$less@UNameKey@oreo@@@std@@V?$allocator@U?$pair@$$CBUNameKey@oreo@@UNameInfo@2@@std@@@5@@std@@@std@@@std@@@std@@QEAAXAEAV?$allocator@U?$_Tree_node@U?$pair@$$CBVIndexedName@Data@@V?$map@UNameKey@oreo@@UNameInfo@2@U?$less@UNameKey@oreo@@@std@@V?$allocator@U?$pair@$$CBUNameKey@oreo@@UNameInfo@2@@std@@@5@@std@@@std@@PEAX@std@@@1@PEAU?$_Tree_node@U?$pair@$$CBVIndexedName@Data@@V?$map@UNameKey@oreo@@UNameInfo@2@U?$less@UNameKey@oreo@@@std@@V?$allocator@U?$pair@$$CBUNameKey@oreo@@UNameInfo@2@@std@@@5@@std@@@std@@PEAX@1@@Z
	??$_Erase_tree@V?$allocator@U?$_Tree_node@U?$pair@$$CBVIndexedName@Data@@V?$map@VMappedName@Data@@UNameInfo@oreo@@UElementNameComparator@2@V?$allocator@U?$pair@$$CBVMappedName@Data@@UNameInfo@oreo@@@std@@@std@@@std@@@std@@PEAX@std@@@std@@@?$_Tree_val@U?$_Tree_simple_types@U?$pair@$$CBVIndexedName@Data@@V?$map@VMappedName@Data@@UNameInfo@oreo@@UElementNameComparator@2@V?$allocator@U?$pair@$$CBVMappedName@Data@@UNameInfo@oreo@@@std@@@std@@@std@@@std@@@std@@@std@@QEAAXAEAV?$allocator@U?$_Tree_node@U?$pair@$$CBVIndexedName@Data@@V?$map@VMappedName@Data@@UNameInfo@oreo@@UElementNameComparator@2@V?$allocator@U?$pair@$$CBVMappedName@Data@@UNameInfo@oreo@@@std@@@std@@@std@@@std@@PEAX@std@@@1@PEAU?$_Tree_node@U?$pair@$$CBVIndexedName@Data@@V?$map@VMappedName@Data@@UNameInfo@oreo@@UElementNameComparator@2@V?$allocator@U?$pair@$$CBVMappedName@Data@@UNameInfo@oreo@@@std@@@std@@@std@@@std@@PEAX@1@@Z
	??$_Erase_tree@V?$allocator@U?$_Tree_node@U?$pair@$$CBVIndexedName@oreo@@VMappedName@2@@std@@PEAX@std@@@std@@@?$_Tree_val@U?$_Tree_simple_types@U?$pair@$$CBVIndexedName@oreo@@VMappedName@2@@std@@@std@@@std@@QEAAXAEAV?$allocator@U?$_Tree_node@U?$pair@$$CBVIndexedName@oreo@@VMappedName@2@@std@@PEAX@std@@@1@PEAU?$_Tree_node@U?$pair@$$CBVIndexedName@oreo@@VMappedName@2@@std@@PEAX@1@@Z
	??$_Erase_tree@V?$allocator@U?$_Tree_node@U?$pair@$$CBVMappedName@Data@@UNameInfo@oreo@@@std@@PEAX@std@@@std@@@?$_Tree_val@U?$_Tree_simple_types@U?$pair@$$CBVMappedName@Data@@UNameInfo@oreo@@@std@@@std@@@std@@QEAAXAEAV?$allocator@U?$_Tree_node@U?$pair@$$CBVMappedName@Data@@UNameInfo@oreo@@@std@@PEAX@std@@@1@PEAU?$_Tree_node@U?$pair@$$CBVMappedName@Data@@UNameInfo@oreo@@@std@@PEAX@1@@Z
	??$_Erase_tree@V?$allocator@U?$_Tree_node@U?$pair@$$CBVMappedName@Data@@VIndexedName@2@@std@@PEAX@std@@@std@@@?$_Tree_val@U?$_Tree_simple_types@U?$pair@$$CBVMappedName@Data@@VIndexedName@2@@std@@@std@@@std@@QEAAXAEAV?$allocator@U?$_Tree_node@U?$pair@$$CBVMappedName@Data@@VIndexedName@2@@std@@PEAX@std@@@1@PEAU?$_Tree_node@U?$pair@$$CBVMappedName@Data@@VIndexedName@2@@std@@PEAX@1@@Z
	??$_Erase_tree@V?$allocator@U?$_Tree_node@U?$pair@$$CBVMappedName@oreo@@VIndexedName@2@@std@@PEAX@std@@@std@@@?$_Tree_val@U?$_Tree_simple_types@U?$pair@$$CBVMappedName@oreo@@VIndexedName@2@@std@@@std@@@std@@QEAAXAEAV?$allocator@U?$_Tree_node@U?$pair@$$CBVMappedName@oreo@@VIndexedName@2@@std@@PEAX@std@@@1@PEAU?$_Tree_node@U?$pair@$$CBVMappedName@oreo@@VIndexedName@2@@std@@PEAX@1@@Z
	??$_Erase_tree@V?$allocator@U?$_Tree_node@U?$pair@$$CBVQByteArray@@H@std@@PEAX@std@@@std@@@?$_Tree_val@U?$_Tree_simple_types@U?$pair@$$CBVQByteArray@@H@std@@@std@@@std@@QEAAXAEAV?$allocator@U?$_Tree_node@U?$pair@$$CBVQByteArray@@H@std@@PEAX@std@@@1@PEAU?$_Tree_node@U?$pair@$$CBVQByteArray@@H@std@@PEAX@1@@Z
	??$_Erase_tree@V?$allocator@U?$_Tree_node@U?$pair@QEANH@std@@PEAX@std@@@std@@@?$_Tree_val@U?$_Tree_simple_types@U?$pair@QEANH@std@@@std@@@std@@QEAAXAEAV?$allocator@U?$_Tree_node@U?$pair@QEANH@std@@PEAX@std@@@1@PEAU?$_Tree_node@U?$pair@QEANH@std@@PEAX@1@@Z
	??$_Erase_tree@V?$allocator@U?$_Tree_node@U?$pair@QEANN@std@@PEAX@std@@@std@@@?$_Tree_val@U?$_Tree_simple_types@U?$pair@QEANN@std@@@std@@@std@@QEAAXAEAV?$allocator@U?$_Tree_node@U?$pair@QEANN@std@@PEAX@std@@@1@PEAU?$_Tree_node@U?$pair@QEANN@std@@PEAX@1@@Z
	??$_Erase_tree@V?$allocator@U?$_Tree_node@U?$pair@QEANPEAN@std@@PEAX@std@@@std@@@?$_Tree_val@U?$_Tree_simple_types@U?$pair@QEANPEAN@std@@@std@@@std@@QEAAXAEAV?$allocator@U?$_Tree_node@U?$pair@QEANPEAN@std@@PEAX@std@@@1@PEAU?$_Tree_node@U?$pair@QEANPEAN@std@@PEAX@1@@Z
	??$_Erase_tree@V?$allocator@U?$_Tree_node@U?$pair@QEANV?$vector@PEAVConstraint@GCS@@V?$allocator@PEAVConstraint@GCS@@@std@@@std@@@std@@PEAX@std@@@std@@@?$_Tree_val@U?$_Tree_simple_types@U?$pair@QEANV?$vector@PEAVConstraint@GCS@@V?$allocator@PEAVConstraint@GCS@@@std@@@std@@@std@@@std@@@std@@QEAAXAEAV?$allocator@U?$_Tree_node@U?$pair@QEANV?$vector@PEAVConstraint@GCS@@V?$allocator@PEAVConstraint@GCS@@@std@@@std@@@std@@PEAX@std@@@1@PEAU?$_Tree_node@U?$pair@QEANV?$vector@PEAVConstraint@GCS@@V?$allocator@PEAVConstraint@GCS@@@std@@@std@@@std@@PEAX@1@@Z
	??$_Erase_tree@V?$allocator@U?$_Tree_node@U?$pair@QEAVConstraint@GCS@@V?$set@HU?$less@H@std@@V?$allocator@H@2@@std@@@std@@PEAX@std@@@std@@@?$_Tree_val@U?$_Tree_simple_types@U?$pair@QEAVConstraint@GCS@@V?$set@HU?$less@H@std@@V?$allocator@H@2@@std@@@std@@@std@@@std@@QEAAXAEAV?$allocator@U?$_Tree_node@U?$pair@QEAVConstraint@GCS@@V?$set@HU?$less@H@std@@V?$allocator@H@2@@std@@@std@@PEAX@std@@@1@PEAU?$_Tree_node@U?$pair@QEAVConstraint@GCS@@V?$set@HU?$less@H@std@@V?$allocator@H@2@@std@@@std@@PEAX@1@@Z
	??$_Erase_tree@V?$allocator@U?$_Tree_node@U?$pair@QEAVConstraint@GCS@@V?$vector@PEANV?$allocator@PEAN@std@@@std@@@std@@PEAX@std@@@std@@@?$_Tree_val@U?$_Tree_simple_types@U?$pair@QEAVConstraint@GCS@@V?$vector@PEANV?$allocator@PEAN@std@@@std@@@std@@@std@@@std@@QEAAXAEAV?$allocator@U?$_Tree_node@U?$pair@QEAVConstraint@GCS@@V?$vector@PEANV?$allocator@PEAN@std@@@std@@@std@@PEAX@std@@@1@PEAU?$_Tree_node@U?$pair@QEAVConstraint@GCS@@V?$vector@PEANV?$allocator@PEAN@std@@@std@@@std@@PEAX@1@@Z
	??$_Erase_tree@V?$allocator@U?$_Tree_node@U?$pair@QEAVElementMap@Data@@H@std@@PEAX@std@@@std@@@?$_Tree_val@U?$_Tree_simple_types@U?$pair@QEAVElementMap@Data@@H@std@@@std@@@std@@QEAAXAEAV?$allocator@U?$_Tree_node@U?$pair@QEAVElementMap@Data@@H@std@@PEAX@std@@@1@PEAU?$_Tree_node@U?$pair@QEAVElementMap@Data@@H@std@@PEAX@1@@Z
	??$_Erase_tree@V?$allocator@U?$_Tree_node@U?$pair@QEBDUIndexedElements@ElementMap@Data@@@std@@PEAX@std@@@std@@@?$_Tree_val@U?$_Tree_simple_types@U?$pair@QEBDUIndexedElements@ElementMap@Data@@@std@@@std@@@std@@QEAAXAEAV?$allocator@U?$_Tree_node@U?$pair@QEBDUIndexedElements@ElementMap@Data@@@std@@PEAX@std@@@1@PEAU?$_Tree_node@U?$pair@QEBDUIndexedElements@ElementMap@Data@@@std@@PEAX@1@@Z
	??$_Erase_tree@V?$allocator@U?$_Tree_node@U?$pair@QEBVElementMap@Data@@H@std@@PEAX@std@@@std@@@?$_Tree_val@U?$_Tree_simple_types@U?$pair@QEBVElementMap@Data@@H@std@@@std@@@std@@QEAAXAEAV?$allocator@U?$_Tree_node@U?$pair@QEBVElementMap@Data@@H@std@@PEAX@std@@@1@PEAU?$_Tree_node@U?$pair@QEBVElementMap@Data@@H@std@@PEAX@1@@Z
	??$_Erase_tree@V?$allocator@U?$_Tree_node@V?$basic_string@DU?$char_traits@D@std@@V?$allocator@D@2@@std@@PEAX@std@@@std@@@?$_Tree_val@U?$_Tree_simple_types@V?$basic_string@DU?$char_traits@D@std@@V?$allocator@D@2@@std@@@std@@@std@@QEAAXAEAV?$allocator@U?$_Tree_node@V?$basic_string@DU?$char_traits@D@std@@V?$allocator@D@2@@std@@PEAX@std@@@1@PEAU?$_Tree_node@V?$basic_string@DU?$char_traits@D@std@@V?$allocator@D@2@@std@@PEAX@1@@Z
	??$_Erase_tree_and_orphan@V?$allocator@U?$_Tree_node@PEAVConstraint@GCS@@PEAX@std@@@std@@@?$_Tree_val@U?$_Tree_simple_types@PEAVConstraint@GCS@@@std@@@std@@QEAAXAEAV?$allocator@U?$_Tree_node@PEAVConstraint@GCS@@PEAX@std@@@1@PEAU?$_Tree_node@PEAVConstraint@GCS@@PEAX@1@@Z
	??$_Erase_tree_and_orphan@V?$allocator@U?$_Tree_node@U?$pair@$$CBHH@std@@PEAX@std@@@std@@@?$_Tree_val@U?$_Tree_simple_types@U?$pair@$$CBHH@std@@@std@@@std@@QEAAXAEAV?$allocator@U?$_Tree_node@U?$pair@$$CBHH@std@@PEAX@std@@@1@PEAU?$_Tree_node@U?$pair@$$CBHH@std@@PEAX@1@@Z
	??$_Erase_tree_and_orphan@V?$allocator@U?$_Tree_node@U?$pair@$$CBHUMappedChildElements@ElementMap@Data@@@std@@PEAX@std@@@std@@@?$_Tree_val@U?$_Tree_simple_types@U?$pair@$$CBHUMappedChildElements@ElementMap@Data@@@std@@@std@@@std@@QEAAXAEAV?$allocator@U?$_Tree_node@U?$pair@$$CBHUMappedChildElements@ElementMap@Data@@@std@@PEAX@std@@@1@PEAU?$_Tree_node@U?$pair@$$CBHUMappedChildElements@ElementMap@Data@@@std@@PEAX@1@@Z
	??$_Erase_tree_and_orphan@V?$allocator@U?$_Tree_node@U?$pair@$$CBV?$basic_string@DU?$char_traits@D@std@@V?$allocator@D@2@@std@@V?$basic_json@Vmap@std@@Vvector@2@V?$basic_string@DU?$char_traits@D@std@@V?$allocator@D@2@@2@_N_J_KNVallocator@2@Uadl_serializer@json_abi_v3_12_0@nlohmann@@V?$vector@EV?$allocator@E@std@@@2@X@json_abi_v3_12_0@nlohmann@@@std@@PEAX@std@@@std@@@?$_Tree_val@U?$_Tree_simple_types@U?$pair@$$CBV?$basic_string@DU?$char_traits@D@std@@V?$allocator@D@2@@std@@V?$basic_json@Vmap@std@@Vvector@2@V?$basic_string@DU?$char_traits@D@std@@V?$allocator@D@2@@2@_N_J_KNVallocator@2@Uadl_serializer@json_abi_v3_12_0@nlohmann@@V?$vector@EV?$allocator@E@std@@@2@X@json_abi_v3_12_0@nlohmann@@@std@@@std@@@std@@QEAAXAEAV?$allocator@U?$_Tree_node@U?$pair@$$CBV?$basic_string@DU?$char_traits@D@std@@V?$allocator@D@2@@std@@V?$basic_json@Vmap@std@@Vvector@2@V?$basic_string@DU?$char_traits@D@std@@V?$allocator@D@2@@2@_N_J_KNVallocator@2@Uadl_serializer@json_abi_v3_12_0@nlohmann@@V?$vector@EV?$allocator@E@std@@@2@X@json_abi_v3_12_0@nlohmann@@@std@@PEAX@std@@@1@PEAU?$_Tree_node@U?$pair@$$CBV?$basic_string@DU?$char_traits@D@std@@V?$allocator@D@2@@std@@V?$basic_json@Vmap@std@@Vvector@2@V?$basic_string@DU?$char_traits@D@std@@V?$allocator@D@2@@2@_N_J_KNVallocator@2@Uadl_serializer@json_abi_v3_12_0@nlohmann@@V?$vector@EV?$allocator@E@std@@@2@X@json_abi_v3_12_0@nlohmann@@@std@@PEAX@1@@Z
	??$_Erase_tree_and_orphan@V?$allocator@U?$_Tree_node@U?$pair@$$CBV?$basic_string@DU?$char_traits@D@std@@V?$allocator@D@2@@std@@V?$variant@NH_NV?$basic_string@DU?$char_traits@D@std@@V?$allocator@D@2@@std@@Vgp_Vec@@Vgp_Pnt@@Vgp_Dir@@Vgp_Ax1@@Vgp_Ax2@@Vgp_Pln@@UElementRef@oreo@@V?$vector@UElementRef@oreo@@V?$allocator@UElementRef@oreo@@@std@@@2@@2@@std@@PEAX@std@@@std@@@?$_Tree_val@U?$_Tree_simple_types@U?$pair@$$CBV?$basic_string@DU?$char_traits@D@std@@V?$allocator@D@2@@std@@V?$variant@NH_NV?$basic_string@DU?$char_traits@D@std@@V?$allocator@D@2@@std@@Vgp_Vec@@Vgp_Pnt@@Vgp_Dir@@Vgp_Ax1@@Vgp_Ax2@@Vgp_Pln@@UElementRef@oreo@@V?$vector@UElementRef@oreo@@V?$allocator@UElementRef@oreo@@@std@@@2@@2@@std@@@std@@@std@@QEAAXAEAV?$allocator@U?$_Tree_node@U?$pair@$$CBV?$basic_string@DU?$char_traits@D@std@@V?$allocator@D@2@@std@@V?$variant@NH_NV?$basic_string@DU?$char_traits@D@std@@V?$allocator@D@2@@std@@Vgp_Vec@@Vgp_Pnt@@Vgp_Dir@@Vgp_Ax1@@Vgp_Ax2@@Vgp_Pln@@UElementRef@oreo@@V?$vector@UElementRef@oreo@@V?$allocator@UElementRef@oreo@@@std@@@2@@2@@std@@PEAX@std@@@1@PEAU?$_Tree_node@U?$pair@$$CBV?$basic_string@DU?$char_traits@D@std@@V?$allocator@D@2@@std@@V?$variant@NH_NV?$basic_string@DU?$char_traits@D@std@@V?$allocator@D@2@@std@@Vgp_Vec@@Vgp_Pnt@@Vgp_Dir@@Vgp_Ax1@@Vgp_Ax2@@Vgp_Pln@@UElementRef@oreo@@V?$vector@UElementRef@oreo@@V?$allocator@UElementRef@oreo@@@std@@@2@@2@@std@@PEAX@1@@Z
	??$_Erase_tree_and_orphan@V?$allocator@U?$_Tree_node@U?$pair@$$CBVMappedName@Data@@VIndexedName@2@@std@@PEAX@std@@@std@@@?$_Tree_val@U?$_Tree_simple_types@U?$pair@$$CBVMappedName@Data@@VIndexedName@2@@std@@@std@@@std@@QEAAXAEAV?$allocator@U?$_Tree_node@U?$pair@$$CBVMappedName@Data@@VIndexedName@2@@std@@PEAX@std@@@1@PEAU?$_Tree_node@U?$pair@$$CBVMappedName@Data@@VIndexedName@2@@std@@PEAX@1@@Z
	??$_Erase_tree_and_orphan@V?$allocator@U?$_Tree_node@U?$pair@QEANH@std@@PEAX@std@@@std@@@?$_Tree_val@U?$_Tree_simple_types@U?$pair@QEANH@std@@@std@@@std@@QEAAXAEAV?$allocator@U?$_Tree_node@U?$pair@QEANH@std@@PEAX@std@@@1@PEAU?$_Tree_node@U?$pair@QEANH@std@@PEAX@1@@Z
	??$_Erase_tree_and_orphan@V?$allocator@U?$_Tree_node@U?$pair@QEANPEAN@std@@PEAX@std@@@std@@@?$_Tree_val@U?$_Tree_simple_types@U?$pair@QEANPEAN@std@@@std@@@std@@QEAAXAEAV?$allocator@U?$_Tree_node@U?$pair@QEANPEAN@std@@PEAX@std@@@1@PEAU?$_Tree_node@U?$pair@QEANPEAN@std@@PEAX@1@@Z
	??$_Erase_tree_and_orphan@V?$allocator@U?$_Tree_node@U?$pair@QEANV?$vector@PEAVConstraint@GCS@@V?$allocator@PEAVConstraint@GCS@@@std@@@std@@@std@@PEAX@std@@@std@@@?$_Tree_val@U?$_Tree_simple_types@U?$pair@QEANV?$vector@PEAVConstraint@GCS@@V?$allocator@PEAVConstraint@GCS@@@std@@@std@@@std@@@std@@@std@@QEAAXAEAV?$allocator@U?$_Tree_node@U?$pair@QEANV?$vector@PEAVConstraint@GCS@@V?$allocator@PEAVConstraint@GCS@@@std@@@std@@@std@@PEAX@std@@@1@PEAU?$_Tree_node@U?$pair@QEANV?$vector@PEAVConstraint@GCS@@V?$allocator@PEAVConstraint@GCS@@@std@@@std@@@std@@PEAX@1@@Z
	??$_Erase_tree_and_orphan@V?$allocator@U?$_Tree_node@U?$pair@QEAVConstraint@GCS@@V?$vector@PEANV?$allocator@PEAN@std@@@std@@@std@@PEAX@std@@@std@@@?$_Tree_val@U?$_Tree_simple_types@U?$pair@QEAVConstraint@GCS@@V?$vector@PEANV?$allocator@PEAN@std@@@std@@@std@@@std@@@std@@QEAAXAEAV?$allocator@U?$_Tree_node@U?$pair@QEAVConstraint@GCS@@V?$vector@PEANV?$allocator@PEAN@std@@@std@@@std@@PEAX@std@@@1@PEAU?$_Tree_node@U?$pair@QEAVConstraint@GCS@@V?$vector@PEANV?$allocator@PEAN@std@@@std@@@std@@PEAX@1@@Z
	??$_Erase_tree_and_orphan@V?$allocator@U?$_Tree_node@U?$pair@QEAVElementMap@Data@@H@std@@PEAX@std@@@std@@@?$_Tree_val@U?$_Tree_simple_types@U?$pair@QEAVElementMap@Data@@H@std@@@std@@@std@@QEAAXAEAV?$allocator@U?$_Tree_node@U?$pair@QEAVElementMap@Data@@H@std@@PEAX@std@@@1@PEAU?$_Tree_node@U?$pair@QEAVElementMap@Data@@H@std@@PEAX@1@@Z
	??$_Erase_tree_and_orphan@V?$allocator@U?$_Tree_node@U?$pair@QEBDUIndexedElements@ElementMap@Data@@@std@@PEAX@std@@@std@@@?$_Tree_val@U?$_Tree_simple_types@U?$pair@QEBDUIndexedElements@ElementMap@Data@@@std@@@std@@@std@@QEAAXAEAV?$allocator@U?$_Tree_node@U?$pair@QEBDUIndexedElements@ElementMap@Data@@@std@@PEAX@std@@@1@PEAU?$_Tree_node@U?$pair@QEBDUIndexedElements@ElementMap@Data@@@std@@PEAX@1@@Z
	??$_Fill_zero_memset@PEAH@std@@YAXPEAH_K@Z
	??$_Fill_zero_memset@PEAI@std@@YAXPEAI_K@Z
	??$_Fill_zero_memset@PEAN@std@@YAXPEAN_K@Z
	??$_Find@V?$basic_string@DU?$char_traits@D@std@@V?$allocator@D@2@@std@@@?$_Tree@V?$_Tmap_traits@V?$basic_string@DU?$char_traits@D@std@@V?$allocator@D@2@@std@@VNamedShape@oreo@@U?$less@V?$basic_string@DU?$char_traits@D@std@@V?$allocator@D@2@@std@@@2@V?$allocator@U?$pair@$$CBV?$basic_string@DU?$char_traits@D@std@@V?$allocator@D@2@@std@@VNamedShape@oreo@@@std@@@2@$0A@@std@@@std@@AEBAPEAU?$_Tree_node@U?$pair@$$CBV?$basic_string@DU?$char_traits@D@std@@V?$allocator@D@2@@std@@VNamedShape@oreo@@@std@@PEAX@1@AEBV?$basic_string@DU?$char_traits@D@std@@V?$allocator@D@2@@1@@Z
	??$_Find@VMappedName@Data@@@?$_Tree@V?$_Tmap_traits@VMappedName@Data@@VIndexedName@2@U?$less@X@std@@V?$allocator@U?$pair@$$CBVMappedName@Data@@VIndexedName@2@@std@@@5@$0A@@std@@@std@@AEBAPEAU?$_Tree_node@U?$pair@$$CBVMappedName@Data@@VIndexedName@2@@std@@PEAX@1@AEBVMappedName@Data@@@Z
	??$_Find_end_vectorized@$$CBD$$CBD@std@@YAPEBDQEBD00_K@Z
	??$_Find_hint@J@?$_Tree@V?$_Tmap_traits@JVStringIDRef@App@@U?$less@J@std@@V?$allocator@U?$pair@$$CBJVStringIDRef@App@@@std@@@4@$0A@@std@@@std@@IEBA?AU?$_Tree_find_hint_result@PEAU?$_Tree_node@U?$pair@$$CBJVStringIDRef@App@@@std@@PEAX@std@@@1@QEAU?$_Tree_node@U?$pair@$$CBJVStringIDRef@App@@@std@@PEAX@1@AEBJ@Z
	??$_Find_hint@PEAN@?$_Tree@V?$_Tset_traits@PEANU?$less@PEAN@std@@V?$allocator@PEAN@2@$0A@@std@@@std@@IEBA?AU?$_Tree_find_hint_result@PEAU?$_Tree_node@PEANPEAX@std@@@1@QEAU?$_Tree_node@PEANPEAX@1@AEBQEAN@Z
	??$_Find_last@UByteArray@Data@@@?$_Hash@V?$_Uset_traits@UByteArray@Data@@V?$_Uhash_compare@UByteArray@Data@@UByteArrayHasher@2@U?$equal_to@UByteArray@Data@@@std@@@std@@V?$allocator@UByteArray@Data@@@4@$0A@@std@@@std@@IEBA?AU?$_Hash_find_last_result@PEAU?$_List_node@UByteArray@Data@@PEAX@std@@@1@AEBUByteArray@Data@@_K@Z
	??$_Find_last@V?$basic_string@DU?$char_traits@D@std@@V?$allocator@D@2@@std@@@?$_Hash@V?$_Umap_traits@V?$basic_string@DU?$char_traits@D@std@@V?$allocator@D@2@@std@@HV?$_Uhash_compare@V?$basic_string@DU?$char_traits@D@std@@V?$allocator@D@2@@std@@U?$hash@V?$basic_string@DU?$char_traits@D@std@@V?$allocator@D@2@@std@@@2@U?$equal_to@V?$basic_string@DU?$char_traits@D@std@@V?$allocator@D@2@@std@@@2@@2@V?$allocator@U?$pair@$$CBV?$basic_string@DU?$char_traits@D@std@@V?$allocator@D@2@@std@@H@std@@@2@$0A@@std@@@std@@IEBA?AU?$_Hash_find_last_result@PEAU?$_List_node@U?$pair@$$CBV?$basic_string@DU?$char_traits@D@std@@V?$allocator@D@2@@std@@H@std@@PEAX@std@@@1@AEBV?$basic_string@DU?$char_traits@D@std@@V?$allocator@D@2@@1@_K@Z
	??$_Find_lower_bound@V?$basic_string@DU?$char_traits@D@std@@V?$allocator@D@2@@std@@@?$_Tree@V?$_Tmap_traits@V?$basic_string@DU?$char_traits@D@std@@V?$allocator@D@2@@std@@USchemaVersion@oreo@@U?$less@V?$basic_string@DU?$char_traits@D@std@@V?$allocator@D@2@@std@@@2@V?$allocator@U?$pair@$$CBV?$basic_string@DU?$char_traits@D@std@@V?$allocator@D@2@@std@@USchemaVersion@oreo@@@std@@@2@$0A@@std@@@std@@IEBA?AU?$_Tree_find_result@PEAU?$_Tree_node@U?$pair@$$CBV?$basic_string@DU?$char_traits@D@std@@V?$allocator@D@2@@std@@USchemaVersion@oreo@@@std@@PEAX@std@@@1@AEBV?$basic_string@DU?$char_traits@D@std@@V?$allocator@D@2@@1@@Z
	??$_Find_lower_bound@V?$basic_string@DU?$char_traits@D@std@@V?$allocator@D@2@@std@@@?$_Tree@V?$_Tmap_traits@V?$basic_string@DU?$char_traits@D@std@@V?$allocator@D@2@@std@@V?$basic_json@Vmap@std@@Vvector@2@V?$basic_string@DU?$char_traits@D@std@@V?$allocator@D@2@@2@_N_J_KNVallocator@2@Uadl_serializer@json_abi_v3_12_0@nlohmann@@V?$vector@EV?$allocator@E@std@@@2@X@json_abi_v3_12_0@nlohmann@@U?$less@X@2@V?$allocator@U?$pair@$$CBV?$basic_string@DU?$char_traits@D@std@@V?$allocator@D@2@@std@@V?$basic_json@Vmap@std@@Vvector@2@V?$basic_string@DU?$char_traits@D@std@@V?$allocator@D@2@@2@_N_J_KNVallocator@2@Uadl_serializer@json_abi_v3_12_0@nlohmann@@V?$vector@EV?$allocator@E@std@@@2@X@json_abi_v3_12_0@nlohmann@@@std@@@2@$0A@@std@@@std@@IEBA?AU?$_Tree_find_result@PEAU?$_Tree_node@U?$pair@$$CBV?$basic_string@DU?$char_traits@D@std@@V?$allocator@D@2@@std@@V?$basic_json@Vmap@std@@Vvector@2@V?$basic_string@DU?$char_traits@D@std@@V?$allocator@D@2@@2@_N_J_KNVallocator@2@Uadl_serializer@json_abi_v3_12_0@nlohmann@@V?$vector@EV?$allocator@E@std@@@2@X@json_abi_v3_12_0@nlohmann@@@std@@PEAX@std@@@1@AEBV?$basic_string@DU?$char_traits@D@std@@V?$allocator@D@2@@1@@Z
	??$_Find_lower_bound@V?$basic_string@DU?$char_traits@D@std@@V?$allocator@D@2@@std@@@?$_Tree@V?$_Tmap_traits@V?$basic_string@DU?$char_traits@D@std@@V?$allocator@D@2@@std@@V?$variant@NH_NV?$basic_string@DU?$char_traits@D@std@@V?$allocator@D@2@@std@@Vgp_Vec@@Vgp_Pnt@@Vgp_Dir@@Vgp_Ax1@@Vgp_Ax2@@Vgp_Pln@@UElementRef@oreo@@V?$vector@UElementRef@oreo@@V?$allocator@UElementRef@oreo@@@std@@@2@@2@U?$less@V?$basic_string@DU?$char_traits@D@std@@V?$allocator@D@2@@std@@@2@V?$allocator@U?$pair@$$CBV?$basic_string@DU?$char_traits@D@std@@V?$allocator@D@2@@std@@V?$variant@NH_NV?$basic_string@DU?$char_traits@D@std@@V?$allocator@D@2@@std@@Vgp_Vec@@Vgp_Pnt@@Vgp_Dir@@Vgp_Ax1@@Vgp_Ax2@@Vgp_Pln@@UElementRef@oreo@@V?$vector@UElementRef@oreo@@V?$allocator@UElementRef@oreo@@@std@@@2@@2@@std@@@2@$0A@@std@@@std@@IEBA?AU?$_Tree_find_result@PEAU?$_Tree_node@U?$pair@$$CBV?$basic_string@DU?$char_traits@D@std@@V?$allocator@D@2@@std@@V?$variant@NH_NV?$basic_string@DU?$char_traits@D@std@@V?$allocator@D@2@@std@@Vgp_Vec@@Vgp_Pnt@@Vgp_Dir@@Vgp_Ax1@@Vgp_Ax2@@Vgp_Pln@@UElementRef@oreo@@V?$vector@UElementRef@oreo@@V?$allocator@UElementRef@oreo@@@std@@@2@@2@@std@@PEAX@std@@@1@AEBV?$basic_string@DU?$char_traits@D@std@@V?$allocator@D@2@@1@@Z
	??$_Find_lower_bound@V?$basic_string@DU?$char_traits@D@std@@V?$allocator@D@2@@std@@@?$_Tree@V?$_Tmap_traits@V?$basic_string@DU?$char_traits@D@std@@V?$allocator@D@2@@std@@VNamedShape@oreo@@U?$less@V?$basic_string@DU?$char_traits@D@std@@V?$allocator@D@2@@std@@@2@V?$allocator@U?$pair@$$CBV?$basic_string@DU?$char_traits@D@std@@V?$allocator@D@2@@std@@VNamedShape@oreo@@@std@@@2@$0A@@std@@@std@@IEBA?AU?$_Tree_find_result@PEAU?$_Tree_node@U?$pair@$$CBV?$basic_string@DU?$char_traits@D@std@@V?$allocator@D@2@@std@@VNamedShape@oreo@@@std@@PEAX@std@@@1@AEBV?$basic_string@DU?$char_traits@D@std@@V?$allocator@D@2@@1@@Z
	??$_Find_lower_bound@VIndexedName@oreo@@@?$_Tree@V?$_Tmap_traits@VIndexedName@oreo@@VMappedName@2@U?$less@VIndexedName@oreo@@@std@@V?$allocator@U?$pair@$$CBVIndexedName@oreo@@VMappedName@2@@std@@@5@$0A@@std@@@std@@IEBA?AU?$_Tree_find_result@PEAU?$_Tree_node@U?$pair@$$CBVIndexedName@oreo@@VMappedName@2@@std@@PEAX@std@@@1@AEBVIndexedName@oreo@@@Z
	??$_Find_lower_bound@VMappedName@oreo@@@?$_Tree@V?$_Tmap_traits@VMappedName@oreo@@VIndexedName@2@U?$less@VMappedName@oreo@@@std@@V?$allocator@U?$pair@$$CBVMappedName@oreo@@VIndexedName@2@@std@@@5@$0A@@std@@@std@@IEBA?AU?$_Tree_find_result@PEAU?$_Tree_node@U?$pair@$$CBVMappedName@oreo@@VIndexedName@2@@std@@PEAX@std@@@1@AEBVMappedName@oreo@@@Z
	??$_Find_lower_bound@VQByteArray@@@?$_Tree@V?$_Tmap_traits@VQByteArray@@HU?$less@VQByteArray@@@std@@V?$allocator@U?$pair@$$CBVQByteArray@@H@std@@@3@$0A@@std@@@std@@IEBA?AU?$_Tree_find_result@PEAU?$_Tree_node@U?$pair@$$CBVQByteArray@@H@std@@PEAX@std@@@1@AEBVQByteArray@@@Z
	??$_Find_vectorized@PEANPEAN@std@@YAPEAPEANQEAPEAN0QEAN@Z
	??$_Find_vectorized@PEAVConstraint@GCS@@PEAV12@@std@@YAPEAPEAVConstraint@GCS@@QEAPEAV12@0QEAV12@@Z
	??$_Fnv1a_append_value@I@std@@YA_K_KAEBI@Z
	??$_Fnv1a_append_value@PEBVElementMap@Data@@@std@@YA_K_KAEBQEBVElementMap@Data@@@Z
	??$_Free_non_head@V?$allocator@U?$_List_node@U?$pair@$$CBIV?$shared_ptr@VElementMap@Data@@@std@@@std@@PEAX@std@@@std@@@?$_List_node@U?$pair@$$CBIV?$shared_ptr@VElementMap@Data@@@std@@@std@@PEAX@std@@SAXAEAV?$allocator@U?$_List_node@U?$pair@$$CBIV?$shared_ptr@VElementMap@Data@@@std@@@std@@PEAX@std@@@1@PEAU01@@Z
	??$_Free_non_head@V?$allocator@U?$_List_node@U?$pair@$$CBV?$basic_string@DU?$char_traits@D@std@@V?$allocator@D@2@@std@@H@std@@PEAX@std@@@std@@@?$_List_node@U?$pair@$$CBV?$basic_string@DU?$char_traits@D@std@@V?$allocator@D@2@@std@@H@std@@PEAX@std@@SAXAEAV?$allocator@U?$_List_node@U?$pair@$$CBV?$basic_string@DU?$char_traits@D@std@@V?$allocator@D@2@@std@@H@std@@PEAX@std@@@1@PEAU01@@Z
	??$_Freenode@V?$allocator@U?$_List_node@U?$pair@$$CBV?$basic_string@DU?$char_traits@D@std@@V?$allocator@D@2@@std@@H@std@@PEAX@std@@@std@@@?$_List_node@U?$pair@$$CBV?$basic_string@DU?$char_traits@D@std@@V?$allocator@D@2@@std@@H@std@@PEAX@std@@SAXAEAV?$allocator@U?$_List_node@U?$pair@$$CBV?$basic_string@DU?$char_traits@D@std@@V?$allocator@D@2@@std@@H@std@@PEAX@std@@@1@PEAU01@@Z
	??$_Freenode@V?$allocator@U?$_Tree_node@U?$pair@$$CBV?$basic_string@DU?$char_traits@D@std@@V?$allocator@D@2@@std@@_N@std@@PEAX@std@@@std@@@?$_Tree_node@U?$pair@$$CBV?$basic_string@DU?$char_traits@D@std@@V?$allocator@D@2@@std@@_N@std@@PEAX@std@@SAXAEAV?$allocator@U?$_Tree_node@U?$pair@$$CBV?$basic_string@DU?$char_traits@D@std@@V?$allocator@D@2@@std@@_N@std@@PEAX@std@@@1@PEAU01@@Z
	??$_Freenode@V?$allocator@U?$_Tree_node@U?$pair@QEAVConstraint@GCS@@V?$vector@PEANV?$allocator@PEAN@std@@@std@@@std@@PEAX@std@@@std@@@?$_Tree_node@U?$pair@QEAVConstraint@GCS@@V?$vector@PEANV?$allocator@PEAN@std@@@std@@@std@@PEAX@std@@SAXAEAV?$allocator@U?$_Tree_node@U?$pair@QEAVConstraint@GCS@@V?$vector@PEANV?$allocator@PEAN@std@@@std@@@std@@PEAX@std@@@1@PEAU01@@Z
	??$_Get_associated_state@XV?$_Fake_no_copy_callable_adapter@P8System@GCS@@EAAXAEBV?$Matrix@N$0?0$0?0$0A@$0?0$0?0@Eigen@@AEBV?$map@HHU?$less@H@std@@V?$allocator@U?$pair@$$CBHH@std@@@2@@std@@AEBV?$vector@PEANV?$allocator@PEAN@std@@@6@_N@ZPEAV12@AEAV34@AEAV56@AEAV76@_N@std@@@std@@YAPEAV?$_Associated_state@H@0@W4launch@0@$$QEAV?$_Fake_no_copy_callable_adapter@P8System@GCS@@EAAXAEBV?$Matrix@N$0?0$0?0$0A@$0?0$0?0@Eigen@@AEBV?$map@HHU?$less@H@std@@V?$allocator@U?$pair@$$CBHH@std@@@2@@std@@AEBV?$vector@PEANV?$allocator@PEAN@std@@@6@_N@ZPEAV12@AEAV34@AEAV56@AEAV76@_N@0@@Z
	??$_Getvals@_W@?$time_get@DV?$istreambuf_iterator@DU?$char_traits@D@std@@@std@@@std@@IEAAX_WAEBV_Locinfo@1@@Z
	??$_Getvals@_W@?$time_get@_WV?$istreambuf_iterator@_WU?$char_traits@_W@std@@@std@@@std@@IEAAX_WAEBV_Locinfo@1@@Z
	??$_Global_new@V?$_Func_impl_no_alloc@V<lambda_1>@?1??_MakeVoidToUnitFunc@details@Concurrency@@YA?AV?$function@$$A6AEXZ@std@@AEBV?$function@$$A6AXXZ@6@@Z@E$$V@std@@AEBV<lambda_1>@?1??_MakeVoidToUnitFunc@details@Concurrency@@YA?AV?$function@$$A6AEXZ@2@AEBV?$function@$$A6AXXZ@2@@Z@@std@@YAPEAV?$_Func_impl_no_alloc@V<lambda_1>@?1??_MakeVoidToUnitFunc@details@Concurrency@@YA?AV?$function@$$A6AEXZ@std@@AEBV?$function@$$A6AXXZ@6@@Z@E$$V@0@AEBV<lambda_1>@?1??_MakeVoidToUnitFunc@details@Concurrency@@YA?AV?$function@$$A6AEXZ@0@AEBV?$function@$$A6AXXZ@0@@Z@@Z
	??$_Global_new@V?$_Func_impl_no_alloc@V<lambda_1>@?1??_MakeVoidToUnitFunc@details@Concurrency@@YA?AV?$function@$$A6AEXZ@std@@AEBV?$function@$$A6AXXZ@6@@Z@E$$V@std@@V<lambda_1>@?1??_MakeVoidToUnitFunc@details@Concurrency@@YA?AV?$function@$$A6AEXZ@2@AEBV?$function@$$A6AXXZ@2@@Z@@std@@YAPEAV?$_Func_impl_no_alloc@V<lambda_1>@?1??_MakeVoidToUnitFunc@details@Concurrency@@YA?AV?$function@$$A6AEXZ@std@@AEBV?$function@$$A6AXXZ@6@@Z@E$$V@0@$$QEAV<lambda_1>@?1??_MakeVoidToUnitFunc@details@Concurrency@@YA?AV?$function@$$A6AEXZ@0@AEBV?$function@$$A6AXXZ@0@@Z@@Z
	??$_Global_new@V?$_Func_impl_no_alloc@V?$_Fake_no_copy_callable_adapter@P8System@GCS@@EAAXAEBV?$Matrix@N$0?0$0?0$0A@$0?0$0?0@Eigen@@AEBV?$map@HHU?$less@H@std@@V?$allocator@U?$pair@$$CBHH@std@@@2@@std@@AEBV?$vector@PEANV?$allocator@PEAN@std@@@6@_N@ZPEAV12@AEAV34@AEAV56@AEAV76@_N@std@@X$$V@std@@AEBV?$_Fake_no_copy_callable_adapter@P8System@GCS@@EAAXAEBV?$Matrix@N$0?0$0?0$0A@$0?0$0?0@Eigen@@AEBV?$map@HHU?$less@H@std@@V?$allocator@U?$pair@$$CBHH@std@@@2@@std@@AEBV?$vector@PEANV?$allocator@PEAN@std@@@6@_N@ZPEAV12@AEAV34@AEAV56@AEAV76@_N@2@@std@@YAPEAV?$_Func_impl_no_alloc@V?$_Fake_no_copy_callable_adapter@P8System@GCS@@EAAXAEBV?$Matrix@N$0?0$0?0$0A@$0?0$0?0@Eigen@@AEBV?$map@HHU?$less@H@std@@V?$allocator@U?$pair@$$CBHH@std@@@2@@std@@AEBV?$vector@PEANV?$allocator@PEAN@std@@@6@_N@ZPEAV12@AEAV34@AEAV56@AEAV76@_N@std@@X$$V@0@AEBV?$_Fake_no_copy_callable_adapter@P8System@GCS@@EAAXAEBV?$Matrix@N$0?0$0?0$0A@$0?0$0?0@Eigen@@AEBV?$map@HHU?$less@H@std@@V?$allocator@U?$pair@$$CBHH@std@@@2@@std@@AEBV?$vector@PEANV?$allocator@PEAN@std@@@6@_N@ZPEAV12@AEAV34@AEAV56@AEAV76@_N@0@@Z
	??$_Global_new@V?$_Func_impl_no_alloc@V?$_Fake_no_copy_callable_adapter@P8System@GCS@@EAAXAEBV?$Matrix@N$0?0$0?0$0A@$0?0$0?0@Eigen@@AEBV?$map@HHU?$less@H@std@@V?$allocator@U?$pair@$$CBHH@std@@@2@@std@@AEBV?$vector@PEANV?$allocator@PEAN@std@@@6@_N@ZPEAV12@AEAV34@AEAV56@AEAV76@_N@std@@X$$V@std@@V?$_Fake_no_copy_callable_adapter@P8System@GCS@@EAAXAEBV?$Matrix@N$0?0$0?0$0A@$0?0$0?0@Eigen@@AEBV?$map@HHU?$less@H@std@@V?$allocator@U?$pair@$$CBHH@std@@@2@@std@@AEBV?$vector@PEANV?$allocator@PEAN@std@@@6@_N@ZPEAV12@AEAV34@AEAV56@AEAV76@_N@2@@std@@YAPEAV?$_Func_impl_no_alloc@V?$_Fake_no_copy_callable_adapter@P8System@GCS@@EAAXAEBV?$Matrix@N$0?0$0?0$0A@$0?0$0?0@Eigen@@AEBV?$map@HHU?$less@H@std@@V?$allocator@U?$pair@$$CBHH@std@@@2@@std@@AEBV?$vector@PEANV?$allocator@PEAN@std@@@6@_N@ZPEAV12@AEAV34@AEAV56@AEAV76@_N@std@@X$$V@0@$$QEAV?$_Fake_no_copy_callable_adapter@P8System@GCS@@EAAXAEBV?$Matrix@N$0?0$0?0$0A@$0?0$0?0@Eigen@@AEBV?$map@HHU?$less@H@std@@V?$allocator@U?$pair@$$CBHH@std@@@2@@std@@AEBV?$vector@PEANV?$allocator@PEAN@std@@@6@_N@ZPEAV12@AEAV34@AEAV56@AEAV76@_N@0@@Z
	??$_Guess_median_unchecked@PEADU?$less@X@std@@@std@@YAXPEAD00U?$less@X@0@@Z
	??$_Guess_median_unchecked@PEAPEANU?$less@X@std@@@std@@YAXPEAPEAN00U?$less@X@0@@Z
	??$_Hash_array_representation@D@std@@YA_KQEBD_K@Z
	??$_Hash_representation@I@std@@YA_KAEBI@Z
	??$_Hash_representation@PEBVElementMap@Data@@@std@@YA_KAEBQEBVElementMap@Data@@@Z
	??$_Immortalize_memcpy_image@V_Future_error_category2@std@@@std@@YAAEBV_Future_error_category2@0@XZ
	??$_Immortalize_memcpy_image@V_Generic_error_category@std@@@std@@YAAEBV_Generic_error_category@0@XZ
	??$_Immortalize_memcpy_image@V_Iostream_error_category2@std@@@std@@YAAEBV_Iostream_error_category2@0@XZ
	??$_Immortalize_memcpy_image@V_System_error_category@std@@@std@@YAAEBV_System_error_category@0@XZ
	??$_Insert_counted_range@PEAD@?$vector@EV?$allocator@E@std@@@std@@AEAAXV?$_Vector_const_iterator@V?$_Vector_val@U?$_Simple_types@E@std@@@std@@@1@PEAD_K@Z
	??$_Insert_counted_range@PEAE@?$vector@EV?$allocator@E@std@@@std@@AEAAXV?$_Vector_const_iterator@V?$_Vector_val@U?$_Simple_types@E@std@@@std@@@1@PEAE_K@Z
	??$_Insert_counted_range@PEAN@?$vector@NV?$allocator@N@std@@@std@@AEAAXV?$_Vector_const_iterator@V?$_Vector_val@U?$_Simple_types@N@std@@@std@@@1@PEAN_K@Z
	??$_Insert_counted_range@PEAPEAN@?$vector@PEANV?$allocator@PEAN@std@@@std@@AEAAXV?$_Vector_const_iterator@V?$_Vector_val@U?$_Simple_types@PEAN@std@@@std@@@1@PEAPEAN_K@Z
	??$_Insert_counted_range@PEBD@?$vector@EV?$allocator@E@std@@@std@@AEAAXV?$_Vector_const_iterator@V?$_Vector_val@U?$_Simple_types@E@std@@@std@@@1@PEBD_K@Z
	??$_Insert_counted_range@PEBM@?$vector@MV?$allocator@M@std@@@std@@AEAAXV?$_Vector_const_iterator@V?$_Vector_val@U?$_Simple_types@M@std@@@std@@@1@PEBM_K@Z
	??$_Insert_counted_range@PEBUMappedChildElements@ElementMap@Data@@@?$vector@UMappedChildElements@ElementMap@Data@@V?$allocator@UMappedChildElements@ElementMap@Data@@@std@@@std@@AEAAXV?$_Vector_const_iterator@V?$_Vector_val@U?$_Simple_types@UMappedChildElements@ElementMap@Data@@@std@@@std@@@1@PEBUMappedChildElements@ElementMap@Data@@_K@Z
	??$_Insert_string@DU?$char_traits@D@std@@_K@std@@YAAEAV?$basic_ostream@DU?$char_traits@D@std@@@0@AEAV10@QEBD_K@Z
	??$_Insertion_sort_unchecked@Viterator@?$QList@VStringIDRef@App@@@@U?$less@X@std@@@std@@YA?AViterator@?$QList@VStringIDRef@App@@@@V12@0U?$less@X@0@@Z
	??$_Integral_to_string@DH@std@@YA?AV?$basic_string@DU?$char_traits@D@std@@V?$allocator@D@2@@0@H@Z
	??$_Invoke_stored@P8System@GCS@@EAAXAEBV?$Matrix@N$0?0$0?0$0A@$0?0$0?0@Eigen@@AEBV?$map@HHU?$less@H@std@@V?$allocator@U?$pair@$$CBHH@std@@@2@@std@@AEBV?$vector@PEANV?$allocator@PEAN@std@@@6@_N@ZPEAV12@V34@V56@V76@_N@std@@YA?A_T$$QEAV?$tuple@P8System@GCS@@EAAXAEBV?$Matrix@N$0?0$0?0$0A@$0?0$0?0@Eigen@@AEBV?$map@HHU?$less@H@std@@V?$allocator@U?$pair@$$CBHH@std@@@2@@std@@AEBV?$vector@PEANV?$allocator@PEAN@std@@@6@_N@ZPEAV12@V34@V56@V76@_N@0@@Z
	??$_Invoke_stored_explicit@P8System@GCS@@EAAXAEBV?$Matrix@N$0?0$0?0$0A@$0?0$0?0@Eigen@@AEBV?$map@HHU?$less@H@std@@V?$allocator@U?$pair@$$CBHH@std@@@2@@std@@AEBV?$vector@PEANV?$allocator@PEAN@std@@@6@_N@ZPEAV12@V34@V56@V76@_N$$Z$0A@$00$01$02$03$04@std@@YA?A_T$$QEAV?$tuple@P8System@GCS@@EAAXAEBV?$Matrix@N$0?0$0?0$0A@$0?0$0?0@Eigen@@AEBV?$map@HHU?$less@H@std@@V?$allocator@U?$pair@$$CBHH@std@@@2@@std@@AEBV?$vector@PEANV?$allocator@PEAN@std@@@6@_N@ZPEAV12@V34@V56@V76@_N@0@U?$integer_sequence@_K$0A@$00$01$02$03$04@0@@Z
	??$_Is_all_bits_zero@H@std@@YA_NAEBH@Z
	??$_Is_all_bits_zero@I@std@@YA_NAEBI@Z
	??$_Is_all_bits_zero@N@std@@YA_NAEBN@Z
	??$_Med3_unchecked@Viterator@?$QList@VStringIDRef@App@@@@U?$less@X@std@@@std@@YAXViterator@?$QList@VStringIDRef@App@@@@00U?$less@X@0@@Z
	??$_Move_unchecked@PEAEPEAE@std@@YAPEAEPEAE00@Z
	??$_Move_unchecked@PEAMPEAM@std@@YAPEAMPEAM00@Z
	??$_Move_unchecked@PEANPEAN@std@@YAPEANPEAN00@Z
	??$_Move_unchecked@PEAPEANPEAPEAN@std@@YAPEAPEANPEAPEAN00@Z
	??$_Move_unchecked@PEAUMappedChildElements@ElementMap@Data@@PEAU123@@std@@YAPEAUMappedChildElements@ElementMap@Data@@PEAU123@00@Z
	??$_Partition_by_median_guess_unchecked@Viterator@?$QList@VStringIDRef@App@@@@U?$less@X@std@@@std@@YA?AU?$pair@Viterator@?$QList@VStringIDRef@App@@@@V12@@0@Viterator@?$QList@VStringIDRef@App@@@@0U?$less@X@0@@Z
	??$_Pop_heap_hole_by_index@Viterator@?$QList@VStringIDRef@App@@@@VStringIDRef@App@@U?$less@X@std@@@std@@YAXViterator@?$QList@VStringIDRef@App@@@@_J1$$QEAVStringIDRef@App@@U?$less@X@0@@Z
	??$_Reallocate_for@V<lambda_1>@?1??assign@?$basic_string@_WU?$char_traits@_W@std@@V?$allocator@_W@2@@std@@QEAAAEAV34@QEB_W_K@Z@PEB_W@?$basic_string@_WU?$char_traits@_W@std@@V?$allocator@_W@2@@std@@AEAAAEAV01@_KV<lambda_1>@?1??assign@01@QEAAAEAV01@QEB_W0@Z@PEB_W@Z
	??$_Reallocate_grow_by@V<lambda_1>@?1??append@?$basic_string@DU?$char_traits@D@std@@V?$allocator@D@2@@std@@QEAAAEAV34@QEBD_K@Z@PEBD_K@?$basic_string@DU?$char_traits@D@std@@V?$allocator@D@2@@std@@AEAAAEAV01@_KV<lambda_1>@?1??append@01@QEAAAEAV01@QEBD0@Z@PEBD_K@Z
	??$_Reallocate_grow_by@V<lambda_1>@?1??append@?$basic_string@DU?$char_traits@D@std@@V?$allocator@D@2@@std@@QEAAAEAV34@_KD@Z@_KD@?$basic_string@DU?$char_traits@D@std@@V?$allocator@D@2@@std@@AEAAAEAV01@_KV<lambda_1>@?1??append@01@QEAAAEAV01@0D@Z@_KD@Z
	??$_Reallocate_grow_by@V<lambda_1>@?1??append@?$basic_string@_WU?$char_traits@_W@std@@V?$allocator@_W@2@@std@@QEAAAEAV34@QEB_W_K@Z@PEB_W_K@?$basic_string@_WU?$char_traits@_W@std@@V?$allocator@_W@2@@std@@AEAAAEAV01@_KV<lambda_1>@?1??append@01@QEAAAEAV01@QEB_W0@Z@PEB_W_K@Z
	??$_Reallocate_grow_by@V<lambda_1>@?1??append@?$basic_string@_WU?$char_traits@_W@std@@V?$allocator@_W@2@@std@@QEAAAEAV34@_K_W@Z@_K_W@?$basic_string@_WU?$char_traits@_W@std@@V?$allocator@_W@2@@std@@AEAAAEAV01@_KV<lambda_1>@?1??append@01@QEAAAEAV01@0_W@Z@_K_W@Z
	??$_Reallocate_grow_by@V<lambda_1>@?1??insert@?$basic_string@DU?$char_traits@D@std@@V?$allocator@D@2@@std@@QEAAAEAV34@_KQEBD0@Z@_KPEBD_K@?$basic_string@DU?$char_traits@D@std@@V?$allocator@D@2@@std@@AEAAAEAV01@_KV<lambda_1>@?1??insert@01@QEAAAEAV01@0QEBD0@Z@_KPEBD3@Z
	??$_Reallocate_grow_by@V<lambda_1>@?1??push_back@?$basic_string@DU?$char_traits@D@std@@V?$allocator@D@2@@std@@QEAAXD@Z@D@?$basic_string@DU?$char_traits@D@std@@V?$allocator@D@2@@std@@AEAAAEAV01@_KV<lambda_1>@?1??push_back@01@QEAAXD@Z@D@Z
	??$_Reallocate_grow_by@V<lambda_1>@?1??push_back@?$basic_string@_WU?$char_traits@_W@std@@V?$allocator@_W@2@@std@@QEAAX_W@Z@_W@?$basic_string@_WU?$char_traits@_W@std@@V?$allocator@_W@2@@std@@AEAAAEAV01@_KV<lambda_1>@?1??push_back@01@QEAAX_W@Z@_W@Z
	??$_Reallocate_grow_by@V<lambda_1>@?4???$_Resize_and_overwrite@V<lambda_1>@?4???Kfilesystem@std@@YA?AVpath@23@AEBV423@0@Z@@?$basic_string@_WU?$char_traits@_W@std@@V?$allocator@_W@2@@std@@QEAAX_KV1?4???Kfilesystem@3@YA?AVpath@43@AEBV543@1@Z@@Z@$$V@?$basic_string@_WU?$char_traits@_W@std@@V?$allocator@_W@2@@std@@AEAAAEAV01@_KV<lambda_1>@?4???$_Resize_and_overwrite@V<lambda_1>@?4???Kfilesystem@std@@YA?AVpath@23@AEBV423@0@Z@@01@QEAAX0V2?4???Kfilesystem@1@YA?AVpath@31@AEBV431@1@Z@@Z@@Z
	??$_Reallocate_grow_by@V<lambda_1>@?L@??reserve@?$basic_string@DU?$char_traits@D@std@@V?$allocator@D@2@@std@@QEAAX_K@Z@$$V@?$basic_string@DU?$char_traits@D@std@@V?$allocator@D@2@@std@@AEAAAEAV01@_KV<lambda_1>@?L@??reserve@01@QEAAX0@Z@@Z
	??$_Resize@U_Value_init_tag@std@@@?$vector@NV?$allocator@N@std@@@std@@AEAAX_KAEBU_Value_init_tag@1@@Z
	??$_Resize@U_Value_init_tag@std@@@?$vector@PEANV?$allocator@PEAN@std@@@std@@AEAAX_KAEBU_Value_init_tag@1@@Z
	??$_Resize@U_Value_init_tag@std@@@?$vector@Ustored_vertex@config@?$adj_list_gen@V?$adjacency_list@UvecS@boost@@U12@UundirectedS@2@Uno_property@2@U42@U42@UlistS@2@@boost@@UvecS@2@U32@UundirectedS@2@Uno_property@2@U52@U52@UlistS@2@@detail@boost@@V?$allocator@Ustored_vertex@config@?$adj_list_gen@V?$adjacency_list@UvecS@boost@@U12@UundirectedS@2@Uno_property@2@U42@U42@UlistS@2@@boost@@UvecS@2@U32@UundirectedS@2@Uno_property@2@U52@U52@UlistS@2@@detail@boost@@@std@@@std@@AEAAX_KAEBU_Value_init_tag@1@@Z
	??$_Resize_reallocate@I@?$vector@IV?$allocator@I@std@@@std@@AEAAX_KAEBI@Z
	??$_Resize_reallocate@U_Value_init_tag@std@@@?$vector@HV?$allocator@H@std@@@std@@AEAAX_KAEBU_Value_init_tag@1@@Z
	??$_Resize_reallocate@U_Value_init_tag@std@@@?$vector@NV?$allocator@N@std@@@std@@AEAAX_KAEBU_Value_init_tag@1@@Z
	??$_Resize_reallocate@U_Value_init_tag@std@@@?$vector@V?$map@PEANPEANU?$less@PEAN@std@@V?$allocator@U?$pair@QEANPEAN@std@@@2@@std@@V?$allocator@V?$map@PEANPEANU?$less@PEAN@std@@V?$allocator@U?$pair@QEANPEAN@std@@@2@@std@@@2@@std@@AEAAX_KAEBU_Value_init_tag@1@@Z
	??$_Resize_reallocate@U_Value_init_tag@std@@@?$vector@V?$vector@PEANV?$allocator@PEAN@std@@@std@@V?$allocator@V?$vector@PEANV?$allocator@PEAN@std@@@std@@@2@@std@@AEAAX_KAEBU_Value_init_tag@1@@Z
	??$_Resize_reallocate@U_Value_init_tag@std@@@?$vector@V?$vector@PEAVConstraint@GCS@@V?$allocator@PEAVConstraint@GCS@@@std@@@std@@V?$allocator@V?$vector@PEAVConstraint@GCS@@V?$allocator@PEAVConstraint@GCS@@@std@@@std@@@2@@std@@AEAAX_KAEBU_Value_init_tag@1@@Z
	??$_Resize_reallocate@U_Value_init_tag@std@@@?$vector@Vgp_Vec@@V?$allocator@Vgp_Vec@@@std@@@std@@AEAAX_KAEBU_Value_init_tag@1@@Z
	??$_Search_vectorized@$$CBD$$CBD@std@@YAPEBDQEBD00_K@Z
	??$_Sort_unchecked@PEADU?$less@X@std@@@std@@YAXPEAD0_JU?$less@X@0@@Z
	??$_Sort_unchecked@PEAPEANU?$less@X@std@@@std@@YAXPEAPEAN0_JU?$less@X@0@@Z
	??$_Sort_unchecked@Viterator@?$QList@VStringIDRef@App@@@@U?$less@X@std@@@std@@YAXViterator@?$QList@VStringIDRef@App@@@@0_JU?$less@X@0@@Z
	??$_Stringoid_from_Source@DU?$char_traits@D@std@@V?$allocator@D@2@@filesystem@std@@YA?A_PAEBV?$basic_string@DU?$char_traits@D@std@@V?$allocator@D@2@@1@@Z
	??$_Test_callable@V<lambda_1>@?1???$?0V?$_Fake_no_copy_callable_adapter@P8System@GCS@@EAAXAEBV?$Matrix@N$0?0$0?0$0A@$0?0$0?0@Eigen@@AEBV?$map@HHU?$less@H@std@@V?$allocator@U?$pair@$$CBHH@std@@@2@@std@@AEBV?$vector@PEANV?$allocator@PEAN@std@@@6@_N@ZPEAV12@AEAV34@AEAV56@AEAV76@_N@std@@@?$_Task_async_state@X@std@@QEAA@$$QEAV?$_Fake_no_copy_callable_adapter@P8System@GCS@@EAAXAEBV?$Matrix@N$0?0$0?0$0A@$0?0$0?0@Eigen@@AEBV?$map@HHU?$less@H@std@@V?$allocator@U?$pair@$$CBHH@std@@@2@@std@@AEBV?$vector@PEANV?$allocator@PEAN@std@@@6@_N@ZPEAV12@AEAV34@AEAV56@AEAV76@_N@3@@Z@@std@@YA_NAEBV<lambda_1>@?1???$?0V?$_Fake_no_copy_callable_adapter@P8System@GCS@@EAAXAEBV?$Matrix@N$0?0$0?0$0A@$0?0$0?0@Eigen@@AEBV?$map@HHU?$less@H@std@@V?$allocator@U?$pair@$$CBHH@std@@@2@@std@@AEBV?$vector@PEANV?$allocator@PEAN@std@@@6@_N@ZPEAV12@AEAV34@AEAV56@AEAV76@_N@std@@@?$_Task_async_state@X@0@QEAA@$$QEAV?$_Fake_no_copy_callable_adapter@P8System@GCS@@EAAXAEBV?$Matrix@N$0?0$0?0$0A@$0?0$0?0@Eigen@@AEBV?$map@HHU?$less@H@std@@V?$allocator@U?$pair@$$CBHH@std@@@2@@std@@AEBV?$vector@PEANV?$allocator@PEAN@std@@@6@_N@ZPEAV12@AEAV34@AEAV56@AEAV76@_N@0@@Z@@Z
	??$_Test_callable@V<lambda_1>@?1??_MakeVoidToUnitFunc@details@Concurrency@@YA?AV?$function@$$A6AEXZ@std@@AEBV?$function@$$A6AXXZ@6@@Z@@std@@YA_NAEBV<lambda_1>@?1??_MakeVoidToUnitFunc@details@Concurrency@@YA?AV?$function@$$A6AEXZ@0@AEBV?$function@$$A6AXXZ@0@@Z@@Z
	??$_Test_callable@V<lambda_1>@?4??_ScheduleContinuationTask@_Task_impl_base@details@Concurrency@@QEAAXPEAU_ContinuationTaskHandleBase@45@@Z@@std@@YA_NAEBV<lambda_1>@?4??_ScheduleContinuationTask@_Task_impl_base@details@Concurrency@@QEAAXPEAU_ContinuationTaskHandleBase@45@@Z@@Z
	??$_Test_callable@V<lambda_1>@?7???R1?4??_ScheduleContinuationTask@_Task_impl_base@details@Concurrency@@QEAAXPEAU_ContinuationTaskHandleBase@45@@Z@QEBA@XZ@@std@@YA_NAEBV<lambda_1>@?7???R1?4??_ScheduleContinuationTask@_Task_impl_base@details@Concurrency@@QEAAXPEAU_ContinuationTaskHandleBase@45@@Z@QEBA@XZ@@Z
	??$_Test_callable@V<lambda_1>@?CC@??_CancelAndRunContinuations@?$_Task_impl@E@details@Concurrency@@UEAA_N_N00AEBV?$shared_ptr@U_ExceptionHolder@details@Concurrency@@@std@@@Z@@std@@YA_NAEBV<lambda_1>@?CC@??_CancelAndRunContinuations@?$_Task_impl@E@details@Concurrency@@UEAA_N_N00AEBV?$shared_ptr@U_ExceptionHolder@details@Concurrency@@@0@@Z@@Z
	??$_Test_callable@V?$_Fake_no_copy_callable_adapter@P8System@GCS@@EAAXAEBV?$Matrix@N$0?0$0?0$0A@$0?0$0?0@Eigen@@AEBV?$map@HHU?$less@H@std@@V?$allocator@U?$pair@$$CBHH@std@@@2@@std@@AEBV?$vector@PEANV?$allocator@PEAN@std@@@6@_N@ZPEAV12@AEAV34@AEAV56@AEAV76@_N@std@@@std@@YA_NAEBV?$_Fake_no_copy_callable_adapter@P8System@GCS@@EAAXAEBV?$Matrix@N$0?0$0?0$0A@$0?0$0?0@Eigen@@AEBV?$map@HHU?$less@H@std@@V?$allocator@U?$pair@$$CBHH@std@@@2@@std@@AEBV?$vector@PEANV?$allocator@PEAN@std@@@6@_N@ZPEAV12@AEAV34@AEAV56@AEAV76@_N@0@@Z
	??$_Try_emplace@AEBI$$V@?$_Hash@V?$_Umap_traits@IV?$shared_ptr@VElementMap@Data@@@std@@V?$_Uhash_compare@IU?$hash@I@std@@U?$equal_to@I@2@@2@V?$allocator@U?$pair@$$CBIV?$shared_ptr@VElementMap@Data@@@std@@@std@@@2@$0A@@std@@@std@@IEAA?AU?$pair@PEAU?$_List_node@U?$pair@$$CBIV?$shared_ptr@VElementMap@Data@@@std@@@std@@PEAX@std@@_N@1@AEBI@Z
	??$_Try_emplace@AEBUNameKey@oreo@@$$V@?$map@UNameKey@oreo@@UNameInfo@2@U?$less@UNameKey@oreo@@@std@@V?$allocator@U?$pair@$$CBUNameKey@oreo@@UNameInfo@2@@std@@@5@@std@@AEAA?AU?$pair@PEAU?$_Tree_node@U?$pair@$$CBUNameKey@oreo@@UNameInfo@2@@std@@PEAX@std@@_N@1@AEBUNameKey@oreo@@@Z
	??$_Try_emplace@AEBV?$basic_string@DU?$char_traits@D@std@@V?$allocator@D@2@@std@@$$V@?$_Hash@V?$_Umap_traits@V?$basic_string@DU?$char_traits@D@std@@V?$allocator@D@2@@std@@HV?$_Uhash_compare@V?$basic_string@DU?$char_traits@D@std@@V?$allocator@D@2@@std@@U?$hash@V?$basic_string@DU?$char_traits@D@std@@V?$allocator@D@2@@std@@@2@U?$equal_to@V?$basic_string@DU?$char_traits@D@std@@V?$allocator@D@2@@std@@@2@@2@V?$allocator@U?$pair@$$CBV?$basic_string@DU?$char_traits@D@std@@V?$allocator@D@2@@std@@H@std@@@2@$0A@@std@@@std@@IEAA?AU?$pair@PEAU?$_List_node@U?$pair@$$CBV?$basic_string@DU?$char_traits@D@std@@V?$allocator@D@2@@std@@H@std@@PEAX@std@@_N@1@AEBV?$basic_string@DU?$char_traits@D@std@@V?$allocator@D@2@@1@@Z
	??$_Try_emplace@PEBD$$V@?$map@PEBDUIndexedElements@ElementMap@Data@@UCStringComp@23@V?$allocator@U?$pair@QEBDUIndexedElements@ElementMap@Data@@@std@@@std@@@std@@AEAA?AU?$pair@PEAU?$_Tree_node@U?$pair@QEBDUIndexedElements@ElementMap@Data@@@std@@PEAX@std@@_N@1@$$QEAPEBD@Z
	??$_Try_emplace@PEBVElementMap@Data@@$$V@?$_Hash@V?$_Umap_traits@PEBVElementMap@Data@@IV?$_Uhash_compare@PEBVElementMap@Data@@U?$hash@PEBVElementMap@Data@@@std@@U?$equal_to@PEBVElementMap@Data@@@4@@std@@V?$allocator@U?$pair@QEBVElementMap@Data@@I@std@@@4@$0A@@std@@@std@@IEAA?AU?$pair@PEAU?$_List_node@U?$pair@QEBVElementMap@Data@@I@std@@PEAX@std@@_N@1@$$QEAPEBVElementMap@Data@@@Z
	??$_UIntegral_to_buff@DI@std@@YAPEADPEADI@Z
	??$_UIntegral_to_buff@D_K@std@@YAPEADPEAD_K@Z
	??$_UIntegral_to_string@D_K@std@@YA?AV?$basic_string@DU?$char_traits@D@std@@V?$allocator@D@2@@0@_K@Z
	??$_Unaligned_load@I@filesystem@std@@YAIPEBX@Z
	??$_Uninitialized_copy@PEAV?$map@PEANPEANU?$less@PEAN@std@@V?$allocator@U?$pair@QEANPEAN@std@@@2@@std@@PEAV12@V?$allocator@V?$map@PEANPEANU?$less@PEAN@std@@V?$allocator@U?$pair@QEANPEAN@std@@@2@@std@@@2@@std@@YAPEAV?$map@PEANPEANU?$less@PEAN@std@@V?$allocator@U?$pair@QEANPEAN@std@@@2@@0@PEAV10@00AEAV?$allocator@V?$map@PEANPEANU?$less@PEAN@std@@V?$allocator@U?$pair@QEANPEAN@std@@@2@@std@@@0@@Z
	??$_Uninitialized_copy_n@PEAUElementRef@oreo@@V?$allocator@UElementRef@oreo@@@std@@@std@@YAPEAUElementRef@oreo@@PEAU12@_K0AEAV?$allocator@UElementRef@oreo@@@0@@Z
	??$_Uninitialized_copy_n@PEAV?$map@PEANPEANU?$less@PEAN@std@@V?$allocator@U?$pair@QEANPEAN@std@@@2@@std@@V?$allocator@V?$map@PEANPEANU?$less@PEAN@std@@V?$allocator@U?$pair@QEANPEAN@std@@@2@@std@@@2@@std@@YAPEAV?$map@PEANPEANU?$less@PEAN@std@@V?$allocator@U?$pair@QEANPEAN@std@@@2@@0@PEAV10@_K0AEAV?$allocator@V?$map@PEANPEANU?$less@PEAN@std@@V?$allocator@U?$pair@QEANPEAN@std@@@2@@std@@@0@@Z
	??$_Uninitialized_copy_n@PEAV?$vector@PEANV?$allocator@PEAN@std@@@std@@V?$allocator@V?$vector@PEANV?$allocator@PEAN@std@@@std@@@2@@std@@YAPEAV?$vector@PEANV?$allocator@PEAN@std@@@0@PEAV10@_K0AEAV?$allocator@V?$vector@PEANV?$allocator@PEAN@std@@@std@@@0@@Z
	??$_Uninitialized_copy_n@PEAV?$vector@PEAVConstraint@GCS@@V?$allocator@PEAVConstraint@GCS@@@std@@@std@@V?$allocator@V?$vector@PEAVConstraint@GCS@@V?$allocator@PEAVConstraint@GCS@@@std@@@std@@@2@@std@@YAPEAV?$vector@PEAVConstraint@GCS@@V?$allocator@PEAVConstraint@GCS@@@std@@@0@PEAV10@_K0AEAV?$allocator@V?$vector@PEAVConstraint@GCS@@V?$allocator@PEAVConstraint@GCS@@@std@@@std@@@0@@Z
	??$_Uninitialized_copy_n@PEAVMappedName@Data@@V?$allocator@VMappedName@Data@@@std@@@std@@YAPEAVMappedName@Data@@PEAV12@_K0AEAV?$allocator@VMappedName@Data@@@0@@Z
	??$_Uninitialized_copy_n@PEBUMappedChildElements@ElementMap@Data@@V?$allocator@UMappedChildElements@ElementMap@Data@@@std@@@std@@YAPEAUMappedChildElements@ElementMap@Data@@PEBU123@_KPEAU123@AEAV?$allocator@UMappedChildElements@ElementMap@Data@@@0@@Z
	??$_Uninitialized_fill_n@V?$allocator@N@std@@@std@@YAPEANPEAN_KAEBNAEAV?$allocator@N@0@@Z
	??$_Uninitialized_move@PEAEV?$allocator@E@std@@@std@@YAPEAEQEAE0PEAEAEAV?$allocator@E@0@@Z
	??$_Uninitialized_move@PEAMV?$allocator@M@std@@@std@@YAPEAMQEAM0PEAMAEAV?$allocator@M@0@@Z
	??$_Uninitialized_move@PEANV?$allocator@N@std@@@std@@YAPEANQEAN0PEANAEAV?$allocator@N@0@@Z
	??$_Uninitialized_move@PEAPEANV?$allocator@PEAN@std@@@std@@YAPEAPEANQEAPEAN0PEAPEANAEAV?$allocator@PEAN@0@@Z
	??$_Uninitialized_move@PEAU?$pair@V?$basic_string@DU?$char_traits@D@std@@V?$allocator@D@2@@std@@V12@@std@@V?$allocator@U?$pair@V?$basic_string@DU?$char_traits@D@std@@V?$allocator@D@2@@std@@V12@@std@@@2@@std@@YAPEAU?$pair@V?$basic_string@DU?$char_traits@D@std@@V?$allocator@D@2@@std@@V12@@0@QEAU10@0PEAU10@AEAV?$allocator@U?$pair@V?$basic_string@DU?$char_traits@D@std@@V?$allocator@D@2@@std@@V12@@std@@@0@@Z
	??$_Uninitialized_move@PEAU?$pair@VIndexedName@oreo@@VMappedName@2@@std@@V?$allocator@U?$pair@VIndexedName@oreo@@VMappedName@2@@std@@@2@@std@@YAPEAU?$pair@VIndexedName@oreo@@VMappedName@2@@0@QEAU10@0PEAU10@AEAV?$allocator@U?$pair@VIndexedName@oreo@@VMappedName@2@@std@@@0@@Z
	??$_Uninitialized_move@PEAU?$pair@VMappedName@Data@@V?$QList@VStringIDRef@App@@@@@std@@V?$allocator@U?$pair@VMappedName@Data@@V?$QList@VStringIDRef@App@@@@@std@@@2@@std@@YAPEAU?$pair@VMappedName@Data@@V?$QList@VStringIDRef@App@@@@@0@QEAU10@0PEAU10@AEAV?$allocator@U?$pair@VMappedName@Data@@V?$QList@VStringIDRef@App@@@@@std@@@0@@Z
	??$_Uninitialized_move@PEAU?$pair@_KU?$pair@V?$optional@V?$edge_desc_impl@Uundirected_tag@boost@@_K@detail@boost@@@boost@@U?$pair@U?$out_edge_iter@V?$_Vector_iterator@V?$_Vector_val@U?$_Simple_types@V?$stored_edge_iter@_KV?$_List_iterator@V?$_List_val@U?$_List_simple_types@U?$list_edge@_KUno_property@boost@@@boost@@@std@@@std@@@std@@Uno_property@boost@@@detail@boost@@@std@@@std@@@std@@_KV?$edge_desc_impl@Uundirected_tag@boost@@_K@detail@boost@@_J@detail@boost@@U123@@std@@@std@@@std@@V?$allocator@U?$pair@_KU?$pair@V?$optional@V?$edge_desc_impl@Uundirected_tag@boost@@_K@detail@boost@@@boost@@U?$pair@U?$out_edge_iter@V?$_Vector_iterator@V?$_Vector_val@U?$_Simple_types@V?$stored_edge_iter@_KV?$_List_iterator@V?$_List_val@U?$_List_simple_types@U?$list_edge@_KUno_property@boost@@@boost@@@std@@@std@@@std@@Uno_property@boost@@@detail@boost@@@std@@@std@@@std@@_KV?$edge_desc_impl@Uundirected_tag@boost@@_K@detail@boost@@_J@detail@boost@@U123@@std@@@std@@@std@@@2@@std@@YAPEAU?$pair@_KU?$pair@V?$optional@V?$edge_desc_impl@Uundirected_tag@boost@@_K@detail@boost@@@boost@@U?$pair@U?$out_edge_iter@V?$_Vector_iterator@V?$_Vector_val@U?$_Simple_types@V?$stored_edge_iter@_KV?$_List_iterator@V?$_List_val@U?$_List_simple_types@U?$list_edge@_KUno_property@boost@@@boost@@@std@@@std@@@std@@Uno_property@boost@@@detail@boost@@@std@@@std@@@std@@_KV?$edge_desc_impl@Uundirected_tag@boost@@_K@detail@boost@@_J@detail@boost@@U123@@std@@@std@@@0@QEAU10@0PEAU10@AEAV?$allocator@U?$pair@_KU?$pair@V?$optional@V?$edge_desc_impl@Uundirected_tag@boost@@_K@detail@boost@@@boost@@U?$pair@U?$out_edge_iter@V?$_Vector_iterator@V?$_Vector_val@U?$_Simple_types@V?$stored_edge_iter@_KV?$_List_iterator@V?$_List_val@U?$_List_simple_types@U?$list_edge@_KUno_property@boost@@@boost@@@std@@@std@@@std@@Uno_property@boost@@@detail@boost@@@std@@@std@@@std@@_KV?$edge_desc_impl@Uundirected_tag@boost@@_K@detail@boost@@_J@detail@boost@@U123@@std@@@std@@@std@@@0@@Z
	??$_Uninitialized_move@PEAUChildElementMap@oreo@@V?$allocator@UChildElementMap@oreo@@@std@@@std@@YAPEAUChildElementMap@oreo@@QEAU12@0PEAU12@AEAV?$allocator@UChildElementMap@oreo@@@0@@Z
	??$_Uninitialized_move@PEAUEdgeSegment@oreo@@V?$allocator@UEdgeSegment@oreo@@@std@@@std@@YAPEAUEdgeSegment@oreo@@QEAU12@0PEAU12@AEAV?$allocator@UEdgeSegment@oreo@@@0@@Z
	??$_Uninitialized_move@PEAUElementRef@oreo@@V?$allocator@UElementRef@oreo@@@std@@@std@@YAPEAUElementRef@oreo@@QEAU12@0PEAU12@AEAV?$allocator@UElementRef@oreo@@@0@@Z
	??$_Uninitialized_move@PEAUFaceGroup@oreo@@V?$allocator@UFaceGroup@oreo@@@std@@@std@@YAPEAUFaceGroup@oreo@@QEAU12@0PEAU12@AEAV?$allocator@UFaceGroup@oreo@@@0@@Z
	??$_Uninitialized_move@PEAUFaceMeshDiagnostic@oreo@@V?$allocator@UFaceMeshDiagnostic@oreo@@@std@@@std@@YAPEAUFaceMeshDiagnostic@oreo@@QEAU12@0PEAU12@AEAV?$allocator@UFaceMeshDiagnostic@oreo@@@0@@Z
	??$_Uninitialized_move@PEAUFeature@oreo@@V?$allocator@UFeature@oreo@@@std@@@std@@YAPEAUFeature@oreo@@QEAU12@0PEAU12@AEAV?$allocator@UFeature@oreo@@@0@@Z
	??$_Uninitialized_move@PEAUHistoryTraceItem@oreo@@V?$allocator@UHistoryTraceItem@oreo@@@std@@@std@@YAPEAUHistoryTraceItem@oreo@@QEAU12@0PEAU12@AEAV?$allocator@UHistoryTraceItem@oreo@@@0@@Z
	??$_Uninitialized_move@PEAUMappedChildElements@ElementMap@Data@@V?$allocator@UMappedChildElements@ElementMap@Data@@@std@@@std@@YAPEAUMappedChildElements@ElementMap@Data@@QEAU123@0PEAU123@AEAV?$allocator@UMappedChildElements@ElementMap@Data@@@0@@Z
	??$_Uninitialized_move@PEAUMappedElement@Data@@V?$allocator@UMappedElement@Data@@@std@@@std@@YAPEAUMappedElement@Data@@QEAU12@0PEAU12@AEAV?$allocator@UMappedElement@Data@@@0@@Z
	??$_Uninitialized_move@PEAUNamedEdge@oreo@@V?$allocator@UNamedEdge@oreo@@@std@@@std@@YAPEAUNamedEdge@oreo@@QEAU12@0PEAU12@AEAV?$allocator@UNamedEdge@oreo@@@0@@Z
	??$_Uninitialized_move@PEAUNamedFace@oreo@@V?$allocator@UNamedFace@oreo@@@std@@@std@@YAPEAUNamedFace@oreo@@QEAU12@0PEAU12@AEAV?$allocator@UNamedFace@oreo@@@0@@Z
	??$_Uninitialized_move@PEAUstored_vertex@config@?$adj_list_gen@V?$adjacency_list@UvecS@boost@@U12@UundirectedS@2@Uno_property@2@U42@U42@UlistS@2@@boost@@UvecS@2@U32@UundirectedS@2@Uno_property@2@U52@U52@UlistS@2@@detail@boost@@V?$allocator@Ustored_vertex@config@?$adj_list_gen@V?$adjacency_list@UvecS@boost@@U12@UundirectedS@2@Uno_property@2@U42@U42@UlistS@2@@boost@@UvecS@2@U32@UundirectedS@2@Uno_property@2@U52@U52@UlistS@2@@detail@boost@@@std@@@std@@YAPEAUstored_vertex@config@?$adj_list_gen@V?$adjacency_list@UvecS@boost@@U12@UundirectedS@2@Uno_property@2@U42@U42@UlistS@2@@boost@@UvecS@2@U32@UundirectedS@2@Uno_property@2@U52@U52@UlistS@2@@detail@boost@@QEAU12345@0PEAU12345@AEAV?$allocator@Ustored_vertex@config@?$adj_list_gen@V?$adjacency_list@UvecS@boost@@U12@UundirectedS@2@Uno_property@2@U42@U42@UlistS@2@@boost@@UvecS@2@U32@UundirectedS@2@Uno_property@2@U52@U52@UlistS@2@@detail@boost@@@0@@Z
	??$_Uninitialized_move@PEAV?$basic_string@DU?$char_traits@D@std@@V?$allocator@D@2@@std@@V?$allocator@V?$basic_string@DU?$char_traits@D@std@@V?$allocator@D@2@@std@@@2@@std@@YAPEAV?$basic_string@DU?$char_traits@D@std@@V?$allocator@D@2@@0@QEAV10@0PEAV10@AEAV?$allocator@V?$basic_string@DU?$char_traits@D@std@@V?$allocator@D@2@@std@@@0@@Z
	??$_Uninitialized_move@PEAV?$shared_ptr@VElementMap@Data@@@std@@V?$allocator@V?$shared_ptr@VElementMap@Data@@@std@@@2@@std@@YAPEAV?$shared_ptr@VElementMap@Data@@@0@QEAV10@0PEAV10@AEAV?$allocator@V?$shared_ptr@VElementMap@Data@@@std@@@0@@Z
	??$_Uninitialized_move@PEAV?$vector@PEAVConstraint@GCS@@V?$allocator@PEAVConstraint@GCS@@@std@@@std@@V?$allocator@V?$vector@PEAVConstraint@GCS@@V?$allocator@PEAVConstraint@GCS@@@std@@@std@@@2@@std@@YAPEAV?$vector@PEAVConstraint@GCS@@V?$allocator@PEAVConstraint@GCS@@@std@@@0@QEAV10@0PEAV10@AEAV?$allocator@V?$vector@PEAVConstraint@GCS@@V?$allocator@PEAVConstraint@GCS@@@std@@@std@@@0@@Z
	??$_Uninitialized_move@PEAVArc@GCS@@V?$allocator@VArc@GCS@@@std@@@std@@YAPEAVArc@GCS@@QEAV12@0PEAV12@AEAV?$allocator@VArc@GCS@@@0@@Z
	??$_Uninitialized_move@PEAVMappedName@Data@@V?$allocator@VMappedName@Data@@@std@@@std@@YAPEAVMappedName@Data@@QEAV12@0PEAV12@AEAV?$allocator@VMappedName@Data@@@0@@Z
	??$_Uninitialized_move@PEAVNamedShape@oreo@@V?$allocator@VNamedShape@oreo@@@std@@@std@@YAPEAVNamedShape@oreo@@QEAV12@0PEAV12@AEAV?$allocator@VNamedShape@oreo@@@0@@Z
	??$_Uninitialized_value_construct_n@V?$allocator@V?$map@PEANPEANU?$less@PEAN@std@@V?$allocator@U?$pair@QEANPEAN@std@@@2@@std@@@std@@@std@@YAPEAV?$map@PEANPEANU?$less@PEAN@std@@V?$allocator@U?$pair@QEANPEAN@std@@@2@@0@PEAV10@_KAEAV?$allocator@V?$map@PEANPEANU?$less@PEAN@std@@V?$allocator@U?$pair@QEANPEAN@std@@@2@@std@@@0@@Z
	??$_Uninitialized_value_construct_n_unchecked1@PEAPEAUMappedNameRef@Data@@_K@std@@YAPEAPEAUMappedNameRef@Data@@PEAPEAU12@_K@Z
	??$_Uninitialized_value_construct_n_unchecked1@PEAPEAVStringIDRef@App@@_K@std@@YAPEAPEAVStringIDRef@App@@PEAPEAV12@_K@Z
	??$_ValidateTaskConstructorArgs@XV<lambda_1>@?1???$?0V?$_Fake_no_copy_callable_adapter@P8System@GCS@@EAAXAEBV?$Matrix@N$0?0$0?0$0A@$0?0$0?0@Eigen@@AEBV?$map@HHU?$less@H@std@@V?$allocator@U?$pair@$$CBHH@std@@@2@@std@@AEBV?$vector@PEANV?$allocator@PEAN@std@@@6@_N@ZPEAV12@AEAV34@AEAV56@AEAV76@_N@std@@@?$_Task_async_state@X@std@@QEAA@$$QEAV?$_Fake_no_copy_callable_adapter@P8System@GCS@@EAAXAEBV?$Matrix@N$0?0$0?0$0A@$0?0$0?0@Eigen@@AEBV?$map@HHU?$less@H@std@@V?$allocator@U?$pair@$$CBHH@std@@@2@@std@@AEBV?$vector@PEANV?$allocator@PEAN@std@@@6@_N@ZPEAV12@AEAV34@AEAV56@AEAV76@_N@3@@Z@@details@Concurrency@@YAXAEBV<lambda_1>@?1???$?0V?$_Fake_no_copy_callable_adapter@P8System@GCS@@EAAXAEBV?$Matrix@N$0?0$0?0$0A@$0?0$0?0@Eigen@@AEBV?$map@HHU?$less@H@std@@V?$allocator@U?$pair@$$CBHH@std@@@2@@std@@AEBV?$vector@PEANV?$allocator@PEAN@std@@@6@_N@ZPEAV12@AEAV34@AEAV56@AEAV76@_N@std@@@?$_Task_async_state@X@std@@QEAA@$$QEAV?$_Fake_no_copy_callable_adapter@P8System@GCS@@EAAXAEBV?$Matrix@N$0?0$0?0$0A@$0?0$0?0@Eigen@@AEBV?$map@HHU?$less@H@std@@V?$allocator@U?$pair@$$CBHH@std@@@2@@std@@AEBV?$vector@PEANV?$allocator@PEAN@std@@@6@_N@ZPEAV12@AEAV34@AEAV56@AEAV76@_N@4@@Z@@Z
	??$_Visit@U?$_Variant_assign_visitor@NH_NV?$basic_string@DU?$char_traits@D@std@@V?$allocator@D@2@@std@@Vgp_Vec@@Vgp_Pnt@@Vgp_Dir@@Vgp_Ax1@@Vgp_Ax2@@Vgp_Pln@@UElementRef@oreo@@V?$vector@UElementRef@oreo@@V?$allocator@UElementRef@oreo@@@std@@@2@@std@@AEBV?$_Variant_storage_@$0A@NH_NV?$basic_string@DU?$char_traits@D@std@@V?$allocator@D@2@@std@@Vgp_Vec@@Vgp_Pnt@@Vgp_Dir@@Vgp_Ax1@@Vgp_Ax2@@Vgp_Pln@@UElementRef@oreo@@V?$vector@UElementRef@oreo@@V?$allocator@UElementRef@oreo@@@std@@@2@@2@@?$_Variant_raw_visit1@$01@std@@SAX_K$$QEAU?$_Variant_assign_visitor@NH_NV?$basic_string@DU?$char_traits@D@std@@V?$allocator@D@2@@std@@Vgp_Vec@@Vgp_Pnt@@Vgp_Dir@@Vgp_Ax1@@Vgp_Ax2@@Vgp_Pln@@UElementRef@oreo@@V?$vector@UElementRef@oreo@@V?$allocator@UElementRef@oreo@@@std@@@2@@1@AEBV?$_Variant_storage_@$0A@NH_NV?$basic_string@DU?$char_traits@D@std@@V?$allocator@D@2@@std@@Vgp_Vec@@Vgp_Pnt@@Vgp_Dir@@Vgp_Ax1@@Vgp_Ax2@@Vgp_Pln@@UElementRef@oreo@@V?$vector@UElementRef@oreo@@V?$allocator@UElementRef@oreo@@@std@@@2@@1@@Z
	??$_Visit@U?$_Variant_assign_visitor@NH_NV?$basic_string@DU?$char_traits@D@std@@V?$allocator@D@2@@std@@Vgp_Vec@@Vgp_Pnt@@Vgp_Dir@@Vgp_Ax1@@Vgp_Ax2@@Vgp_Pln@@UElementRef@oreo@@V?$vector@UElementRef@oreo@@V?$allocator@UElementRef@oreo@@@std@@@2@@std@@V?$_Variant_storage_@$0A@NH_NV?$basic_string@DU?$char_traits@D@std@@V?$allocator@D@2@@std@@Vgp_Vec@@Vgp_Pnt@@Vgp_Dir@@Vgp_Ax1@@Vgp_Ax2@@Vgp_Pln@@UElementRef@oreo@@V?$vector@UElementRef@oreo@@V?$allocator@UElementRef@oreo@@@std@@@2@@2@@?$_Variant_raw_visit1@$01@std@@SAX_K$$QEAU?$_Variant_assign_visitor@NH_NV?$basic_string@DU?$char_traits@D@std@@V?$allocator@D@2@@std@@Vgp_Vec@@Vgp_Pnt@@Vgp_Dir@@Vgp_Ax1@@Vgp_Ax2@@Vgp_Pln@@UElementRef@oreo@@V?$vector@UElementRef@oreo@@V?$allocator@UElementRef@oreo@@@std@@@2@@1@$$QEAV?$_Variant_storage_@$0A@NH_NV?$basic_string@DU?$char_traits@D@std@@V?$allocator@D@2@@std@@Vgp_Vec@@Vgp_Pnt@@Vgp_Dir@@Vgp_Ax1@@Vgp_Ax2@@Vgp_Pln@@UElementRef@oreo@@V?$vector@UElementRef@oreo@@V?$allocator@UElementRef@oreo@@@std@@@2@@1@@Z
	??$_Zero_range@PEAE@std@@YAPEAEQEAE0@Z
	??$_Zero_range@PEAH@std@@YAPEAHQEAH0@Z
	??$_Zero_range@PEAN@std@@YAPEANQEAN0@Z
	??$_Zero_range@PEAPEAN@std@@YAPEAPEANQEAPEAN0@Z
	??$_Zero_range@PEAPEAUMappedNameRef@Data@@@std@@YAPEAPEAUMappedNameRef@Data@@QEAPEAU12@0@Z
	??$_Zero_range@PEAPEAVConstraint@GCS@@@std@@YAPEAPEAVConstraint@GCS@@QEAPEAV12@0@Z
	??$_Zero_range@PEAPEAVStringIDRef@App@@@std@@YAPEAPEAVStringIDRef@App@@QEAPEAV12@0@Z
	??$_Zero_range@PEAPEAVSubSystem@GCS@@@std@@YAPEAPEAVSubSystem@GCS@@QEAPEAV12@0@Z
	??$_solve_impl@V?$CwiseUnaryOp@U?$scalar_opposite_op@N@internal@Eigen@@$$CBV?$Matrix@N$0?0$00$0A@$0?0$00@3@@Eigen@@V?$Matrix@N$0?0$00$0A@$0?0$00@2@@?$FullPivLU@V?$Matrix@N$0?0$0?0$0A@$0?0$0?0@Eigen@@H@Eigen@@QEBAXAEBV?$CwiseUnaryOp@U?$scalar_opposite_op@N@internal@Eigen@@$$CBV?$Matrix@N$0?0$00$0A@$0?0$00@3@@1@AEAV?$Matrix@N$0?0$00$0A@$0?0$00@1@@Z
	??$_solve_impl@V?$CwiseUnaryOp@U?$scalar_opposite_op@N@internal@Eigen@@$$CBV?$Matrix@N$0?0$00$0A@$0?0$00@3@@Eigen@@V?$Matrix@N$0?0$00$0A@$0?0$00@2@@?$LDLT@V?$Matrix@N$0?0$0?0$0A@$0?0$0?0@Eigen@@$00@Eigen@@QEBAXAEBV?$CwiseUnaryOp@U?$scalar_opposite_op@N@internal@Eigen@@$$CBV?$Matrix@N$0?0$00$0A@$0?0$00@3@@1@AEAV?$Matrix@N$0?0$00$0A@$0?0$00@1@@Z
	??$_solve_impl@V?$Matrix@N$0?0$00$0A@$0?0$00@Eigen@@V12@@?$ColPivHouseholderQR@V?$Matrix@N$0?0$0?0$0A@$0?0$0?0@Eigen@@H@Eigen@@QEBAXAEBV?$Matrix@N$0?0$00$0A@$0?0$00@1@AEAV21@@Z
	??$_solve_impl@V?$Matrix@N$0?0$00$0A@$0?0$00@Eigen@@V12@@?$FullPivLU@V?$Matrix@N$0?0$0?0$0A@$0?0$0?0@Eigen@@H@Eigen@@QEBAXAEBV?$Matrix@N$0?0$00$0A@$0?0$00@1@AEAV21@@Z
	??$_solve_impl_transposed@$00V?$CwiseUnaryOp@U?$scalar_opposite_op@N@internal@Eigen@@$$CBV?$Matrix@N$0?0$00$0A@$0?0$00@3@@Eigen@@V?$Matrix@N$0?0$00$0A@$0?0$00@2@@?$LDLT@V?$Matrix@N$0?0$0?0$0A@$0?0$0?0@Eigen@@$00@Eigen@@QEBAXAEBV?$CwiseUnaryOp@U?$scalar_opposite_op@N@internal@Eigen@@$$CBV?$Matrix@N$0?0$00$0A@$0?0$00@3@@1@AEAV?$Matrix@N$0?0$00$0A@$0?0$00@1@@Z
	??$add_edge@V?$adjacency_list@UvecS@boost@@U12@UundirectedS@2@Uno_property@2@U42@U42@UlistS@2@@boost@@Uconfig@?$adj_list_gen@V?$adjacency_list@UvecS@boost@@U12@UundirectedS@2@Uno_property@2@U42@U42@UlistS@2@@boost@@UvecS@2@U32@UundirectedS@2@Uno_property@2@U52@U52@UlistS@2@@detail@2@U?$undirected_graph_helper@Uconfig@?$adj_list_gen@V?$adjacency_list@UvecS@boost@@U12@UundirectedS@2@Uno_property@2@U42@U42@UlistS@2@@boost@@UvecS@2@U32@UundirectedS@2@Uno_property@2@U52@U52@UlistS@2@@detail@boost@@@2@@boost@@YA?AU?$pair@V?$edge_desc_impl@Uundirected_tag@boost@@_K@detail@boost@@_N@std@@_K0AEBUno_property@0@AEAV?$vec_adj_list_impl@V?$adjacency_list@UvecS@boost@@U12@UundirectedS@2@Uno_property@2@U42@U42@UlistS@2@@boost@@Uconfig@?$adj_list_gen@V?$adjacency_list@UvecS@boost@@U12@UundirectedS@2@Uno_property@2@U42@U42@UlistS@2@@boost@@UvecS@2@U32@UundirectedS@2@Uno_property@2@U52@U52@UlistS@2@@detail@2@U?$undirected_graph_helper@Uconfig@?$adj_list_gen@V?$adjacency_list@UvecS@boost@@U12@UundirectedS@2@Uno_property@2@U42@U42@UlistS@2@@boost@@UvecS@2@U32@UundirectedS@2@Uno_property@2@U52@U52@UlistS@2@@detail@boost@@@2@@0@@Z
	??$applyHouseholderOnTheLeft@V?$Block@$$CBV?$Matrix@N$0?0$0?0$0A@$0?0$0?0@Eigen@@$0?0$00$0A@@Eigen@@@?$MatrixBase@V?$Block@V?$Matrix@N$0?0$00$0A@$0?0$00@Eigen@@$0?0$00$0A@@Eigen@@@Eigen@@QEAAXAEBV?$Block@$$CBV?$Matrix@N$0?0$0?0$0A@$0?0$0?0@Eigen@@$0?0$00$0A@@1@AEBNPEAN@Z
	??$applyHouseholderOnTheLeft@V?$Block@$$CBV?$Matrix@N$0?0$0?0$0A@$0?0$0?0@Eigen@@$0?0$00$0A@@Eigen@@@?$MatrixBase@V?$Block@V?$Matrix@N$0?0$00$0A@$0?0$00@Eigen@@$0?0$0?0$0A@@Eigen@@@Eigen@@QEAAXAEBV?$Block@$$CBV?$Matrix@N$0?0$0?0$0A@$0?0$0?0@Eigen@@$0?0$00$0A@@1@AEBNPEAN@Z
	??$applyHouseholderOnTheLeft@V?$VectorBlock@$$CBV?$Block@$$CBV?$Matrix@N$0?0$0?0$0A@$0?0$0?0@Eigen@@$0?0$00$00@Eigen@@$0?0@Eigen@@@?$MatrixBase@V?$Block@V?$Matrix@N$0?0$0?0$0A@$0?0$0?0@Eigen@@$0?0$0?0$0A@@Eigen@@@Eigen@@QEAAXAEBV?$VectorBlock@$$CBV?$Block@$$CBV?$Matrix@N$0?0$0?0$0A@$0?0$0?0@Eigen@@$0?0$00$00@Eigen@@$0?0@1@AEBNPEAN@Z
	??$applyHouseholderOnTheLeft@V?$VectorBlock@V?$Block@V?$Matrix@N$0?0$0?0$0A@$0?0$0?0@Eigen@@$0?0$00$00@Eigen@@$0?0@Eigen@@@?$MatrixBase@V?$Block@V?$Matrix@N$0?0$0?0$0A@$0?0$0?0@Eigen@@$0?0$0?0$0A@@Eigen@@@Eigen@@QEAAXAEBV?$VectorBlock@V?$Block@V?$Matrix@N$0?0$0?0$0A@$0?0$0?0@Eigen@@$0?0$00$00@Eigen@@$0?0@1@AEBNPEAN@Z
	??$applyOnTheLeft@V?$HouseholderSequence@V?$Matrix@N$0?0$0?0$0A@$0?0$0?0@Eigen@@V?$Matrix@N$0?0$00$0A@$0?0$00@2@$00@Eigen@@@?$MatrixBase@V?$Matrix@N$0?0$00$0A@$0?0$00@Eigen@@@Eigen@@QEAAXAEBU?$EigenBase@V?$HouseholderSequence@V?$Matrix@N$0?0$0?0$0A@$0?0$0?0@Eigen@@V?$Matrix@N$0?0$00$0A@$0?0$00@2@$00@Eigen@@@1@@Z
	??$applyThisOnTheLeft@V?$Matrix@N$0?0$00$0A@$0?0$00@Eigen@@V?$Matrix@N$00$00$00$00$00@2@@?$HouseholderSequence@V?$Matrix@N$0?0$0?0$0A@$0?0$0?0@Eigen@@V?$Matrix@N$0?0$00$0A@$0?0$00@2@$00@Eigen@@QEBAXAEAV?$Matrix@N$0?0$00$0A@$0?0$00@1@AEAV?$Matrix@N$00$00$00$00$00@1@_N@Z
	??$apply_block_householder_on_the_left@V?$Block@V?$Matrix@N$0?0$00$0A@$0?0$00@Eigen@@$0?0$00$0A@@Eigen@@V?$Block@V?$Matrix@N$0?0$0?0$0A@$0?0$0?0@Eigen@@$0?0$0?0$0A@@2@V?$VectorBlock@$$CBV?$Matrix@N$0?0$00$0A@$0?0$00@Eigen@@$0?0@2@@internal@Eigen@@YAXAEAV?$Block@V?$Matrix@N$0?0$00$0A@$0?0$00@Eigen@@$0?0$00$0A@@1@AEBV?$Block@V?$Matrix@N$0?0$0?0$0A@$0?0$0?0@Eigen@@$0?0$0?0$0A@@1@AEBV?$VectorBlock@$$CBV?$Matrix@N$0?0$00$0A@$0?0$00@Eigen@@$0?0@1@_N@Z
	??$apply_block_householder_on_the_left@V?$Block@V?$Matrix@N$0?0$00$0A@$0?0$00@Eigen@@$0?0$0?0$0A@@Eigen@@V?$Block@V?$Matrix@N$0?0$0?0$0A@$0?0$0?0@Eigen@@$0?0$0?0$0A@@2@V?$VectorBlock@$$CBV?$Matrix@N$0?0$00$0A@$0?0$00@Eigen@@$0?0@2@@internal@Eigen@@YAXAEAV?$Block@V?$Matrix@N$0?0$00$0A@$0?0$00@Eigen@@$0?0$0?0$0A@@1@AEBV?$Block@V?$Matrix@N$0?0$0?0$0A@$0?0$0?0@Eigen@@$0?0$0?0$0A@@1@AEBV?$VectorBlock@$$CBV?$Matrix@N$0?0$00$0A@$0?0$00@Eigen@@$0?0@1@_N@Z
	??$assign_sparse_to_sparse@V?$SparseMatrix@N$0A@H@Eigen@@V12@@internal@Eigen@@YAXAEAV?$SparseMatrix@N$0A@H@1@AEBV21@@Z
	??$assign_sparse_to_sparse@V?$SparseMatrix@N$0A@H@Eigen@@V?$Block@V?$SparseMatrix@N$0A@H@Eigen@@$0?0$0?0$0A@@2@@internal@Eigen@@YAXAEAV?$SparseMatrix@N$0A@H@1@AEBV?$Block@V?$SparseMatrix@N$0A@H@Eigen@@$0?0$0?0$0A@@1@@Z
	??$assign_sparse_to_sparse@V?$SparseMatrix@N$0A@H@Eigen@@V?$SparseView@V?$Matrix@N$0?0$0?0$0A@$0?0$0?0@Eigen@@@2@@internal@Eigen@@YAXAEAV?$SparseMatrix@N$0A@H@1@AEBV?$SparseView@V?$Matrix@N$0?0$0?0$0A@$0?0$0?0@Eigen@@@1@@Z
	??$assign_sparse_to_sparse@V?$SparseMatrix@N$0A@H@Eigen@@V?$Transpose@V?$Block@V?$SparseMatrix@N$0A@H@Eigen@@$0?0$0?0$0A@@Eigen@@@2@@internal@Eigen@@YAXAEAV?$SparseMatrix@N$0A@H@1@AEBV?$Transpose@V?$Block@V?$SparseMatrix@N$0A@H@Eigen@@$0?0$0?0$0A@@Eigen@@@1@@Z
	??$assign_to@U?$token_finderF@U?$is_any_ofF@D@detail@algorithm@boost@@@detail@algorithm@boost@@@?$basic_vtable@V?$iterator_range@V?$_String_iterator@V?$_String_val@U?$_Simple_types@D@std@@@std@@@std@@@boost@@V?$_String_iterator@V?$_String_val@U?$_Simple_types@D@std@@@std@@@std@@V34@@function@detail@boost@@QEBA_NU?$token_finderF@U?$is_any_ofF@D@detail@algorithm@boost@@@2algorithm@3@AEATfunction_buffer@123@@Z
	??$async@P8System@GCS@@EAAXAEBV?$Matrix@N$0?0$0?0$0A@$0?0$0?0@Eigen@@AEBV?$map@HHU?$less@H@std@@V?$allocator@U?$pair@$$CBHH@std@@@2@@std@@AEBV?$vector@PEANV?$allocator@PEAN@std@@@6@_N@ZPEAV12@AEAV34@AEAV56@AEAV76@_N@std@@YA?AV?$future@X@0@$$QEAP8System@GCS@@EAAXAEBV?$Matrix@N$0?0$0?0$0A@$0?0$0?0@Eigen@@AEBV?$map@HHU?$less@H@std@@V?$allocator@U?$pair@$$CBHH@std@@@2@@0@AEBV?$vector@PEANV?$allocator@PEAN@std@@@0@_N@Z$$QEAPEAV23@AEAV45@AEAV60@AEAV70@$$QEA_N@Z
	??$async@P8System@GCS@@EAAXAEBV?$Matrix@N$0?0$0?0$0A@$0?0$0?0@Eigen@@AEBV?$map@HHU?$less@H@std@@V?$allocator@U?$pair@$$CBHH@std@@@2@@std@@AEBV?$vector@PEANV?$allocator@PEAN@std@@@6@_N@ZPEAV12@AEAV34@AEAV56@AEAV76@_N@std@@YA?AV?$future@X@0@W4launch@0@$$QEAP8System@GCS@@EAAXAEBV?$Matrix@N$0?0$0?0$0A@$0?0$0?0@Eigen@@AEBV?$map@HHU?$less@H@std@@V?$allocator@U?$pair@$$CBHH@std@@@2@@0@AEBV?$vector@PEANV?$allocator@PEAN@std@@@0@_N@Z$$QEAPEAV34@AEAV56@AEAV70@AEAV80@$$QEA_N@Z
	??$at@AEAY05$$CBD$0A@@?$basic_json@Vmap@std@@Vvector@2@V?$basic_string@DU?$char_traits@D@std@@V?$allocator@D@2@@2@_N_J_KNVallocator@2@Uadl_serializer@json_abi_v3_12_0@nlohmann@@V?$vector@EV?$allocator@E@std@@@2@X@json_abi_v3_12_0@nlohmann@@QEBAAEBV012@AEAY05$$CBD@Z
	??$atomic_compare_exchange@J@details@Concurrency@@YAJAEAU?$atomic@J@std@@JJ@Z
	??$atomic_exchange@J@details@Concurrency@@YAJAEAU?$atomic@J@std@@J@Z
	??$calculateHash@VQByteArray@@@QHashPrivate@@YA_KAEBVQByteArray@@_K@Z
	??$call_finish_edge@V?$edge_desc_impl@Uundirected_tag@boost@@_K@detail@boost@@V?$adjacency_list@UvecS@boost@@U12@UundirectedS@2@Uno_property@2@U42@U42@UlistS@2@@3@V?$components_recorder@PEAH@23@@detail@boost@@YAXAEAV?$components_recorder@PEAH@01@V?$edge_desc_impl@Uundirected_tag@boost@@_K@01@AEBV?$adjacency_list@UvecS@boost@@U12@UundirectedS@2@Uno_property@2@U42@U42@UlistS@2@@1@@Z
	??$call_member_close@V?$linked_streambuf@DU?$char_traits@D@std@@@detail@iostreams@boost@@@detail@iostreams@boost@@YA?AV?$member_close_operation@V?$linked_streambuf@DU?$char_traits@D@std@@@detail@iostreams@boost@@@012@AEAV?$linked_streambuf@DU?$char_traits@D@std@@@012@H@Z
	??$call_once@V<lambda_1>@?1??_GetStaticAmbientSchedulerRef@details@Concurrency@@YAAEAV?$shared_ptr@Uscheduler_interface@Concurrency@@@std@@XZ@$$V@std@@YAXAEAUonce_flag@0@$$QEAV<lambda_1>@?1??_GetStaticAmbientSchedulerRef@details@Concurrency@@YAAEAV?$shared_ptr@Uscheduler_interface@Concurrency@@@0@XZ@@Z
	??$call_reset@V?$optional@U?$basic_array_source@D@iostreams@boost@@@detail@iostreams@boost@@@detail@iostreams@boost@@YA?AV?$reset_operation@V?$optional@U?$basic_array_source@D@iostreams@boost@@@detail@iostreams@boost@@@012@AEAV?$optional@U?$basic_array_source@D@iostreams@boost@@@012@@Z
	??$close@U?$basic_array_source@D@iostreams@boost@@@iostreams@boost@@YAXAEAU?$basic_array_source@D@01@H@Z
	??$close_all@U?$basic_array_source@D@iostreams@boost@@@detail@iostreams@boost@@YAXAEAU?$basic_array_source@D@12@@Z
	??$coletree@V?$SparseMatrix@N$0A@H@Eigen@@V?$Matrix@H$0?0$00$0A@$0?0$00@2@@internal@Eigen@@YAHAEBV?$SparseMatrix@N$0A@H@1@AEAV?$Matrix@H$0?0$00$0A@$0?0$00@1@1PEAH@Z
	??$compute@V?$Matrix@N$0?0$0?0$0A@$0?0$0?0@Eigen@@@?$ColPivHouseholderQR@V?$Matrix@N$0?0$0?0$0A@$0?0$0?0@Eigen@@H@Eigen@@QEAAAEAV01@AEBU?$EigenBase@V?$Matrix@N$0?0$0?0$0A@$0?0$0?0@Eigen@@@1@@Z
	??$compute@V?$Matrix@N$0?0$0?0$0A@$0?0$0?0@Eigen@@@?$FullPivHouseholderQR@V?$Matrix@N$0?0$0?0$0A@$0?0$0?0@Eigen@@H@Eigen@@QEAAAEAV01@AEBU?$EigenBase@V?$Matrix@N$0?0$0?0$0A@$0?0$0?0@Eigen@@@1@@Z
	??$compute@V?$Matrix@N$0?0$0?0$0A@$0?0$0?0@Eigen@@@?$FullPivLU@V?$Matrix@N$0?0$0?0$0A@$0?0$0?0@Eigen@@H@Eigen@@QEAAAEAV01@AEBU?$EigenBase@V?$Matrix@N$0?0$0?0$0A@$0?0$0?0@Eigen@@@1@@Z
	??$compute@V?$Product@V?$Matrix@N$0?0$0?0$0A@$0?0$0?0@Eigen@@V?$Transpose@$$CBV?$Matrix@N$0?0$0?0$0A@$0?0$0?0@Eigen@@@2@$0A@@Eigen@@@?$LDLT@V?$Matrix@N$0?0$0?0$0A@$0?0$0?0@Eigen@@$00@Eigen@@QEAAAEAV01@AEBU?$EigenBase@V?$Product@V?$Matrix@N$0?0$0?0$0A@$0?0$0?0@Eigen@@V?$Transpose@$$CBV?$Matrix@N$0?0$0?0$0A@$0?0$0?0@Eigen@@@2@$0A@@Eigen@@@1@@Z
	??$compute@V?$Transpose@V?$Matrix@N$0?0$0?0$0A@$0?0$0?0@Eigen@@@Eigen@@@?$FullPivHouseholderQR@V?$Matrix@N$0?0$0?0$0A@$0?0$0?0@Eigen@@H@Eigen@@QEAAAEAV01@AEBU?$EigenBase@V?$Transpose@V?$Matrix@N$0?0$0?0$0A@$0?0$0?0@Eigen@@@Eigen@@@1@@Z
	??$computeProductBlockingSizes@NN$00_J@internal@Eigen@@YAXAEA_J00_J@Z
	??$computeProductBlockingSizes@NN$03_J@internal@Eigen@@YAXAEA_J00_J@Z
	??$compute_boundaries@N@dtoa_impl@detail@json_abi_v3_12_0@nlohmann@@YA?AUboundaries@0123@N@Z
	??$concat@V?$basic_string@DU?$char_traits@D@std@@V?$allocator@D@2@@std@@AEAY05$$CBDV12@AEAY0M@$$CBD@detail@json_abi_v3_12_0@nlohmann@@YA?AV?$basic_string@DU?$char_traits@D@std@@V?$allocator@D@2@@std@@AEAY05$$CBD$$QEAV34@AEAY0M@$$CBD@Z
	??$concat@V?$basic_string@DU?$char_traits@D@std@@V?$allocator@D@2@@std@@AEAY0BG@$$CBDPEBD@detail@json_abi_v3_12_0@nlohmann@@YA?AV?$basic_string@DU?$char_traits@D@std@@V?$allocator@D@2@@std@@AEAY0BG@$$CBD$$QEAPEBD@Z
	??$concat@V?$basic_string@DU?$char_traits@D@std@@V?$allocator@D@2@@std@@AEAY0BH@$$CBDV12@@detail@json_abi_v3_12_0@nlohmann@@YA?AV?$basic_string@DU?$char_traits@D@std@@V?$allocator@D@2@@std@@AEAY0BH@$$CBD$$QEAV34@@Z
	??$concat@V?$basic_string@DU?$char_traits@D@std@@V?$allocator@D@2@@std@@AEAY0BI@$$CBDV12@@detail@json_abi_v3_12_0@nlohmann@@YA?AV?$basic_string@DU?$char_traits@D@std@@V?$allocator@D@2@@std@@AEAY0BI@$$CBD$$QEAV34@@Z
	??$concat@V?$basic_string@DU?$char_traits@D@std@@V?$allocator@D@2@@std@@AEAY0BJ@$$CBDPEBD@detail@json_abi_v3_12_0@nlohmann@@YA?AV?$basic_string@DU?$char_traits@D@std@@V?$allocator@D@2@@std@@AEAY0BJ@$$CBD$$QEAPEBD@Z
	??$concat@V?$basic_string@DU?$char_traits@D@std@@V?$allocator@D@2@@std@@AEAY0BK@$$CBDV12@D@detail@json_abi_v3_12_0@nlohmann@@YA?AV?$basic_string@DU?$char_traits@D@std@@V?$allocator@D@2@@std@@AEAY0BK@$$CBD$$QEAV34@$$QEAD@Z
	??$concat@V?$basic_string@DU?$char_traits@D@std@@V?$allocator@D@2@@std@@AEAY0BN@$$CBDPEBD@detail@json_abi_v3_12_0@nlohmann@@YA?AV?$basic_string@DU?$char_traits@D@std@@V?$allocator@D@2@@std@@AEAY0BN@$$CBD$$QEAPEBD@Z
	??$concat@V?$basic_string@DU?$char_traits@D@std@@V?$allocator@D@2@@std@@AEAY0BN@$$CBDV12@AEAY04$$CBDV12@@detail@json_abi_v3_12_0@nlohmann@@YA?AV?$basic_string@DU?$char_traits@D@std@@V?$allocator@D@2@@std@@AEAY0BN@$$CBD$$QEAV34@AEAY04$$CBD1@Z
	??$concat@V?$basic_string@DU?$char_traits@D@std@@V?$allocator@D@2@@std@@AEAY0BO@$$CBDPEBD@detail@json_abi_v3_12_0@nlohmann@@YA?AV?$basic_string@DU?$char_traits@D@std@@V?$allocator@D@2@@std@@AEAY0BO@$$CBD$$QEAPEBD@Z
	??$concat@V?$basic_string@DU?$char_traits@D@std@@V?$allocator@D@2@@std@@AEAY0CH@$$CBDV12@@detail@json_abi_v3_12_0@nlohmann@@YA?AV?$basic_string@DU?$char_traits@D@std@@V?$allocator@D@2@@std@@AEAY0CH@$$CBD$$QEAV34@@Z
	??$concat@V?$basic_string@DU?$char_traits@D@std@@V?$allocator@D@2@@std@@AEAY0DD@$$CBDPEBD@detail@json_abi_v3_12_0@nlohmann@@YA?AV?$basic_string@DU?$char_traits@D@std@@V?$allocator@D@2@@std@@AEAY0DD@$$CBD$$QEAPEBD@Z
	??$concat@V?$basic_string@DU?$char_traits@D@std@@V?$allocator@D@2@@std@@AEAY0DE@$$CBDPEBD@detail@json_abi_v3_12_0@nlohmann@@YA?AV?$basic_string@DU?$char_traits@D@std@@V?$allocator@D@2@@std@@AEAY0DE@$$CBD$$QEAPEBD@Z
	??$concat@V?$basic_string@DU?$char_traits@D@std@@V?$allocator@D@2@@std@@AEAY0DI@$$CBDPEBD@detail@json_abi_v3_12_0@nlohmann@@YA?AV?$basic_string@DU?$char_traits@D@std@@V?$allocator@D@2@@std@@AEAY0DI@$$CBD$$QEAPEBD@Z
	??$concat@V?$basic_string@DU?$char_traits@D@std@@V?$allocator@D@2@@std@@V12@AEAY0M@$$CBDV12@AEAY02$$CBDV12@AEBV12@@detail@json_abi_v3_12_0@nlohmann@@YA?AV?$basic_string@DU?$char_traits@D@std@@V?$allocator@D@2@@std@@$$QEAV34@AEAY0M@$$CBD0AEAY02$$CBD0AEBV34@@Z
	??$concat@V?$basic_string@DU?$char_traits@D@std@@V?$allocator@D@2@@std@@V12@V12@AEBV12@@detail@json_abi_v3_12_0@nlohmann@@YA?AV?$basic_string@DU?$char_traits@D@std@@V?$allocator@D@2@@std@@$$QEAV34@0AEBV34@@Z
	??$conditional_aligned_new_auto@H$00@internal@Eigen@@YAPEAH_K@Z
	??$conditional_aligned_new_auto@N$00@internal@Eigen@@YAPEAN_K@Z
	??$conditional_aligned_new_auto@_N$00@internal@Eigen@@YAPEA_N_K@Z
	??$construct@U?$pair@V?$basic_string@DU?$char_traits@D@std@@V?$allocator@D@2@@std@@V12@@std@@AEAPEBDAEAPEBD@?$_Default_allocator_traits@V?$allocator@U?$pair@V?$basic_string@DU?$char_traits@D@std@@V?$allocator@D@2@@std@@V12@@std@@@std@@@std@@SAXAEAV?$allocator@U?$pair@V?$basic_string@DU?$char_traits@D@std@@V?$allocator@D@2@@std@@V12@@std@@@1@QEAU?$pair@V?$basic_string@DU?$char_traits@D@std@@V?$allocator@D@2@@std@@V12@@1@AEAPEBD2@Z
	??$construct@U?$pair@V?$basic_string@DU?$char_traits@D@std@@V?$allocator@D@2@@std@@V12@@std@@AEAPEBDAEAY00$$CBD@?$_Default_allocator_traits@V?$allocator@U?$pair@V?$basic_string@DU?$char_traits@D@std@@V?$allocator@D@2@@std@@V12@@std@@@std@@@std@@SAXAEAV?$allocator@U?$pair@V?$basic_string@DU?$char_traits@D@std@@V?$allocator@D@2@@std@@V12@@std@@@1@QEAU?$pair@V?$basic_string@DU?$char_traits@D@std@@V?$allocator@D@2@@std@@V12@@1@AEAPEBDAEAY00$$CBD@Z
	??$construct@UDiagnostic@oreo@@AEBU12@@?$_Default_allocator_traits@V?$allocator@UDiagnostic@oreo@@@std@@@std@@SAXAEAV?$allocator@UDiagnostic@oreo@@@1@QEAUDiagnostic@oreo@@AEBU34@@Z
	??$construct@UFeature@oreo@@U12@@?$_Default_allocator_traits@V?$allocator@UFeature@oreo@@@std@@@std@@SAXAEAV?$allocator@UFeature@oreo@@@1@QEAUFeature@oreo@@$$QEAU34@@Z
	??$construct_at@U?$evaluator@V?$Matrix@N$00$00$0A@$00$00@Eigen@@@internal@Eigen@@AEAV?$Matrix@N$00$00$0A@$00$00@3@@internal@Eigen@@YAPEAU?$evaluator@V?$Matrix@N$00$00$0A@$00$00@Eigen@@@01@PEAU201@AEAV?$Matrix@N$00$00$0A@$00$00@1@@Z
	??$construct_at@U?$evaluator@V?$Matrix@N$0?0$00$0A@$0?0$00@Eigen@@@internal@Eigen@@AEAV?$Matrix@N$0?0$00$0A@$0?0$00@3@@internal@Eigen@@YAPEAU?$evaluator@V?$Matrix@N$0?0$00$0A@$0?0$00@Eigen@@@01@PEAU201@AEAV?$Matrix@N$0?0$00$0A@$0?0$00@1@@Z
	??$construct_at@U?$evaluator@V?$Matrix@N$0?0$0?0$0A@$0?0$0?0@Eigen@@@internal@Eigen@@AEAV?$Matrix@N$0?0$0?0$0A@$0?0$0?0@3@@internal@Eigen@@YAPEAU?$evaluator@V?$Matrix@N$0?0$0?0$0A@$0?0$0?0@Eigen@@@01@PEAU201@AEAV?$Matrix@N$0?0$0?0$0A@$0?0$0?0@1@@Z
	??$container_category@U?$list_edge@_KUno_property@boost@@@boost@@V?$allocator@U?$list_edge@_KUno_property@boost@@@boost@@@std@@@graph_detail@boost@@YA?AUlist_tag@01@AEBV?$list@U?$list_edge@_KUno_property@boost@@@boost@@V?$allocator@U?$list_edge@_KUno_property@boost@@@boost@@@std@@@std@@@Z
	??$container_category@V?$stored_edge_iter@_KV?$_List_iterator@V?$_List_val@U?$_List_simple_types@U?$list_edge@_KUno_property@boost@@@boost@@@std@@@std@@@std@@Uno_property@boost@@@detail@boost@@V?$allocator@V?$stored_edge_iter@_KV?$_List_iterator@V?$_List_val@U?$_List_simple_types@U?$list_edge@_KUno_property@boost@@@boost@@@std@@@std@@@std@@Uno_property@boost@@@detail@boost@@@std@@@graph_detail@boost@@YA?AUvector_tag@01@AEBV?$vector@V?$stored_edge_iter@_KV?$_List_iterator@V?$_List_val@U?$_List_simple_types@U?$list_edge@_KUno_property@boost@@@boost@@@std@@@std@@@std@@Uno_property@boost@@@detail@boost@@V?$allocator@V?$stored_edge_iter@_KV?$_List_iterator@V?$_List_val@U?$_List_simple_types@U?$list_edge@_KUno_property@boost@@@boost@@@std@@@std@@@std@@Uno_property@boost@@@detail@boost@@@std@@@std@@@Z
	??$contains@AEAY09$$CBD$0A@@?$basic_json@Vmap@std@@Vvector@2@V?$basic_string@DU?$char_traits@D@std@@V?$allocator@D@2@@2@_N_J_KNVallocator@2@Uadl_serializer@json_abi_v3_12_0@nlohmann@@V?$vector@EV?$allocator@E@std@@@2@X@json_abi_v3_12_0@nlohmann@@QEBA_NAEAY09$$CBD@Z
	??$copy@V?$_Tree_const_iterator@V?$_Tree_val@U?$_Tree_simple_types@H@std@@@std@@@std@@V?$_Vector_iterator@V?$_Vector_val@U?$_Simple_types@H@std@@@std@@@2@@std@@YA?AV?$_Vector_iterator@V?$_Vector_val@U?$_Simple_types@H@std@@@std@@@0@V?$_Tree_const_iterator@V?$_Tree_val@U?$_Tree_simple_types@H@std@@@std@@@0@0V10@@Z
	??$create@$$T$0A@@other_error@detail@json_abi_v3_12_0@nlohmann@@SA?AV0123@HAEBV?$basic_string@DU?$char_traits@D@std@@V?$allocator@D@2@@std@@$$T@Z
	??$create@$$T$0A@@out_of_range@detail@json_abi_v3_12_0@nlohmann@@SA?AV0123@HAEBV?$basic_string@DU?$char_traits@D@std@@V?$allocator@D@2@@std@@$$T@Z
	??$create@$$T$0A@@parse_error@detail@json_abi_v3_12_0@nlohmann@@SA?AV0123@HAEBUposition_t@123@AEBV?$basic_string@DU?$char_traits@D@std@@V?$allocator@D@2@@std@@$$T@Z
	??$create@$$T$0A@@type_error@detail@json_abi_v3_12_0@nlohmann@@SA?AV0123@HAEBV?$basic_string@DU?$char_traits@D@std@@V?$allocator@D@2@@std@@$$T@Z
	??$create@PEAV?$basic_json@Vmap@std@@Vvector@2@V?$basic_string@DU?$char_traits@D@std@@V?$allocator@D@2@@2@_N_J_KNVallocator@2@Uadl_serializer@json_abi_v3_12_0@nlohmann@@V?$vector@EV?$allocator@E@std@@@2@X@json_abi_v3_12_0@nlohmann@@$0A@@invalid_iterator@detail@json_abi_v3_12_0@nlohmann@@SA?AV0123@HAEBV?$basic_string@DU?$char_traits@D@std@@V?$allocator@D@2@@std@@PEAV?$basic_json@Vmap@std@@Vvector@2@V?$basic_string@DU?$char_traits@D@std@@V?$allocator@D@2@@2@_N_J_KNVallocator@2@Uadl_serializer@json_abi_v3_12_0@nlohmann@@V?$vector@EV?$allocator@E@std@@@2@X@23@@Z
	??$create@PEAV?$basic_json@Vmap@std@@Vvector@2@V?$basic_string@DU?$char_traits@D@std@@V?$allocator@D@2@@2@_N_J_KNVallocator@2@Uadl_serializer@json_abi_v3_12_0@nlohmann@@V?$vector@EV?$allocator@E@std@@@2@X@json_abi_v3_12_0@nlohmann@@$0A@@out_of_range@detail@json_abi_v3_12_0@nlohmann@@SA?AV0123@HAEBV?$basic_string@DU?$char_traits@D@std@@V?$allocator@D@2@@std@@PEAV?$basic_json@Vmap@std@@Vvector@2@V?$basic_string@DU?$char_traits@D@std@@V?$allocator@D@2@@2@_N_J_KNVallocator@2@Uadl_serializer@json_abi_v3_12_0@nlohmann@@V?$vector@EV?$allocator@E@std@@@2@X@23@@Z
	??$create@PEAV?$basic_json@Vmap@std@@Vvector@2@V?$basic_string@DU?$char_traits@D@std@@V?$allocator@D@2@@2@_N_J_KNVallocator@2@Uadl_serializer@json_abi_v3_12_0@nlohmann@@V?$vector@EV?$allocator@E@std@@@2@X@json_abi_v3_12_0@nlohmann@@$0A@@type_error@detail@json_abi_v3_12_0@nlohmann@@SA?AV0123@HAEBV?$basic_string@DU?$char_traits@D@std@@V?$allocator@D@2@@std@@PEAV?$basic_json@Vmap@std@@Vvector@2@V?$basic_string@DU?$char_traits@D@std@@V?$allocator@D@2@@2@_N_J_KNVallocator@2@Uadl_serializer@json_abi_v3_12_0@nlohmann@@V?$vector@EV?$allocator@E@std@@@2@X@23@@Z
	??$create@PEBV?$basic_json@Vmap@std@@Vvector@2@V?$basic_string@DU?$char_traits@D@std@@V?$allocator@D@2@@2@_N_J_KNVallocator@2@Uadl_serializer@json_abi_v3_12_0@nlohmann@@V?$vector@EV?$allocator@E@std@@@2@X@json_abi_v3_12_0@nlohmann@@$0A@@invalid_iterator@detail@json_abi_v3_12_0@nlohmann@@SA?AV0123@HAEBV?$basic_string@DU?$char_traits@D@std@@V?$allocator@D@2@@std@@PEBV?$basic_json@Vmap@std@@Vvector@2@V?$basic_string@DU?$char_traits@D@std@@V?$allocator@D@2@@2@_N_J_KNVallocator@2@Uadl_serializer@json_abi_v3_12_0@nlohmann@@V?$vector@EV?$allocator@E@std@@@2@X@23@@Z
	??$create@PEBV?$basic_json@Vmap@std@@Vvector@2@V?$basic_string@DU?$char_traits@D@std@@V?$allocator@D@2@@2@_N_J_KNVallocator@2@Uadl_serializer@json_abi_v3_12_0@nlohmann@@V?$vector@EV?$allocator@E@std@@@2@X@json_abi_v3_12_0@nlohmann@@$0A@@out_of_range@detail@json_abi_v3_12_0@nlohmann@@SA?AV0123@HAEBV?$basic_string@DU?$char_traits@D@std@@V?$allocator@D@2@@std@@PEBV?$basic_json@Vmap@std@@Vvector@2@V?$basic_string@DU?$char_traits@D@std@@V?$allocator@D@2@@2@_N_J_KNVallocator@2@Uadl_serializer@json_abi_v3_12_0@nlohmann@@V?$vector@EV?$allocator@E@std@@@2@X@23@@Z
	??$create@PEBV?$basic_json@Vmap@std@@Vvector@2@V?$basic_string@DU?$char_traits@D@std@@V?$allocator@D@2@@2@_N_J_KNVallocator@2@Uadl_serializer@json_abi_v3_12_0@nlohmann@@V?$vector@EV?$allocator@E@std@@@2@X@json_abi_v3_12_0@nlohmann@@$0A@@type_error@detail@json_abi_v3_12_0@nlohmann@@SA?AV0123@HAEBV?$basic_string@DU?$char_traits@D@std@@V?$allocator@D@2@@std@@PEBV?$basic_json@Vmap@std@@Vvector@2@V?$basic_string@DU?$char_traits@D@std@@V?$allocator@D@2@@2@_N_J_KNVallocator@2@Uadl_serializer@json_abi_v3_12_0@nlohmann@@V?$vector@EV?$allocator@E@std@@@2@X@23@@Z
	??$create@V?$map@V?$basic_string@DU?$char_traits@D@std@@V?$allocator@D@2@@std@@V?$basic_json@Vmap@std@@Vvector@2@V?$basic_string@DU?$char_traits@D@std@@V?$allocator@D@2@@2@_N_J_KNVallocator@2@Uadl_serializer@json_abi_v3_12_0@nlohmann@@V?$vector@EV?$allocator@E@std@@@2@X@json_abi_v3_12_0@nlohmann@@U?$less@X@2@V?$allocator@U?$pair@$$CBV?$basic_string@DU?$char_traits@D@std@@V?$allocator@D@2@@std@@V?$basic_json@Vmap@std@@Vvector@2@V?$basic_string@DU?$char_traits@D@std@@V?$allocator@D@2@@2@_N_J_KNVallocator@2@Uadl_serializer@json_abi_v3_12_0@nlohmann@@V?$vector@EV?$allocator@E@std@@@2@X@json_abi_v3_12_0@nlohmann@@@std@@@2@@std@@$$V@?$basic_json@Vmap@std@@Vvector@2@V?$basic_string@DU?$char_traits@D@std@@V?$allocator@D@2@@2@_N_J_KNVallocator@2@Uadl_serializer@json_abi_v3_12_0@nlohmann@@V?$vector@EV?$allocator@E@std@@@2@X@json_abi_v3_12_0@nlohmann@@CAPEAV?$map@V?$basic_string@DU?$char_traits@D@std@@V?$allocator@D@2@@std@@V?$basic_json@Vmap@std@@Vvector@2@V?$basic_string@DU?$char_traits@D@std@@V?$allocator@D@2@@2@_N_J_KNVallocator@2@Uadl_serializer@json_abi_v3_12_0@nlohmann@@V?$vector@EV?$allocator@E@std@@@2@X@json_abi_v3_12_0@nlohmann@@U?$less@X@2@V?$allocator@U?$pair@$$CBV?$basic_string@DU?$char_traits@D@std@@V?$allocator@D@2@@std@@V?$basic_json@Vmap@std@@Vvector@2@V?$basic_string@DU?$char_traits@D@std@@V?$allocator@D@2@@2@_N_J_KNVallocator@2@Uadl_serializer@json_abi_v3_12_0@nlohmann@@V?$vector@EV?$allocator@E@std@@@2@X@json_abi_v3_12_0@nlohmann@@@std@@@2@@std@@XZ
	??$create_task@V<lambda_1>@?1???$?0V?$_Fake_no_copy_callable_adapter@P8System@GCS@@EAAXAEBV?$Matrix@N$0?0$0?0$0A@$0?0$0?0@Eigen@@AEBV?$map@HHU?$less@H@std@@V?$allocator@U?$pair@$$CBHH@std@@@2@@std@@AEBV?$vector@PEANV?$allocator@PEAN@std@@@6@_N@ZPEAV12@AEAV34@AEAV56@AEAV76@_N@std@@@?$_Task_async_state@X@std@@QEAA@$$QEAV?$_Fake_no_copy_callable_adapter@P8System@GCS@@EAAXAEBV?$Matrix@N$0?0$0?0$0A@$0?0$0?0@Eigen@@AEBV?$map@HHU?$less@H@std@@V?$allocator@U?$pair@$$CBHH@std@@@2@@std@@AEBV?$vector@PEANV?$allocator@PEAN@std@@@6@_N@ZPEAV12@AEAV34@AEAV56@AEAV76@_N@3@@Z@@Concurrency@@YA?AV?$task@X@0@V<lambda_1>@?1???$?0V?$_Fake_no_copy_callable_adapter@P8System@GCS@@EAAXAEBV?$Matrix@N$0?0$0?0$0A@$0?0$0?0@Eigen@@AEBV?$map@HHU?$less@H@std@@V?$allocator@U?$pair@$$CBHH@std@@@2@@std@@AEBV?$vector@PEANV?$allocator@PEAN@std@@@6@_N@ZPEAV12@AEAV34@AEAV56@AEAV76@_N@std@@@?$_Task_async_state@X@std@@QEAA@$$QEAV?$_Fake_no_copy_callable_adapter@P8System@GCS@@EAAXAEBV?$Matrix@N$0?0$0?0$0A@$0?0$0?0@Eigen@@AEBV?$map@HHU?$less@H@std@@V?$allocator@U?$pair@$$CBHH@std@@@2@@std@@AEBV?$vector@PEANV?$allocator@PEAN@std@@@6@_N@ZPEAV12@AEAV34@AEAV56@AEAV76@_N@4@@Z@Vtask_options@0@@Z
	??$depth_first_search@V?$adjacency_list@UvecS@boost@@U12@UundirectedS@2@Uno_property@2@U42@U42@UlistS@2@@boost@@V?$components_recorder@PEAH@detail@2@V?$shared_array_property_map@W4default_color_type@boost@@U?$vec_adj_list_vertex_id_map@Uno_property@boost@@_K@2@@2@@boost@@YAXAEBV?$adjacency_list@UvecS@boost@@U12@UundirectedS@2@Uno_property@2@U42@U42@UlistS@2@@0@V?$components_recorder@PEAH@detail@0@V?$shared_array_property_map@W4default_color_type@boost@@U?$vec_adj_list_vertex_id_map@Uno_property@boost@@_K@2@@0@_K@Z
	??$depth_first_search@V?$adjacency_list@UvecS@boost@@U12@UundirectedS@2@Uno_property@2@U42@U42@UlistS@2@@boost@@V?$components_recorder@PEAH@detail@2@W4graph_visitor_t@2@Uno_property@2@@boost@@YAXAEBV?$adjacency_list@UvecS@boost@@U12@UundirectedS@2@Uno_property@2@U42@U42@UlistS@2@@0@AEBU?$bgl_named_params@V?$components_recorder@PEAH@detail@boost@@W4graph_visitor_t@3@Uno_property@3@@0@@Z
	??$depth_first_search_with_named_params@V?$adjacency_list@UvecS@boost@@U12@UundirectedS@2@Uno_property@2@U42@U42@UlistS@2@@boost@@V?$arg_list@V?$tagged_argument@Uvisitor@tag@keywords@graph@boost@@$$CBV?$components_recorder@PEAH@detail@5@@aux@parameter@boost@@Uempty_arg_list@234@U?$integral_constant@_N$00@std@@@aux@parameter@2@@graph@boost@@YAXAEBV?$adjacency_list@UvecS@boost@@U12@UundirectedS@2@Uno_property@2@U42@U42@UlistS@2@@1@AEBV?$arg_list@V?$tagged_argument@Uvisitor@tag@keywords@graph@boost@@$$CBV?$components_recorder@PEAH@detail@5@@aux@parameter@boost@@Uempty_arg_list@234@U?$integral_constant@_N$00@std@@@aux@parameter@1@@Z
	??$depth_first_visit_impl@V?$adjacency_list@UvecS@boost@@U12@UundirectedS@2@Uno_property@2@U42@U42@UlistS@2@@boost@@V?$components_recorder@PEAH@detail@2@V?$shared_array_property_map@W4default_color_type@boost@@U?$vec_adj_list_vertex_id_map@Uno_property@boost@@_K@2@@2@Unontruth2@42@@detail@boost@@YAXAEBV?$adjacency_list@UvecS@boost@@U12@UundirectedS@2@Uno_property@2@U42@U42@UlistS@2@@1@_KAEAV?$components_recorder@PEAH@01@V?$shared_array_property_map@W4default_color_type@boost@@U?$vec_adj_list_vertex_id_map@Uno_property@boost@@_K@2@@1@Unontruth2@01@@Z
	??$destroy@PEAVStringIDRef@App@@@std@@YAXQEAVStringIDRef@App@@0@Z
	??$dot@V?$Block@$$CBV?$Block@$$CBV?$Matrix@N$0?0$0?0$0A@$0?0$0?0@Eigen@@$0?0$00$00@Eigen@@$0?0$00$00@Eigen@@@?$MatrixBase@V?$Block@$$CBV?$Matrix@N$0?0$0?0$0A@$0?0$0?0@Eigen@@$00$0?0$0A@@Eigen@@@Eigen@@QEBANAEBV?$MatrixBase@V?$Block@$$CBV?$Block@$$CBV?$Matrix@N$0?0$0?0$0A@$0?0$0?0@Eigen@@$0?0$00$00@Eigen@@$0?0$00$00@Eigen@@@1@@Z
	??$dot@V?$Block@$$CBV?$Block@$$CBV?$Matrix@N$0?0$0?0$0A@$0?0$0?0@Eigen@@$0?0$00$00@Eigen@@$0?0$00$00@Eigen@@@?$MatrixBase@V?$Block@$$CBV?$Product@V?$Transpose@V?$Matrix@N$0?0$0?0$0A@$0?0$0?0@Eigen@@@Eigen@@V?$Matrix@N$0?0$0?0$0A@$0?0$0?0@2@$0A@@Eigen@@$00$0?0$0A@@Eigen@@@Eigen@@QEBANAEBV?$MatrixBase@V?$Block@$$CBV?$Block@$$CBV?$Matrix@N$0?0$0?0$0A@$0?0$0?0@Eigen@@$0?0$00$00@Eigen@@$0?0$00$00@Eigen@@@1@@Z
	??$dot@V?$Block@$$CBV?$Block@$$CBV?$Matrix@N$0?0$0?0$0A@$0?0$0?0@Eigen@@$0?0$00$00@Eigen@@$0?0$00$00@Eigen@@@?$MatrixBase@V?$Block@$$CBV?$Transpose@V?$Matrix@N$0?0$0?0$0A@$0?0$0?0@Eigen@@@Eigen@@$00$0?0$00@Eigen@@@Eigen@@QEBANAEBV?$MatrixBase@V?$Block@$$CBV?$Block@$$CBV?$Matrix@N$0?0$0?0$0A@$0?0$0?0@Eigen@@$0?0$00$00@Eigen@@$0?0$00$00@Eigen@@@1@@Z
	??$dot@V?$Block@$$CBV?$Block@$$CBV?$Transpose@$$CBV?$Matrix@N$0?0$0?0$0A@$0?0$0?0@Eigen@@@Eigen@@$0?0$00$0A@@Eigen@@$0?0$00$00@Eigen@@@?$MatrixBase@V?$Block@$$CBV?$Matrix@N$0?0$0?0$0A@$0?0$0?0@Eigen@@$00$0?0$0A@@Eigen@@@Eigen@@QEBANAEBV?$MatrixBase@V?$Block@$$CBV?$Block@$$CBV?$Transpose@$$CBV?$Matrix@N$0?0$0?0$0A@$0?0$0?0@Eigen@@@Eigen@@$0?0$00$0A@@Eigen@@$0?0$00$00@Eigen@@@1@@Z
	??$dot@V?$Block@$$CBV?$Block@V?$Block@V?$Matrix@N$0?0$0?0$0A@$0?0$0?0@Eigen@@$0?0$0?0$0A@@Eigen@@$0?0$0?0$0A@@Eigen@@$0?0$00$00@Eigen@@@?$MatrixBase@V?$Block@$$CBV?$Transpose@$$CBV?$Block@$$CBV?$Block@$$CBV?$Matrix@N$0?0$0?0$0A@$0?0$0?0@Eigen@@$0?0$00$00@Eigen@@$0?0$00$0A@@Eigen@@@Eigen@@$00$0?0$00@Eigen@@@Eigen@@QEBANAEBV?$MatrixBase@V?$Block@$$CBV?$Block@V?$Block@V?$Matrix@N$0?0$0?0$0A@$0?0$0?0@Eigen@@$0?0$0?0$0A@@Eigen@@$0?0$0?0$0A@@Eigen@@$0?0$00$00@Eigen@@@1@@Z
	??$dot@V?$Block@$$CBV?$Block@V?$Block@V?$Matrix@N$0?0$0?0$0A@$0?0$0?0@Eigen@@$0?0$0?0$0A@@Eigen@@$0?0$0?0$0A@@Eigen@@$0?0$00$00@Eigen@@@?$MatrixBase@V?$Block@$$CBV?$Transpose@$$CBV?$Block@V?$Block@V?$Matrix@N$0?0$0?0$0A@$0?0$0?0@Eigen@@$0?0$00$00@Eigen@@$0?0$00$0A@@Eigen@@@Eigen@@$00$0?0$00@Eigen@@@Eigen@@QEBANAEBV?$MatrixBase@V?$Block@$$CBV?$Block@V?$Block@V?$Matrix@N$0?0$0?0$0A@$0?0$0?0@Eigen@@$0?0$0?0$0A@@Eigen@@$0?0$0?0$0A@@Eigen@@$0?0$00$00@Eigen@@@1@@Z
	??$dot@V?$Block@$$CBV?$Block@V?$Matrix@N$0?0$00$0A@$0?0$00@Eigen@@$0?0$00$0A@@Eigen@@$0?0$00$00@Eigen@@@?$MatrixBase@V?$Block@$$CBV?$Block@$$CBV?$Matrix@N$0?0$0?0$0A@$0?0$0?0@Eigen@@$0?0$0?0$0A@@Eigen@@$00$0?0$0A@@Eigen@@@Eigen@@QEBANAEBV?$MatrixBase@V?$Block@$$CBV?$Block@V?$Matrix@N$0?0$00$0A@$0?0$00@Eigen@@$0?0$00$0A@@Eigen@@$0?0$00$00@Eigen@@@1@@Z
	??$dot@V?$Block@$$CBV?$Block@V?$Matrix@N$0?0$00$0A@$0?0$00@Eigen@@$0?0$00$0A@@Eigen@@$0?0$00$00@Eigen@@@?$MatrixBase@V?$Block@$$CBV?$Block@V?$Matrix@N$0?0$0?0$0A@$0?0$0?0@Eigen@@$0?0$0?0$0A@@Eigen@@$00$0?0$0A@@Eigen@@@Eigen@@QEBANAEBV?$MatrixBase@V?$Block@$$CBV?$Block@V?$Matrix@N$0?0$00$0A@$0?0$00@Eigen@@$0?0$00$0A@@Eigen@@$0?0$00$00@Eigen@@@1@@Z
	??$dot@V?$Block@$$CBV?$CwiseBinaryOp@U?$scalar_difference_op@NN@internal@Eigen@@$$CBV?$Product@V?$Product@V?$Matrix@N$0?0$0?0$0A@$0?0$0?0@Eigen@@V12@$0A@@Eigen@@V?$Matrix@N$0?0$00$0A@$0?0$00@2@$0A@@3@$$CBV?$Matrix@N$0?0$00$0A@$0?0$00@3@@Eigen@@$0?0$00$00@Eigen@@@?$MatrixBase@V?$Block@$$CBV?$Transpose@V?$Matrix@N$0?0$0?0$0A@$0?0$0?0@Eigen@@@Eigen@@$00$0?0$00@Eigen@@@Eigen@@QEBANAEBV?$MatrixBase@V?$Block@$$CBV?$CwiseBinaryOp@U?$scalar_difference_op@NN@internal@Eigen@@$$CBV?$Product@V?$Product@V?$Matrix@N$0?0$0?0$0A@$0?0$0?0@Eigen@@V12@$0A@@Eigen@@V?$Matrix@N$0?0$00$0A@$0?0$00@2@$0A@@3@$$CBV?$Matrix@N$0?0$00$0A@$0?0$00@3@@Eigen@@$0?0$00$00@Eigen@@@1@@Z
	??$dot@V?$Block@$$CBV?$CwiseBinaryOp@U?$scalar_sum_op@NN@internal@Eigen@@$$CBV?$Product@V?$Matrix@N$0?0$0?0$0A@$0?0$0?0@Eigen@@V?$Matrix@N$0?0$00$0A@$0?0$00@2@$0A@@3@$$CBV?$Matrix@N$0?0$00$0A@$0?0$00@3@@Eigen@@$0?0$00$00@Eigen@@@?$MatrixBase@V?$Block@$$CBV?$Transpose@V?$Matrix@N$0?0$0?0$0A@$0?0$0?0@Eigen@@@Eigen@@$00$0?0$00@Eigen@@@Eigen@@QEBANAEBV?$MatrixBase@V?$Block@$$CBV?$CwiseBinaryOp@U?$scalar_sum_op@NN@internal@Eigen@@$$CBV?$Product@V?$Matrix@N$0?0$0?0$0A@$0?0$0?0@Eigen@@V?$Matrix@N$0?0$00$0A@$0?0$00@2@$0A@@3@$$CBV?$Matrix@N$0?0$00$0A@$0?0$00@3@@Eigen@@$0?0$00$00@Eigen@@@1@@Z
	??$dot@V?$Block@$$CBV?$CwiseUnaryOp@U?$scalar_opposite_op@N@internal@Eigen@@$$CBV?$Matrix@N$0?0$00$0A@$0?0$00@3@@Eigen@@$0?0$00$00@Eigen@@@?$MatrixBase@V?$Block@$$CBV?$Transpose@V?$Matrix@N$0?0$0?0$0A@$0?0$0?0@Eigen@@@Eigen@@$00$0?0$00@Eigen@@@Eigen@@QEBANAEBV?$MatrixBase@V?$Block@$$CBV?$CwiseUnaryOp@U?$scalar_opposite_op@N@internal@Eigen@@$$CBV?$Matrix@N$0?0$00$0A@$0?0$00@3@@Eigen@@$0?0$00$00@Eigen@@@1@@Z
	??$dot@V?$Block@$$CBV?$Matrix@N$0?0$00$0A@$0?0$00@Eigen@@$0?0$00$00@Eigen@@@?$MatrixBase@V?$Block@$$CBV?$CwiseUnaryOp@U?$scalar_opposite_op@N@internal@Eigen@@$$CBV?$Matrix@N$0?0$0?0$0A@$0?0$0?0@3@@Eigen@@$00$0?0$0A@@Eigen@@@Eigen@@QEBANAEBV?$MatrixBase@V?$Block@$$CBV?$Matrix@N$0?0$00$0A@$0?0$00@Eigen@@$0?0$00$00@Eigen@@@1@@Z
	??$dot@V?$Block@$$CBV?$Matrix@N$0?0$00$0A@$0?0$00@Eigen@@$0?0$00$00@Eigen@@@?$MatrixBase@V?$Block@$$CBV?$Matrix@N$0?0$0?0$0A@$0?0$0?0@Eigen@@$00$0?0$0A@@Eigen@@@Eigen@@QEBANAEBV?$MatrixBase@V?$Block@$$CBV?$Matrix@N$0?0$00$0A@$0?0$00@Eigen@@$0?0$00$00@Eigen@@@1@@Z
	??$dot@V?$Block@$$CBV?$Matrix@N$0?0$00$0A@$0?0$00@Eigen@@$0?0$00$00@Eigen@@@?$MatrixBase@V?$Block@$$CBV?$Product@V?$Matrix@N$0?0$0?0$0A@$0?0$0?0@Eigen@@V12@$0A@@Eigen@@$00$0?0$0A@@Eigen@@@Eigen@@QEBANAEBV?$MatrixBase@V?$Block@$$CBV?$Matrix@N$0?0$00$0A@$0?0$00@Eigen@@$0?0$00$00@Eigen@@@1@@Z
	??$dot@V?$Block@$$CBV?$Matrix@N$0?0$00$0A@$0?0$00@Eigen@@$0?0$00$00@Eigen@@@?$MatrixBase@V?$Block@$$CBV?$Transpose@V?$Matrix@N$0?0$0?0$0A@$0?0$0?0@Eigen@@@Eigen@@$00$0?0$00@Eigen@@@Eigen@@QEBANAEBV?$MatrixBase@V?$Block@$$CBV?$Matrix@N$0?0$00$0A@$0?0$00@Eigen@@$0?0$00$00@Eigen@@@1@@Z
	??$dot@V?$Block@$$CBV?$Matrix@N$0?0$0?0$0A@$0?0$0?0@Eigen@@$0?0$00$00@Eigen@@@?$MatrixBase@V?$Block@$$CBV?$Block@$$CBV?$Matrix@N$0?0$0?0$0A@$0?0$0?0@Eigen@@$00$0?0$0A@@Eigen@@$00$0?0$00@Eigen@@@Eigen@@QEBANAEBV?$MatrixBase@V?$Block@$$CBV?$Matrix@N$0?0$0?0$0A@$0?0$0?0@Eigen@@$0?0$00$00@Eigen@@@1@@Z
	??$dot@V?$Block@$$CBV?$Matrix@N$0?0$0?0$0A@$0?0$0?0@Eigen@@$0?0$00$00@Eigen@@@?$MatrixBase@V?$Block@$$CBV?$Block@$$CBV?$Product@V?$Transpose@V?$Matrix@N$0?0$0?0$0A@$0?0$0?0@Eigen@@@Eigen@@V?$Matrix@N$0?0$0?0$0A@$0?0$0?0@2@$0A@@Eigen@@$00$0?0$0A@@Eigen@@$00$0?0$00@Eigen@@@Eigen@@QEBANAEBV?$MatrixBase@V?$Block@$$CBV?$Matrix@N$0?0$0?0$0A@$0?0$0?0@Eigen@@$0?0$00$00@Eigen@@@1@@Z
	??$dot@V?$Block@$$CBV?$Matrix@N$0?0$0?0$0A@$0?0$0?0@Eigen@@$0?0$00$00@Eigen@@@?$MatrixBase@V?$Block@$$CBV?$Block@$$CBV?$Transpose@V?$Matrix@N$0?0$0?0$0A@$0?0$0?0@Eigen@@@Eigen@@$00$0?0$00@Eigen@@$00$0?0$00@Eigen@@@Eigen@@QEBANAEBV?$MatrixBase@V?$Block@$$CBV?$Matrix@N$0?0$0?0$0A@$0?0$0?0@Eigen@@$0?0$00$00@Eigen@@@1@@Z
	??$dot@V?$Block@$$CBV?$Solve@V?$FullPivLU@V?$Matrix@N$0?0$0?0$0A@$0?0$0?0@Eigen@@H@Eigen@@V?$CwiseUnaryOp@U?$scalar_opposite_op@N@internal@Eigen@@$$CBV?$Matrix@N$0?0$00$0A@$0?0$00@3@@2@@Eigen@@$0?0$00$00@Eigen@@@?$MatrixBase@V?$Block@$$CBV?$Transpose@$$CBV?$Matrix@N$0?0$0?0$0A@$0?0$0?0@Eigen@@@Eigen@@$00$0?0$00@Eigen@@@Eigen@@QEBANAEBV?$MatrixBase@V?$Block@$$CBV?$Solve@V?$FullPivLU@V?$Matrix@N$0?0$0?0$0A@$0?0$0?0@Eigen@@H@Eigen@@V?$CwiseUnaryOp@U?$scalar_opposite_op@N@internal@Eigen@@$$CBV?$Matrix@N$0?0$00$0A@$0?0$00@3@@2@@Eigen@@$0?0$00$00@Eigen@@@1@@Z
	??$dot@V?$Block@$$CBV?$Solve@V?$LDLT@V?$Matrix@N$0?0$0?0$0A@$0?0$0?0@Eigen@@$00@Eigen@@V?$CwiseUnaryOp@U?$scalar_opposite_op@N@internal@Eigen@@$$CBV?$Matrix@N$0?0$00$0A@$0?0$00@3@@2@@Eigen@@$0?0$00$00@Eigen@@@?$MatrixBase@V?$Block@$$CBV?$Transpose@$$CBV?$Matrix@N$0?0$0?0$0A@$0?0$0?0@Eigen@@@Eigen@@$00$0?0$00@Eigen@@@Eigen@@QEBANAEBV?$MatrixBase@V?$Block@$$CBV?$Solve@V?$LDLT@V?$Matrix@N$0?0$0?0$0A@$0?0$0?0@Eigen@@$00@Eigen@@V?$CwiseUnaryOp@U?$scalar_opposite_op@N@internal@Eigen@@$$CBV?$Matrix@N$0?0$00$0A@$0?0$00@3@@2@@Eigen@@$0?0$00$00@Eigen@@@1@@Z
	??$dot@V?$Block@$$CBV?$Transpose@$$CBV?$Matrix@N$0?0$0?0$0A@$0?0$0?0@Eigen@@@Eigen@@$0?0$00$0A@@Eigen@@@?$MatrixBase@V?$Block@$$CBV?$Block@$$CBV?$Matrix@N$0?0$0?0$0A@$0?0$0?0@Eigen@@$00$0?0$0A@@Eigen@@$00$0?0$00@Eigen@@@Eigen@@QEBANAEBV?$MatrixBase@V?$Block@$$CBV?$Transpose@$$CBV?$Matrix@N$0?0$0?0$0A@$0?0$0?0@Eigen@@@Eigen@@$0?0$00$0A@@Eigen@@@1@@Z
	??$dot@V?$CwiseBinaryOp@U?$scalar_sum_op@NN@internal@Eigen@@$$CBV?$CwiseBinaryOp@U?$scalar_product_op@NN@internal@Eigen@@$$CBV?$CwiseNullaryOp@U?$scalar_constant_op@N@internal@Eigen@@$$CBV?$Matrix@N$0?0$00$0A@$0?0$00@3@@3@$$CBV?$Matrix@N$0?0$00$0A@$0?0$00@3@@3@$$CBV?$Matrix@N$0?0$00$0A@$0?0$00@3@@Eigen@@@?$MatrixBase@V?$Matrix@N$0?0$00$0A@$0?0$00@Eigen@@@Eigen@@QEBANAEBV?$MatrixBase@V?$CwiseBinaryOp@U?$scalar_sum_op@NN@internal@Eigen@@$$CBV?$CwiseBinaryOp@U?$scalar_product_op@NN@internal@Eigen@@$$CBV?$CwiseNullaryOp@U?$scalar_constant_op@N@internal@Eigen@@$$CBV?$Matrix@N$0?0$00$0A@$0?0$00@3@@3@$$CBV?$Matrix@N$0?0$00$0A@$0?0$00@3@@3@$$CBV?$Matrix@N$0?0$00$0A@$0?0$00@3@@Eigen@@@1@@Z
	??$dot@V?$Matrix@N$0?0$00$0A@$0?0$00@Eigen@@@?$MatrixBase@V?$Matrix@N$0?0$00$0A@$0?0$00@Eigen@@@Eigen@@QEBANAEBV01@@Z
	??$dot@V?$Matrix@N$0?0$00$0A@$0?0$00@Eigen@@@?$SparseMatrixBase@V?$Block@V?$SparseMatrix@N$0A@H@Eigen@@$0?0$00$00@Eigen@@@Eigen@@QEBANAEBV?$MatrixBase@V?$Matrix@N$0?0$00$0A@$0?0$00@Eigen@@@1@@Z
	??$dot@V?$Product@V?$Matrix@N$0?0$0?0$0A@$0?0$0?0@Eigen@@V?$Matrix@N$0?0$00$0A@$0?0$00@2@$0A@@Eigen@@@?$MatrixBase@V?$Matrix@N$0?0$00$0A@$0?0$00@Eigen@@@Eigen@@QEBANAEBV?$MatrixBase@V?$Product@V?$Matrix@N$0?0$0?0$0A@$0?0$0?0@Eigen@@V?$Matrix@N$0?0$00$0A@$0?0$00@2@$0A@@Eigen@@@1@@Z
	??$dump_integer@E$0A@@?$serializer@V?$basic_json@Vmap@std@@Vvector@2@V?$basic_string@DU?$char_traits@D@std@@V?$allocator@D@2@@2@_N_J_KNVallocator@2@Uadl_serializer@json_abi_v3_12_0@nlohmann@@V?$vector@EV?$allocator@E@std@@@2@X@json_abi_v3_12_0@nlohmann@@@detail@json_abi_v3_12_0@nlohmann@@AEAAXE@Z
	??$dump_integer@_J$0A@@?$serializer@V?$basic_json@Vmap@std@@Vvector@2@V?$basic_string@DU?$char_traits@D@std@@V?$allocator@D@2@@2@_N_J_KNVallocator@2@Uadl_serializer@json_abi_v3_12_0@nlohmann@@V?$vector@EV?$allocator@E@std@@@2@X@json_abi_v3_12_0@nlohmann@@@detail@json_abi_v3_12_0@nlohmann@@AEAAX_J@Z
	??$dump_integer@_K$0A@@?$serializer@V?$basic_json@Vmap@std@@Vvector@2@V?$basic_string@DU?$char_traits@D@std@@V?$allocator@D@2@@2@_N_J_KNVallocator@2@Uadl_serializer@json_abi_v3_12_0@nlohmann@@V?$vector@EV?$allocator@E@std@@@2@X@json_abi_v3_12_0@nlohmann@@@detail@json_abi_v3_12_0@nlohmann@@AEAAX_K@Z
	??$emplace@AEBVStringIDRef@App@@@?$QGenericArrayOps@VStringIDRef@App@@@QtPrivate@@QEAAX_JAEBVStringIDRef@App@@@Z
	??$emplace@UByteArray@Data@@@?$_Hash@V?$_Uset_traits@UByteArray@Data@@V?$_Uhash_compare@UByteArray@Data@@UByteArrayHasher@2@U?$equal_to@UByteArray@Data@@@std@@@std@@V?$allocator@UByteArray@Data@@@4@$0A@@std@@@std@@QEAA?AU?$pair@V?$_List_const_iterator@V?$_List_val@U?$_List_simple_types@UByteArray@Data@@@std@@@std@@@std@@_N@1@$$QEAUByteArray@Data@@@Z
	??$emplace@VStringIDRef@App@@@?$QGenericArrayOps@VStringIDRef@App@@@QtPrivate@@QEAAX_J$$QEAVStringIDRef@App@@@Z
	??$emplace_back@AEAN@?$vector@V?$basic_json@Vmap@std@@Vvector@2@V?$basic_string@DU?$char_traits@D@std@@V?$allocator@D@2@@2@_N_J_KNVallocator@2@Uadl_serializer@json_abi_v3_12_0@nlohmann@@V?$vector@EV?$allocator@E@std@@@2@X@json_abi_v3_12_0@nlohmann@@V?$allocator@V?$basic_json@Vmap@std@@Vvector@2@V?$basic_string@DU?$char_traits@D@std@@V?$allocator@D@2@@2@_N_J_KNVallocator@2@Uadl_serializer@json_abi_v3_12_0@nlohmann@@V?$vector@EV?$allocator@E@std@@@2@X@json_abi_v3_12_0@nlohmann@@@std@@@std@@QEAAAEAV?$basic_json@Vmap@std@@Vvector@2@V?$basic_string@DU?$char_traits@D@std@@V?$allocator@D@2@@2@_N_J_KNVallocator@2@Uadl_serializer@json_abi_v3_12_0@nlohmann@@V?$vector@EV?$allocator@E@std@@@2@X@json_abi_v3_12_0@nlohmann@@AEAN@Z
	??$emplace_back@AEA_N@?$vector@V?$basic_json@Vmap@std@@Vvector@2@V?$basic_string@DU?$char_traits@D@std@@V?$allocator@D@2@@2@_N_J_KNVallocator@2@Uadl_serializer@json_abi_v3_12_0@nlohmann@@V?$vector@EV?$allocator@E@std@@@2@X@json_abi_v3_12_0@nlohmann@@V?$allocator@V?$basic_json@Vmap@std@@Vvector@2@V?$basic_string@DU?$char_traits@D@std@@V?$allocator@D@2@@2@_N_J_KNVallocator@2@Uadl_serializer@json_abi_v3_12_0@nlohmann@@V?$vector@EV?$allocator@E@std@@@2@X@json_abi_v3_12_0@nlohmann@@@std@@@std@@QEAAAEAV?$basic_json@Vmap@std@@Vvector@2@V?$basic_string@DU?$char_traits@D@std@@V?$allocator@D@2@@2@_N_J_KNVallocator@2@Uadl_serializer@json_abi_v3_12_0@nlohmann@@V?$vector@EV?$allocator@E@std@@@2@X@json_abi_v3_12_0@nlohmann@@AEA_N@Z
	??$endl@DU?$char_traits@D@std@@@std@@YAAEAV?$basic_ostream@DU?$char_traits@D@std@@@0@AEAV10@@Z
	??$erase@V?$_Tree_iterator@V?$_Tree_val@U?$_Tree_simple_types@U?$pair@$$CBVIndexedName@Data@@V?$map@UNameKey@oreo@@UNameInfo@2@U?$less@UNameKey@oreo@@@std@@V?$allocator@U?$pair@$$CBUNameKey@oreo@@UNameInfo@2@@std@@@5@@std@@@std@@@std@@@std@@@std@@$0A@@?$_Tree@V?$_Tmap_traits@VIndexedName@Data@@V?$map@UNameKey@oreo@@UNameInfo@2@U?$less@UNameKey@oreo@@@std@@V?$allocator@U?$pair@$$CBUNameKey@oreo@@UNameInfo@2@@std@@@5@@std@@U?$less@VIndexedName@Data@@@4@V?$allocator@U?$pair@$$CBVIndexedName@Data@@V?$map@UNameKey@oreo@@UNameInfo@2@U?$less@UNameKey@oreo@@@std@@V?$allocator@U?$pair@$$CBUNameKey@oreo@@UNameInfo@2@@std@@@5@@std@@@std@@@4@$0A@@std@@@std@@QEAA?AV?$_Tree_iterator@V?$_Tree_val@U?$_Tree_simple_types@U?$pair@$$CBVIndexedName@Data@@V?$map@UNameKey@oreo@@UNameInfo@2@U?$less@UNameKey@oreo@@@std@@V?$allocator@U?$pair@$$CBUNameKey@oreo@@UNameInfo@2@@std@@@5@@std@@@std@@@std@@@std@@@1@V21@@Z
	??$erase@V?$iter_impl@V?$basic_json@Vmap@std@@Vvector@2@V?$basic_string@DU?$char_traits@D@std@@V?$allocator@D@2@@2@_N_J_KNVallocator@2@Uadl_serializer@json_abi_v3_12_0@nlohmann@@V?$vector@EV?$allocator@E@std@@@2@X@json_abi_v3_12_0@nlohmann@@@detail@json_abi_v3_12_0@nlohmann@@$0A@@?$basic_json@Vmap@std@@Vvector@2@V?$basic_string@DU?$char_traits@D@std@@V?$allocator@D@2@@2@_N_J_KNVallocator@2@Uadl_serializer@json_abi_v3_12_0@nlohmann@@V?$vector@EV?$allocator@E@std@@@2@X@json_abi_v3_12_0@nlohmann@@QEAA?AV?$iter_impl@V?$basic_json@Vmap@std@@Vvector@2@V?$basic_string@DU?$char_traits@D@std@@V?$allocator@D@2@@2@_N_J_KNVallocator@2@Uadl_serializer@json_abi_v3_12_0@nlohmann@@V?$vector@EV?$allocator@E@std@@@2@X@json_abi_v3_12_0@nlohmann@@@detail@12@V3412@@Z
	??$etree_find@HV?$Matrix@H$0?0$00$0A@$0?0$00@Eigen@@@internal@Eigen@@YAHHAEAV?$Matrix@H$0?0$00$0A@$0?0$00@1@@Z
	??$evalTo@V?$Matrix@N$0?0$0?0$0A@$0?0$0?0@Eigen@@@?$FullPivHouseholderQRMatrixQReturnType@V?$Matrix@N$0?0$0?0$0A@$0?0$0?0@Eigen@@H@internal@Eigen@@QEBAXAEAV?$Matrix@N$0?0$0?0$0A@$0?0$0?0@2@AEAV?$Matrix@N$00$0?0$00$00$0?0@2@@Z
	??$evalTo@V?$Matrix@N$0?0$0?0$0A@$0?0$0?0@Eigen@@@?$generic_product_impl@V?$Matrix@N$0?0$0?0$0A@$0?0$0?0@Eigen@@V12@UDenseShape@2@U32@$07@internal@Eigen@@SAXAEAV?$Matrix@N$0?0$0?0$0A@$0?0$0?0@2@AEBV32@1@Z
	??$evalTo@V?$Matrix@N$0?0$0?0$0A@$0?0$0?0@Eigen@@@?$generic_product_impl@V?$Matrix@N$0?0$0?0$0A@$0?0$0?0@Eigen@@V?$Transpose@$$CBV?$Matrix@N$0?0$0?0$0A@$0?0$0?0@Eigen@@@2@UDenseShape@2@U42@$07@internal@Eigen@@SAXAEAV?$Matrix@N$0?0$0?0$0A@$0?0$0?0@2@AEBV32@AEBV?$Transpose@$$CBV?$Matrix@N$0?0$0?0$0A@$0?0$0?0@Eigen@@@2@@Z
	??$evalTo@V?$Matrix@N$0?0$0?0$0A@$0?0$0?0@Eigen@@@?$generic_product_impl@V?$Product@V?$Transpose@V?$Matrix@N$0?0$0?0$0A@$0?0$0?0@Eigen@@@Eigen@@V?$Matrix@N$0?0$0?0$0A@$0?0$0?0@2@$0A@@Eigen@@V?$Matrix@N$0?0$0?0$0A@$0?0$0?0@2@UDenseShape@2@U42@$07@internal@Eigen@@SAXAEAV?$Matrix@N$0?0$0?0$0A@$0?0$0?0@2@AEBV?$Product@V?$Transpose@V?$Matrix@N$0?0$0?0$0A@$0?0$0?0@Eigen@@@Eigen@@V?$Matrix@N$0?0$0?0$0A@$0?0$0?0@2@$0A@@2@AEBV32@@Z
	??$evalTo@V?$Matrix@N$0?0$0?0$0A@$0?0$0?0@Eigen@@@?$generic_product_impl@V?$Transpose@V?$Matrix@N$0?0$0?0$0A@$0?0$0?0@Eigen@@@Eigen@@V?$Matrix@N$0?0$0?0$0A@$0?0$0?0@2@UDenseShape@2@U42@$07@internal@Eigen@@SAXAEAV?$Matrix@N$0?0$0?0$0A@$0?0$0?0@2@AEBV?$Transpose@V?$Matrix@N$0?0$0?0$0A@$0?0$0?0@Eigen@@@2@AEBV32@@Z
	??$evalTo@V?$Matrix@N$0?0$0?0$0A@$0?0$0?0@Eigen@@@?$triangular_solve_retval@$01V?$TriangularView@$$CBV?$Transpose@$$CBV?$Block@$$CBV?$Matrix@N$0?0$0?0$0A@$0?0$0?0@Eigen@@$0?0$0?0$0A@@Eigen@@@Eigen@@$00@Eigen@@V?$Block@V?$Matrix@N$0?0$0?0$0A@$0?0$0?0@Eigen@@$0?0$0?0$00@2@@internal@Eigen@@QEBAXAEAV?$Matrix@N$0?0$0?0$0A@$0?0$0?0@2@@Z
	??$evaluateProductBlockingSizesHeuristic@NN$00_J@internal@Eigen@@YAXAEA_J00_J@Z
	??$evaluateProductBlockingSizesHeuristic@NN$03_J@internal@Eigen@@YAXAEA_J00_J@Z
	??$execute_all@V?$member_close_operation@V?$linked_streambuf@DU?$char_traits@D@std@@@detail@iostreams@boost@@@detail@iostreams@boost@@@detail@iostreams@boost@@YAHV?$member_close_operation@V?$linked_streambuf@DU?$char_traits@D@std@@@detail@iostreams@boost@@@012@@Z
	??$execute_all@V?$member_close_operation@V?$linked_streambuf@DU?$char_traits@D@std@@@detail@iostreams@boost@@@detail@iostreams@boost@@V1234@@detail@iostreams@boost@@YAHV?$member_close_operation@V?$linked_streambuf@DU?$char_traits@D@std@@@detail@iostreams@boost@@@012@0@Z
	??$execute_all@V?$member_close_operation@V?$linked_streambuf@DU?$char_traits@D@std@@@detail@iostreams@boost@@@detail@iostreams@boost@@V1234@V?$reset_operation@V?$optional@U?$basic_array_source@D@iostreams@boost@@@detail@iostreams@boost@@@234@@detail@iostreams@boost@@YAHV?$member_close_operation@V?$linked_streambuf@DU?$char_traits@D@std@@@detail@iostreams@boost@@@012@0V?$reset_operation@V?$optional@U?$basic_array_source@D@iostreams@boost@@@detail@iostreams@boost@@@012@@Z
	??$fill@PEAV?$_List_unchecked_const_iterator@V?$_List_val@U?$_List_simple_types@UByteArray@Data@@@std@@@std@@U_Iterator_base0@2@@std@@V12@@std@@YAXQEAV?$_List_unchecked_const_iterator@V?$_List_val@U?$_List_simple_types@UByteArray@Data@@@std@@@std@@U_Iterator_base0@2@@0@0AEBV10@@Z
	??$fill@PEAV?$_List_unchecked_iterator@V?$_List_val@U?$_List_simple_types@U?$pair@$$CBIV?$shared_ptr@VElementMap@Data@@@std@@@std@@@std@@@std@@@std@@V12@@std@@YAXQEAV?$_List_unchecked_iterator@V?$_List_val@U?$_List_simple_types@U?$pair@$$CBIV?$shared_ptr@VElementMap@Data@@@std@@@std@@@std@@@std@@@0@0AEBV10@@Z
	??$fill@PEAV?$_List_unchecked_iterator@V?$_List_val@U?$_List_simple_types@U?$pair@$$CBV?$basic_string@DU?$char_traits@D@std@@V?$allocator@D@2@@std@@H@std@@@std@@@std@@@std@@V12@@std@@YAXQEAV?$_List_unchecked_iterator@V?$_List_val@U?$_List_simple_types@U?$pair@$$CBV?$basic_string@DU?$char_traits@D@std@@V?$allocator@D@2@@std@@H@std@@@std@@@std@@@0@0AEBV10@@Z
	??$fill@PEAV?$_List_unchecked_iterator@V?$_List_val@U?$_List_simple_types@U?$pair@QEBVElementMap@Data@@I@std@@@std@@@std@@@std@@V12@@std@@YAXQEAV?$_List_unchecked_iterator@V?$_List_val@U?$_List_simple_types@U?$pair@QEBVElementMap@Data@@I@std@@@std@@@std@@@0@0AEBV10@@Z
	??$fill_n@PEAH_JH@std@@YAPEAHPEAH_JAEBH@Z
	??$find@$$BY04DU?$less@X@std@@$0A@@?$_Tree@V?$_Tmap_traits@V?$basic_string@DU?$char_traits@D@std@@V?$allocator@D@2@@std@@V?$basic_json@Vmap@std@@Vvector@2@V?$basic_string@DU?$char_traits@D@std@@V?$allocator@D@2@@2@_N_J_KNVallocator@2@Uadl_serializer@json_abi_v3_12_0@nlohmann@@V?$vector@EV?$allocator@E@std@@@2@X@json_abi_v3_12_0@nlohmann@@U?$less@X@2@V?$allocator@U?$pair@$$CBV?$basic_string@DU?$char_traits@D@std@@V?$allocator@D@2@@std@@V?$basic_json@Vmap@std@@Vvector@2@V?$basic_string@DU?$char_traits@D@std@@V?$allocator@D@2@@2@_N_J_KNVallocator@2@Uadl_serializer@json_abi_v3_12_0@nlohmann@@V?$vector@EV?$allocator@E@std@@@2@X@json_abi_v3_12_0@nlohmann@@@std@@@2@$0A@@std@@@std@@QEAA?AV?$_Tree_iterator@V?$_Tree_val@U?$_Tree_simple_types@U?$pair@$$CBV?$basic_string@DU?$char_traits@D@std@@V?$allocator@D@2@@std@@V?$basic_json@Vmap@std@@Vvector@2@V?$basic_string@DU?$char_traits@D@std@@V?$allocator@D@2@@2@_N_J_KNVallocator@2@Uadl_serializer@json_abi_v3_12_0@nlohmann@@V?$vector@EV?$allocator@E@std@@@2@X@json_abi_v3_12_0@nlohmann@@@std@@@std@@@std@@@1@AEAY04$$CBD@Z
	??$find@$$BY05DU?$less@X@std@@$0A@@?$_Tree@V?$_Tmap_traits@V?$basic_string@DU?$char_traits@D@std@@V?$allocator@D@2@@std@@V?$basic_json@Vmap@std@@Vvector@2@V?$basic_string@DU?$char_traits@D@std@@V?$allocator@D@2@@2@_N_J_KNVallocator@2@Uadl_serializer@json_abi_v3_12_0@nlohmann@@V?$vector@EV?$allocator@E@std@@@2@X@json_abi_v3_12_0@nlohmann@@U?$less@X@2@V?$allocator@U?$pair@$$CBV?$basic_string@DU?$char_traits@D@std@@V?$allocator@D@2@@std@@V?$basic_json@Vmap@std@@Vvector@2@V?$basic_string@DU?$char_traits@D@std@@V?$allocator@D@2@@2@_N_J_KNVallocator@2@Uadl_serializer@json_abi_v3_12_0@nlohmann@@V?$vector@EV?$allocator@E@std@@@2@X@json_abi_v3_12_0@nlohmann@@@std@@@2@$0A@@std@@@std@@QEAA?AV?$_Tree_iterator@V?$_Tree_val@U?$_Tree_simple_types@U?$pair@$$CBV?$basic_string@DU?$char_traits@D@std@@V?$allocator@D@2@@std@@V?$basic_json@Vmap@std@@Vvector@2@V?$basic_string@DU?$char_traits@D@std@@V?$allocator@D@2@@2@_N_J_KNVallocator@2@Uadl_serializer@json_abi_v3_12_0@nlohmann@@V?$vector@EV?$allocator@E@std@@@2@X@json_abi_v3_12_0@nlohmann@@@std@@@std@@@std@@@1@AEAY05$$CBD@Z
	??$find@$$BY09DU?$less@X@std@@$0A@@?$_Tree@V?$_Tmap_traits@V?$basic_string@DU?$char_traits@D@std@@V?$allocator@D@2@@std@@V?$basic_json@Vmap@std@@Vvector@2@V?$basic_string@DU?$char_traits@D@std@@V?$allocator@D@2@@2@_N_J_KNVallocator@2@Uadl_serializer@json_abi_v3_12_0@nlohmann@@V?$vector@EV?$allocator@E@std@@@2@X@json_abi_v3_12_0@nlohmann@@U?$less@X@2@V?$allocator@U?$pair@$$CBV?$basic_string@DU?$char_traits@D@std@@V?$allocator@D@2@@std@@V?$basic_json@Vmap@std@@Vvector@2@V?$basic_string@DU?$char_traits@D@std@@V?$allocator@D@2@@2@_N_J_KNVallocator@2@Uadl_serializer@json_abi_v3_12_0@nlohmann@@V?$vector@EV?$allocator@E@std@@@2@X@json_abi_v3_12_0@nlohmann@@@std@@@2@$0A@@std@@@std@@QEAA?AV?$_Tree_iterator@V?$_Tree_val@U?$_Tree_simple_types@U?$pair@$$CBV?$basic_string@DU?$char_traits@D@std@@V?$allocator@D@2@@std@@V?$basic_json@Vmap@std@@Vvector@2@V?$basic_string@DU?$char_traits@D@std@@V?$allocator@D@2@@2@_N_J_KNVallocator@2@Uadl_serializer@json_abi_v3_12_0@nlohmann@@V?$vector@EV?$allocator@E@std@@@2@X@json_abi_v3_12_0@nlohmann@@@std@@@std@@@std@@@1@AEAY09$$CBD@Z
	??$find@AEAY02$$CBD$0A@@?$basic_json@Vmap@std@@Vvector@2@V?$basic_string@DU?$char_traits@D@std@@V?$allocator@D@2@@2@_N_J_KNVallocator@2@Uadl_serializer@json_abi_v3_12_0@nlohmann@@V?$vector@EV?$allocator@E@std@@@2@X@json_abi_v3_12_0@nlohmann@@QEBA?AV?$iter_impl@$$CBV?$basic_json@Vmap@std@@Vvector@2@V?$basic_string@DU?$char_traits@D@std@@V?$allocator@D@2@@2@_N_J_KNVallocator@2@Uadl_serializer@json_abi_v3_12_0@nlohmann@@V?$vector@EV?$allocator@E@std@@@2@X@json_abi_v3_12_0@nlohmann@@@detail@12@AEAY02$$CBD@Z
	??$findBucketWithHash@VQByteArray@@@?$Data@U?$Node@VQByteArray@@UChildMapInfo@ElementMap@Data@@@QHashPrivate@@@QHashPrivate@@QEBA?AUBucket@01@AEBVQByteArray@@_K@Z
	??$findCoeff@V?$Block@V?$Matrix@N$00$0?0$00$00$0?0@Eigen@@$00$0?0$0A@@Eigen@@_JU?$max_coeff_functor@N$0A@$0A@@internal@2@@internal@Eigen@@YANAEBV?$DenseBase@V?$Block@V?$Matrix@N$00$0?0$00$00$0?0@Eigen@@$00$0?0$0A@@Eigen@@@1@AEAU?$max_coeff_functor@N$0A@$0A@@01@PEA_J@Z
	??$findCoeff@V?$CwiseUnaryOp@U?$scalar_abs_op@N@internal@Eigen@@$$CBV?$Block@V?$Diagonal@V?$Matrix@N$0?0$0?0$0A@$0?0$0?0@Eigen@@$0A@@Eigen@@$0?0$00$0A@@3@@Eigen@@_JU?$max_coeff_functor@N$0A@$0A@@internal@2@@internal@Eigen@@YANAEBV?$DenseBase@V?$CwiseUnaryOp@U?$scalar_abs_op@N@internal@Eigen@@$$CBV?$Block@V?$Diagonal@V?$Matrix@N$0?0$0?0$0A@$0?0$0?0@Eigen@@$0A@@Eigen@@$0?0$00$0A@@3@@Eigen@@@1@AEAU?$max_coeff_functor@N$0A@$0A@@01@PEA_J@Z
	??$findCoeff@V?$CwiseUnaryOp@U?$scalar_score_coeff_op@N@internal@Eigen@@$$CBV?$Block@V?$Matrix@N$0?0$0?0$0A@$0?0$0?0@Eigen@@$0?0$0?0$0A@@3@@Eigen@@_JU?$max_coeff_functor@N$0A@$0A@@internal@2@@internal@Eigen@@YANAEBV?$DenseBase@V?$CwiseUnaryOp@U?$scalar_score_coeff_op@N@internal@Eigen@@$$CBV?$Block@V?$Matrix@N$0?0$0?0$0A@$0?0$0?0@Eigen@@$0?0$0?0$0A@@3@@Eigen@@@1@AEAU?$max_coeff_functor@N$0A@$0A@@01@PEA_J2@Z
	??$flush@U?$basic_array_source@D@iostreams@boost@@@iostreams@boost@@YA_NAEAU?$basic_array_source@D@01@@Z
	??$fullPivLu@H@?$MatrixBase@V?$Product@V?$Matrix@N$0?0$0?0$0A@$0?0$0?0@Eigen@@V?$Transpose@$$CBV?$Matrix@N$0?0$0?0$0A@$0?0$0?0@Eigen@@@2@$0A@@Eigen@@@Eigen@@QEBA?BV?$FullPivLU@V?$Matrix@N$0?0$0?0$0A@$0?0$0?0@Eigen@@H@1@XZ
	??$get@$00V?$iter_impl@V?$basic_json@Vmap@std@@Vvector@2@V?$basic_string@DU?$char_traits@D@std@@V?$allocator@D@2@@2@_N_J_KNVallocator@2@Uadl_serializer@json_abi_v3_12_0@nlohmann@@V?$vector@EV?$allocator@E@std@@@2@X@json_abi_v3_12_0@nlohmann@@@detail@json_abi_v3_12_0@nlohmann@@$0A@@detail@json_abi_v3_12_0@nlohmann@@YAAEAV?$basic_json@Vmap@std@@Vvector@2@V?$basic_string@DU?$char_traits@D@std@@V?$allocator@D@2@@2@_N_J_KNVallocator@2@Uadl_serializer@json_abi_v3_12_0@nlohmann@@V?$vector@EV?$allocator@E@std@@@2@X@12@AEBV?$iteration_proxy_value@V?$iter_impl@V?$basic_json@Vmap@std@@Vvector@2@V?$basic_string@DU?$char_traits@D@std@@V?$allocator@D@2@@2@_N_J_KNVallocator@2@Uadl_serializer@json_abi_v3_12_0@nlohmann@@V?$vector@EV?$allocator@E@std@@@2@X@json_abi_v3_12_0@nlohmann@@@detail@json_abi_v3_12_0@nlohmann@@@012@@Z
	??$get@$0A@V?$iter_impl@V?$basic_json@Vmap@std@@Vvector@2@V?$basic_string@DU?$char_traits@D@std@@V?$allocator@D@2@@2@_N_J_KNVallocator@2@Uadl_serializer@json_abi_v3_12_0@nlohmann@@V?$vector@EV?$allocator@E@std@@@2@X@json_abi_v3_12_0@nlohmann@@@detail@json_abi_v3_12_0@nlohmann@@$0A@@detail@json_abi_v3_12_0@nlohmann@@YAAEBV?$basic_string@DU?$char_traits@D@std@@V?$allocator@D@2@@std@@AEBV?$iteration_proxy_value@V?$iter_impl@V?$basic_json@Vmap@std@@Vvector@2@V?$basic_string@DU?$char_traits@D@std@@V?$allocator@D@2@@2@_N_J_KNVallocator@2@Uadl_serializer@json_abi_v3_12_0@nlohmann@@V?$vector@EV?$allocator@E@std@@@2@X@json_abi_v3_12_0@nlohmann@@@detail@json_abi_v3_12_0@nlohmann@@@012@@Z
	??$get@H@Feature@oreo@@QEBAAEBHAEBV?$basic_string@DU?$char_traits@D@std@@V?$allocator@D@2@@std@@@Z
	??$get@HH@?$basic_json@Vmap@std@@Vvector@2@V?$basic_string@DU?$char_traits@D@std@@V?$allocator@D@2@@2@_N_J_KNVallocator@2@Uadl_serializer@json_abi_v3_12_0@nlohmann@@V?$vector@EV?$allocator@E@std@@@2@X@json_abi_v3_12_0@nlohmann@@QEBAHXZ
	??$get@N@Feature@oreo@@QEBAAEBNAEBV?$basic_string@DU?$char_traits@D@std@@V?$allocator@D@2@@std@@@Z
	??$get@NN@?$basic_json@Vmap@std@@Vvector@2@V?$basic_string@DU?$char_traits@D@std@@V?$allocator@D@2@@2@_N_J_KNVallocator@2@Uadl_serializer@json_abi_v3_12_0@nlohmann@@V?$vector@EV?$allocator@E@std@@@2@X@json_abi_v3_12_0@nlohmann@@QEBANXZ
	??$get@UElementRef@oreo@@@Feature@oreo@@QEBAAEBUElementRef@1@AEBV?$basic_string@DU?$char_traits@D@std@@V?$allocator@D@2@@std@@@Z
	??$get@Uleft@member_at@relation@bimaps@boost@@V?$mutant_relation@U?$tagged@QEAVStringID@App@@Uleft@member_at@relation@bimaps@boost@@@tags@bimaps@boost@@U?$tagged@$$CBJUright@member_at@relation@bimaps@boost@@@234@Una@mpl@4@$00@345@Ucore_indices@?$bimap_core@U?$unordered_set_of@PEAVStringID@App@@UStringIDHasher@@U3@@bimaps@boost@@U?$set_of@JU?$less@J@std@@@23@Una@mpl@3@U563@U563@@detail@45@V?$allocator@V?$mutant_relation@U?$tagged@QEAVStringID@App@@Uleft@member_at@relation@bimaps@boost@@@tags@bimaps@boost@@U?$tagged@$$CBJUright@member_at@relation@bimaps@boost@@@234@Una@mpl@4@$00@relation@bimaps@boost@@@std@@@multi_index@boost@@YAAEAV?$hashed_index@U?$member@V?$relation_storage@U?$tagged@QEAVStringID@App@@Uleft@member_at@relation@bimaps@boost@@@tags@bimaps@boost@@U?$tagged@$$CBJUright@member_at@relation@bimaps@boost@@@234@$00@detail@relation@bimaps@boost@@PEAVStringID@App@@$0A@@multi_index@boost@@UStringIDHasher@@U4@U?$nth_layer@$01V?$mutant_relation@U?$tagged@QEAVStringID@App@@Uleft@member_at@relation@bimaps@boost@@@tags@bimaps@boost@@U?$tagged@$$CBJUright@member_at@relation@bimaps@boost@@@234@Una@mpl@4@$00@relation@bimaps@boost@@Ucore_indices@?$bimap_core@U?$unordered_set_of@PEAVStringID@App@@UStringIDHasher@@U3@@bimaps@boost@@U?$set_of@JU?$less@J@std@@@23@Una@mpl@3@U563@U563@@detail@34@V?$allocator@V?$mutant_relation@U?$tagged@QEAVStringID@App@@Uleft@member_at@relation@bimaps@boost@@@tags@bimaps@boost@@U?$tagged@$$CBJUright@member_at@relation@bimaps@boost@@@234@Una@mpl@4@$00@relation@bimaps@boost@@@std@@@detail@23@U?$vector1@Uleft@member_at@relation@bimaps@boost@@@mpl@3@Uhashed_unique_tag@623@@detail@01@AEAV?$multi_index_container@V?$mutant_relation@U?$tagged@QEAVStringID@App@@Uleft@member_at@relation@bimaps@boost@@@tags@bimaps@boost@@U?$tagged@$$CBJUright@member_at@relation@bimaps@boost@@@234@Una@mpl@4@$00@relation@bimaps@boost@@Ucore_indices@?$bimap_core@U?$unordered_set_of@PEAVStringID@App@@UStringIDHasher@@U3@@bimaps@boost@@U?$set_of@JU?$less@J@std@@@23@Una@mpl@3@U563@U563@@detail@34@V?$allocator@V?$mutant_relation@U?$tagged@QEAVStringID@App@@Uleft@member_at@relation@bimaps@boost@@@tags@bimaps@boost@@U?$tagged@$$CBJUright@member_at@relation@bimaps@boost@@@234@Una@mpl@4@$00@relation@bimaps@boost@@@std@@@01@@Z
	??$get@Uright@member_at@relation@bimaps@boost@@V?$mutant_relation@U?$tagged@QEAVStringID@App@@Uleft@member_at@relation@bimaps@boost@@@tags@bimaps@boost@@U?$tagged@$$CBJUright@member_at@relation@bimaps@boost@@@234@Una@mpl@4@$00@345@Ucore_indices@?$bimap_core@U?$unordered_set_of@PEAVStringID@App@@UStringIDHasher@@U3@@bimaps@boost@@U?$set_of@JU?$less@J@std@@@23@Una@mpl@3@U563@U563@@detail@45@V?$allocator@V?$mutant_relation@U?$tagged@QEAVStringID@App@@Uleft@member_at@relation@bimaps@boost@@@tags@bimaps@boost@@U?$tagged@$$CBJUright@member_at@relation@bimaps@boost@@@234@Una@mpl@4@$00@relation@bimaps@boost@@@std@@@multi_index@boost@@YAAEAV?$ordered_index@U?$member@V?$relation_storage@U?$tagged@QEAVStringID@App@@Uleft@member_at@relation@bimaps@boost@@@tags@bimaps@boost@@U?$tagged@$$CBJUright@member_at@relation@bimaps@boost@@@234@$00@detail@relation@bimaps@boost@@J$07@multi_index@boost@@U?$less@J@std@@U?$nth_layer@$00V?$mutant_relation@U?$tagged@QEAVStringID@App@@Uleft@member_at@relation@bimaps@boost@@@tags@bimaps@boost@@U?$tagged@$$CBJUright@member_at@relation@bimaps@boost@@@234@Una@mpl@4@$00@relation@bimaps@boost@@Ucore_indices@?$bimap_core@U?$unordered_set_of@PEAVStringID@App@@UStringIDHasher@@U3@@bimaps@boost@@U?$set_of@JU?$less@J@std@@@23@Una@mpl@3@U563@U563@@detail@34@V?$allocator@V?$mutant_relation@U?$tagged@QEAVStringID@App@@Uleft@member_at@relation@bimaps@boost@@@tags@bimaps@boost@@U?$tagged@$$CBJUright@member_at@relation@bimaps@boost@@@234@Una@mpl@4@$00@relation@bimaps@boost@@@std@@@detail@23@U?$vector1@Uright@member_at@relation@bimaps@boost@@@mpl@3@Uordered_unique_tag@723@Unull_augment_policy@723@@detail@01@AEAV?$multi_index_container@V?$mutant_relation@U?$tagged@QEAVStringID@App@@Uleft@member_at@relation@bimaps@boost@@@tags@bimaps@boost@@U?$tagged@$$CBJUright@member_at@relation@bimaps@boost@@@234@Una@mpl@4@$00@relation@bimaps@boost@@Ucore_indices@?$bimap_core@U?$unordered_set_of@PEAVStringID@App@@UStringIDHasher@@U3@@bimaps@boost@@U?$set_of@JU?$less@J@std@@@23@Una@mpl@3@U563@U563@@detail@34@V?$allocator@V?$mutant_relation@U?$tagged@QEAVStringID@App@@Uleft@member_at@relation@bimaps@boost@@@tags@bimaps@boost@@U?$tagged@$$CBJUright@member_at@relation@bimaps@boost@@@234@Una@mpl@4@$00@relation@bimaps@boost@@@std@@@01@@Z
	??$get@V?$basic_string@DU?$char_traits@D@std@@V?$allocator@D@2@@std@@V12@@?$basic_json@Vmap@std@@Vvector@2@V?$basic_string@DU?$char_traits@D@std@@V?$allocator@D@2@@2@_N_J_KNVallocator@2@Uadl_serializer@json_abi_v3_12_0@nlohmann@@V?$vector@EV?$allocator@E@std@@@2@X@json_abi_v3_12_0@nlohmann@@QEBA?AV?$basic_string@DU?$char_traits@D@std@@V?$allocator@D@2@@std@@XZ
	??$get@V?$vector@UElementRef@oreo@@V?$allocator@UElementRef@oreo@@@std@@@std@@@Feature@oreo@@QEBAAEBV?$vector@UElementRef@oreo@@V?$allocator@UElementRef@oreo@@@std@@@std@@AEBV?$basic_string@DU?$char_traits@D@std@@V?$allocator@D@2@@3@@Z
	??$get@Vgp_Ax1@@@Feature@oreo@@QEBAAEBVgp_Ax1@@AEBV?$basic_string@DU?$char_traits@D@std@@V?$allocator@D@2@@std@@@Z
	??$get@Vgp_Dir@@@Feature@oreo@@QEBAAEBVgp_Dir@@AEBV?$basic_string@DU?$char_traits@D@std@@V?$allocator@D@2@@std@@@Z
	??$get@Vgp_Pnt@@@Feature@oreo@@QEBAAEBVgp_Pnt@@AEBV?$basic_string@DU?$char_traits@D@std@@V?$allocator@D@2@@std@@@Z
	??$get@Vgp_Vec@@@Feature@oreo@@QEBAAEBVgp_Vec@@AEBV?$basic_string@DU?$char_traits@D@std@@V?$allocator@D@2@@std@@@Z
	??$get@_N_N@?$basic_json@Vmap@std@@Vvector@2@V?$basic_string@DU?$char_traits@D@std@@V?$allocator@D@2@@2@_N_J_KNVallocator@2@Uadl_serializer@json_abi_v3_12_0@nlohmann@@V?$vector@EV?$allocator@E@std@@@2@X@json_abi_v3_12_0@nlohmann@@QEBA_NXZ
	??$getOr@UElementRef@oreo@@@Feature@oreo@@QEBA?AUElementRef@1@AEBV?$basic_string@DU?$char_traits@D@std@@V?$allocator@D@2@@std@@AEBU21@@Z
	??$get_arithmetic_value@V?$basic_json@Vmap@std@@Vvector@2@V?$basic_string@DU?$char_traits@D@std@@V?$allocator@D@2@@2@_N_J_KNVallocator@2@Uadl_serializer@json_abi_v3_12_0@nlohmann@@V?$vector@EV?$allocator@E@std@@@2@X@json_abi_v3_12_0@nlohmann@@N$0A@@detail@json_abi_v3_12_0@nlohmann@@YAXAEBV?$basic_json@Vmap@std@@Vvector@2@V?$basic_string@DU?$char_traits@D@std@@V?$allocator@D@2@@2@_N_J_KNVallocator@2@Uadl_serializer@json_abi_v3_12_0@nlohmann@@V?$vector@EV?$allocator@E@std@@@2@X@12@AEAN@Z
	??$get_default_starting_vertex@V?$adjacency_list@UvecS@boost@@U12@UundirectedS@2@Uno_property@2@U42@U42@UlistS@2@@boost@@@detail@boost@@YA_KAEBV?$adjacency_list@UvecS@boost@@U12@UundirectedS@2@Uno_property@2@U42@U42@UlistS@2@@1@@Z
	??$get_local_deleter@U?$checked_array_deleter@W4default_color_type@boost@@@checked_deleters@boost@@@detail@boost@@YAPEAU?$checked_array_deleter@W4default_color_type@boost@@@checked_deleters@1@PEAU231@@Z
	??$get_runtime_value@H@internal@Eigen@@YA_JAEBH@Z
	??$get_runtime_value@_J@internal@Eigen@@YA_JAEB_J@Z
	??$get_runtime_value@_K@internal@Eigen@@YA_JAEB_K@Z
	??$getline@DU?$char_traits@D@std@@V?$allocator@D@2@@std@@YAAEAV?$basic_istream@DU?$char_traits@D@std@@@0@$$QEAV10@AEAV?$basic_string@DU?$char_traits@D@std@@V?$allocator@D@2@@0@D@Z
	??$getline@DU?$char_traits@D@std@@V?$allocator@D@2@@std@@YAAEAV?$basic_istream@DU?$char_traits@D@std@@@0@AEAV10@AEAV?$basic_string@DU?$char_traits@D@std@@V?$allocator@D@2@@0@@Z
	??$grisu2@N@dtoa_impl@detail@json_abi_v3_12_0@nlohmann@@YAXPEADAEAH1N@Z
	??$handle_value@$$T@?$json_sax_dom_callback_parser@V?$basic_json@Vmap@std@@Vvector@2@V?$basic_string@DU?$char_traits@D@std@@V?$allocator@D@2@@2@_N_J_KNVallocator@2@Uadl_serializer@json_abi_v3_12_0@nlohmann@@V?$vector@EV?$allocator@E@std@@@2@X@json_abi_v3_12_0@nlohmann@@V?$iterator_input_adapter@V?$_String_const_iterator@V?$_String_val@U?$_Simple_types@D@std@@@std@@@std@@@detail@23@@detail@json_abi_v3_12_0@nlohmann@@AEAA?AU?$pair@_NPEAV?$basic_json@Vmap@std@@Vvector@2@V?$basic_string@DU?$char_traits@D@std@@V?$allocator@D@2@@2@_N_J_KNVallocator@2@Uadl_serializer@json_abi_v3_12_0@nlohmann@@V?$vector@EV?$allocator@E@std@@@2@X@json_abi_v3_12_0@nlohmann@@@std@@$$QEA$$T_N@Z
	??$handle_value@AEAN@?$json_sax_dom_callback_parser@V?$basic_json@Vmap@std@@Vvector@2@V?$basic_string@DU?$char_traits@D@std@@V?$allocator@D@2@@2@_N_J_KNVallocator@2@Uadl_serializer@json_abi_v3_12_0@nlohmann@@V?$vector@EV?$allocator@E@std@@@2@X@json_abi_v3_12_0@nlohmann@@V?$iterator_input_adapter@V?$_String_const_iterator@V?$_String_val@U?$_Simple_types@D@std@@@std@@@std@@@detail@23@@detail@json_abi_v3_12_0@nlohmann@@AEAA?AU?$pair@_NPEAV?$basic_json@Vmap@std@@Vvector@2@V?$basic_string@DU?$char_traits@D@std@@V?$allocator@D@2@@2@_N_J_KNVallocator@2@Uadl_serializer@json_abi_v3_12_0@nlohmann@@V?$vector@EV?$allocator@E@std@@@2@X@json_abi_v3_12_0@nlohmann@@@std@@AEAN_N@Z
	??$handle_value@AEAV?$basic_string@DU?$char_traits@D@std@@V?$allocator@D@2@@std@@@?$json_sax_dom_callback_parser@V?$basic_json@Vmap@std@@Vvector@2@V?$basic_string@DU?$char_traits@D@std@@V?$allocator@D@2@@2@_N_J_KNVallocator@2@Uadl_serializer@json_abi_v3_12_0@nlohmann@@V?$vector@EV?$allocator@E@std@@@2@X@json_abi_v3_12_0@nlohmann@@V?$iterator_input_adapter@V?$_String_const_iterator@V?$_String_val@U?$_Simple_types@D@std@@@std@@@std@@@detail@23@@detail@json_abi_v3_12_0@nlohmann@@AEAA?AU?$pair@_NPEAV?$basic_json@Vmap@std@@Vvector@2@V?$basic_string@DU?$char_traits@D@std@@V?$allocator@D@2@@2@_N_J_KNVallocator@2@Uadl_serializer@json_abi_v3_12_0@nlohmann@@V?$vector@EV?$allocator@E@std@@@2@X@json_abi_v3_12_0@nlohmann@@@std@@AEAV?$basic_string@DU?$char_traits@D@std@@V?$allocator@D@2@@5@_N@Z
	??$handle_value@AEA_J@?$json_sax_dom_callback_parser@V?$basic_json@Vmap@std@@Vvector@2@V?$basic_string@DU?$char_traits@D@std@@V?$allocator@D@2@@2@_N_J_KNVallocator@2@Uadl_serializer@json_abi_v3_12_0@nlohmann@@V?$vector@EV?$allocator@E@std@@@2@X@json_abi_v3_12_0@nlohmann@@V?$iterator_input_adapter@V?$_String_const_iterator@V?$_String_val@U?$_Simple_types@D@std@@@std@@@std@@@detail@23@@detail@json_abi_v3_12_0@nlohmann@@AEAA?AU?$pair@_NPEAV?$basic_json@Vmap@std@@Vvector@2@V?$basic_string@DU?$char_traits@D@std@@V?$allocator@D@2@@2@_N_J_KNVallocator@2@Uadl_serializer@json_abi_v3_12_0@nlohmann@@V?$vector@EV?$allocator@E@std@@@2@X@json_abi_v3_12_0@nlohmann@@@std@@AEA_J_N@Z
	??$handle_value@AEA_K@?$json_sax_dom_callback_parser@V?$basic_json@Vmap@std@@Vvector@2@V?$basic_string@DU?$char_traits@D@std@@V?$allocator@D@2@@2@_N_J_KNVallocator@2@Uadl_serializer@json_abi_v3_12_0@nlohmann@@V?$vector@EV?$allocator@E@std@@@2@X@json_abi_v3_12_0@nlohmann@@V?$iterator_input_adapter@V?$_String_const_iterator@V?$_String_val@U?$_Simple_types@D@std@@@std@@@std@@@detail@23@@detail@json_abi_v3_12_0@nlohmann@@AEAA?AU?$pair@_NPEAV?$basic_json@Vmap@std@@Vvector@2@V?$basic_string@DU?$char_traits@D@std@@V?$allocator@D@2@@2@_N_J_KNVallocator@2@Uadl_serializer@json_abi_v3_12_0@nlohmann@@V?$vector@EV?$allocator@E@std@@@2@X@json_abi_v3_12_0@nlohmann@@@std@@AEA_K_N@Z
	??$handle_value@AEA_N@?$json_sax_dom_callback_parser@V?$basic_json@Vmap@std@@Vvector@2@V?$basic_string@DU?$char_traits@D@std@@V?$allocator@D@2@@2@_N_J_KNVallocator@2@Uadl_serializer@json_abi_v3_12_0@nlohmann@@V?$vector@EV?$allocator@E@std@@@2@X@json_abi_v3_12_0@nlohmann@@V?$iterator_input_adapter@V?$_String_const_iterator@V?$_String_val@U?$_Simple_types@D@std@@@std@@@std@@@detail@23@@detail@json_abi_v3_12_0@nlohmann@@AEAA?AU?$pair@_NPEAV?$basic_json@Vmap@std@@Vvector@2@V?$basic_string@DU?$char_traits@D@std@@V?$allocator@D@2@@2@_N_J_KNVallocator@2@Uadl_serializer@json_abi_v3_12_0@nlohmann@@V?$vector@EV?$allocator@E@std@@@2@X@json_abi_v3_12_0@nlohmann@@@std@@AEA_N_N@Z
	??$handle_value@W4value_t@detail@json_abi_v3_12_0@nlohmann@@@?$json_sax_dom_callback_parser@V?$basic_json@Vmap@std@@Vvector@2@V?$basic_string@DU?$char_traits@D@std@@V?$allocator@D@2@@2@_N_J_KNVallocator@2@Uadl_serializer@json_abi_v3_12_0@nlohmann@@V?$vector@EV?$allocator@E@std@@@2@X@json_abi_v3_12_0@nlohmann@@V?$iterator_input_adapter@V?$_String_const_iterator@V?$_String_val@U?$_Simple_types@D@std@@@std@@@std@@@detail@23@@detail@json_abi_v3_12_0@nlohmann@@AEAA?AU?$pair@_NPEAV?$basic_json@Vmap@std@@Vvector@2@V?$basic_string@DU?$char_traits@D@std@@V?$allocator@D@2@@2@_N_J_KNVallocator@2@Uadl_serializer@json_abi_v3_12_0@nlohmann@@V?$vector@EV?$allocator@E@std@@@2@X@json_abi_v3_12_0@nlohmann@@@std@@$$QEAW4value_t@123@_N@Z
	??$handle_value@W4value_t@detail@json_abi_v3_12_0@nlohmann@@@?$json_sax_dom_parser@V?$basic_json@Vmap@std@@Vvector@2@V?$basic_string@DU?$char_traits@D@std@@V?$allocator@D@2@@2@_N_J_KNVallocator@2@Uadl_serializer@json_abi_v3_12_0@nlohmann@@V?$vector@EV?$allocator@E@std@@@2@X@json_abi_v3_12_0@nlohmann@@V?$iterator_input_adapter@V?$_String_const_iterator@V?$_String_val@U?$_Simple_types@D@std@@@std@@@std@@@detail@23@@detail@json_abi_v3_12_0@nlohmann@@AEAAPEAV?$basic_json@Vmap@std@@Vvector@2@V?$basic_string@DU?$char_traits@D@std@@V?$allocator@D@2@@2@_N_J_KNVallocator@2@Uadl_serializer@json_abi_v3_12_0@nlohmann@@V?$vector@EV?$allocator@E@std@@@2@X@23@$$QEAW4value_t@123@@Z
	??$hash@H_K@opencascade@@YA_KH@Z
	??$hash@PEAVTopoDS_TShape@@_K@opencascade@@YA_KQEAVTopoDS_TShape@@@Z
	??$hashBytes@_K_K@opencascade@@YA_KPEB_KH@Z
	??$hash_combine@H_K@MurmurHash@opencascade@@YA_KAEBHH_K@Z
	??$hash_combine@PEAVTopoDS_TShape@@_K@MurmurHash@opencascade@@YA_KAEBQEAVTopoDS_TShape@@H_K@Z
	??$hash_combine@_K_K@MurmurHash@opencascade@@YA_KAEB_KH_K@Z
	??$identifyConflictingRedundantConstraints@V?$FullPivHouseholderQR@V?$Matrix@N$0?0$0?0$0A@$0?0$0?0@Eigen@@H@Eigen@@@System@GCS@@AEAAXW4Algorithm@1@AEBV?$FullPivHouseholderQR@V?$Matrix@N$0?0$0?0$0A@$0?0$0?0@Eigen@@H@Eigen@@AEBV?$map@HHU?$less@H@std@@V?$allocator@U?$pair@$$CBHH@std@@@2@@std@@2AEAV?$vector@PEANV?$allocator@PEAN@std@@@6@AEAV?$Matrix@N$0?0$0?0$0A@$0?0$0?0@4@HHAEAH@Z
	??$identifyConflictingRedundantConstraints@V?$SparseQR@V?$SparseMatrix@N$0A@H@Eigen@@V?$COLAMDOrdering@H@2@@Eigen@@@System@GCS@@AEAAXW4Algorithm@1@AEBV?$SparseQR@V?$SparseMatrix@N$0A@H@Eigen@@V?$COLAMDOrdering@H@2@@Eigen@@AEBV?$map@HHU?$less@H@std@@V?$allocator@U?$pair@$$CBHH@std@@@2@@std@@2AEAV?$vector@PEANV?$allocator@PEAN@std@@@6@AEAV?$Matrix@N$0?0$0?0$0A@$0?0$0?0@4@HHAEAH@Z
	??$identifyDependentParameters@V?$FullPivHouseholderQR@V?$Matrix@N$0?0$0?0$0A@$0?0$0?0@Eigen@@H@Eigen@@@System@GCS@@AEAAXAEAV?$FullPivHouseholderQR@V?$Matrix@N$0?0$0?0$0A@$0?0$0?0@Eigen@@H@Eigen@@AEAV?$Matrix@N$0?0$0?0$0A@$0?0$0?0@3@HAEBV?$vector@PEANV?$allocator@PEAN@std@@@std@@_N@Z
	??$identifyDependentParameters@V?$SparseQR@V?$SparseMatrix@N$0A@H@Eigen@@V?$COLAMDOrdering@H@2@@Eigen@@@System@GCS@@AEAAXAEAV?$SparseQR@V?$SparseMatrix@N$0A@H@Eigen@@V?$COLAMDOrdering@H@2@@Eigen@@AEAV?$Matrix@N$0?0$0?0$0A@$0?0$0?0@3@HAEBV?$vector@PEANV?$allocator@PEAN@std@@@std@@_N@Z
	??$indexOf@VStringIDRef@App@@@?$QListSpecialMethodsBase@VStringIDRef@App@@@@QEBA_JAEBVStringIDRef@App@@_J@Z
	??$input_adapter@V?$_String_const_iterator@V?$_String_val@U?$_Simple_types@D@std@@@std@@@std@@@detail@json_abi_v3_12_0@nlohmann@@YA?AV?$iterator_input_adapter@V?$_String_const_iterator@V?$_String_val@U?$_Simple_types@D@std@@@std@@@std@@@012@V?$_String_const_iterator@V?$_String_val@U?$_Simple_types@D@std@@@std@@@std@@0@Z
	??$input_adapter@V?$basic_string@DU?$char_traits@D@std@@V?$allocator@D@2@@std@@@detail@json_abi_v3_12_0@nlohmann@@YA?AV?$iterator_input_adapter@V?$_String_const_iterator@V?$_String_val@U?$_Simple_types@D@std@@@std@@@std@@@012@AEBV?$basic_string@DU?$char_traits@D@std@@V?$allocator@D@2@@std@@@Z
	??$insert_@Ulvalue_tag@detail@multi_index@boost@@@?$hashed_index@U?$member@V?$relation_storage@U?$tagged@QEAVStringID@App@@Uleft@member_at@relation@bimaps@boost@@@tags@bimaps@boost@@U?$tagged@$$CBJUright@member_at@relation@bimaps@boost@@@234@$00@detail@relation@bimaps@boost@@PEAVStringID@App@@$0A@@multi_index@boost@@UStringIDHasher@@U4@U?$nth_layer@$01V?$mutant_relation@U?$tagged@QEAVStringID@App@@Uleft@member_at@relation@bimaps@boost@@@tags@bimaps@boost@@U?$tagged@$$CBJUright@member_at@relation@bimaps@boost@@@234@Una@mpl@4@$00@relation@bimaps@boost@@Ucore_indices@?$bimap_core@U?$unordered_set_of@PEAVStringID@App@@UStringIDHasher@@U3@@bimaps@boost@@U?$set_of@JU?$less@J@std@@@23@Una@mpl@3@U563@U563@@detail@34@V?$allocator@V?$mutant_relation@U?$tagged@QEAVStringID@App@@Uleft@member_at@relation@bimaps@boost@@@tags@bimaps@boost@@U?$tagged@$$CBJUright@member_at@relation@bimaps@boost@@@234@Una@mpl@4@$00@relation@bimaps@boost@@@std@@@detail@23@U?$vector1@Uleft@member_at@relation@bimaps@boost@@@mpl@3@Uhashed_unique_tag@623@@detail@multi_index@boost@@IEAAPEAU?$ordered_index_node@Unull_augment_policy@detail@multi_index@boost@@U?$hashed_index_node@U?$index_node_base@V?$mutant_relation@U?$tagged@QEAVStringID@App@@Uleft@member_at@relation@bimaps@boost@@@tags@bimaps@boost@@U?$tagged@$$CBJUright@member_at@relation@bimaps@boost@@@234@Una@mpl@4@$00@relation@bimaps@boost@@V?$allocator@V?$mutant_relation@U?$tagged@QEAVStringID@App@@Uleft@member_at@relation@bimaps@boost@@@tags@bimaps@boost@@U?$tagged@$$CBJUright@member_at@relation@bimaps@boost@@@234@Una@mpl@4@$00@relation@bimaps@boost@@@std@@@detail@multi_index@boost@@@234@@123@AEBV?$mutant_relation@U?$tagged@QEAVStringID@App@@Uleft@member_at@relation@bimaps@boost@@@tags@bimaps@boost@@U?$tagged@$$CBJUright@member_at@relation@bimaps@boost@@@234@Una@mpl@4@$00@relation@bimaps@3@PEAU?$hashed_index_node@U?$index_node_base@V?$mutant_relation@U?$tagged@QEAVStringID@App@@Uleft@member_at@relation@bimaps@boost@@@tags@bimaps@boost@@U?$tagged@$$CBJUright@member_at@relation@bimaps@boost@@@234@Una@mpl@4@$00@relation@bimaps@boost@@V?$allocator@V?$mutant_relation@U?$tagged@QEAVStringID@App@@Uleft@member_at@relation@bimaps@boost@@@tags@bimaps@boost@@U?$tagged@$$CBJUright@member_at@relation@bimaps@boost@@@234@Una@mpl@4@$00@relation@bimaps@boost@@@std@@@detail@multi_index@boost@@@123@AEAPEAU4123@Ulvalue_tag@123@@Z
	??$insert_@Ulvalue_tag@detail@multi_index@boost@@@?$ordered_index_impl@U?$member@V?$relation_storage@U?$tagged@QEAVStringID@App@@Uleft@member_at@relation@bimaps@boost@@@tags@bimaps@boost@@U?$tagged@$$CBJUright@member_at@relation@bimaps@boost@@@234@$00@detail@relation@bimaps@boost@@J$07@multi_index@boost@@U?$less@J@std@@U?$nth_layer@$00V?$mutant_relation@U?$tagged@QEAVStringID@App@@Uleft@member_at@relation@bimaps@boost@@@tags@bimaps@boost@@U?$tagged@$$CBJUright@member_at@relation@bimaps@boost@@@234@Una@mpl@4@$00@relation@bimaps@boost@@Ucore_indices@?$bimap_core@U?$unordered_set_of@PEAVStringID@App@@UStringIDHasher@@U3@@bimaps@boost@@U?$set_of@JU?$less@J@std@@@23@Una@mpl@3@U563@U563@@detail@34@V?$allocator@V?$mutant_relation@U?$tagged@QEAVStringID@App@@Uleft@member_at@relation@bimaps@boost@@@tags@bimaps@boost@@U?$tagged@$$CBJUright@member_at@relation@bimaps@boost@@@234@Una@mpl@4@$00@relation@bimaps@boost@@@std@@@detail@23@U?$vector1@Uright@member_at@relation@bimaps@boost@@@mpl@3@Uordered_unique_tag@723@Unull_augment_policy@723@@detail@multi_index@boost@@IEAAPEAU?$ordered_index_node@Unull_augment_policy@detail@multi_index@boost@@U?$hashed_index_node@U?$index_node_base@V?$mutant_relation@U?$tagged@QEAVStringID@App@@Uleft@member_at@relation@bimaps@boost@@@tags@bimaps@boost@@U?$tagged@$$CBJUright@member_at@relation@bimaps@boost@@@234@Una@mpl@4@$00@relation@bimaps@boost@@V?$allocator@V?$mutant_relation@U?$tagged@QEAVStringID@App@@Uleft@member_at@relation@bimaps@boost@@@tags@bimaps@boost@@U?$tagged@$$CBJUright@member_at@relation@bimaps@boost@@@234@Una@mpl@4@$00@relation@bimaps@boost@@@std@@@detail@multi_index@boost@@@234@@123@AEBV?$mutant_relation@U?$tagged@QEAVStringID@App@@Uleft@member_at@relation@bimaps@boost@@@tags@bimaps@boost@@U?$tagged@$$CBJUright@member_at@relation@bimaps@boost@@@234@Una@mpl@4@$00@relation@bimaps@3@PEAU4123@AEAPEAU4123@Ulvalue_tag@123@@Z
	??$int_to_string@V?$basic_string@DU?$char_traits@D@std@@V?$allocator@D@2@@std@@@detail@json_abi_v3_12_0@nlohmann@@YAXAEAV?$basic_string@DU?$char_traits@D@std@@V?$allocator@D@2@@std@@_K@Z
	??$is_same_dense@V?$Matrix@N$0?0$00$0A@$0?0$00@Eigen@@V12@@internal@Eigen@@YA_NAEBV?$Matrix@N$0?0$00$0A@$0?0$00@1@0PEAX@Z
	??$is_same_dense@V?$Matrix@N$0?0$00$0A@$0?0$00@Eigen@@V?$CwiseUnaryOp@U?$scalar_opposite_op@N@internal@Eigen@@$$CBV?$Matrix@N$0?0$00$0A@$0?0$00@3@@2@@internal@Eigen@@YA_NAEBV?$Matrix@N$0?0$00$0A@$0?0$00@1@AEBV?$CwiseUnaryOp@U?$scalar_opposite_op@N@internal@Eigen@@$$CBV?$Matrix@N$0?0$00$0A@$0?0$00@3@@1@PEAX@Z
	??$is_same_dense@V?$Matrix@N$0?0$0?0$0A@$0?0$0?0@Eigen@@V12@@internal@Eigen@@YA_NAEBV?$Matrix@N$0?0$0?0$0A@$0?0$0?0@1@0PEAX@Z
	??$is_same_dense@V?$Matrix@N$0?0$0?0$0A@$0?0$0?0@Eigen@@V?$Block@V?$Matrix@N$0?0$0?0$0A@$0?0$0?0@Eigen@@$0?0$0?0$00@2@@internal@Eigen@@YA_NAEBV?$Matrix@N$0?0$0?0$0A@$0?0$0?0@1@AEBV?$Block@V?$Matrix@N$0?0$0?0$0A@$0?0$0?0@Eigen@@$0?0$0?0$00@1@PEAX@Z
	??$iter_split@V?$vector@V?$basic_string@DU?$char_traits@D@std@@V?$allocator@D@2@@std@@V?$allocator@V?$basic_string@DU?$char_traits@D@std@@V?$allocator@D@2@@std@@@2@@std@@AEAV?$basic_string@DU?$char_traits@D@std@@V?$allocator@D@2@@2@U?$token_finderF@U?$is_any_ofF@D@detail@algorithm@boost@@@detail@algorithm@boost@@@algorithm@boost@@YAAEAV?$vector@V?$basic_string@DU?$char_traits@D@std@@V?$allocator@D@2@@std@@V?$allocator@V?$basic_string@DU?$char_traits@D@std@@V?$allocator@D@2@@std@@@2@@std@@AEAV23@AEAV?$basic_string@DU?$char_traits@D@std@@V?$allocator@D@2@@3@U?$token_finderF@U?$is_any_ofF@D@detail@algorithm@boost@@@detail@01@@Z
	??$launder@$$CBV?$edge_desc_impl@Uundirected_tag@boost@@_K@detail@boost@@@core@boost@@YAPEBV?$edge_desc_impl@Uundirected_tag@boost@@_K@detail@1@PEBV231@@Z
	??$launder@V?$edge_desc_impl@Uundirected_tag@boost@@_K@detail@boost@@@core@boost@@YAPEAV?$edge_desc_impl@Uundirected_tag@boost@@_K@detail@1@PEAV231@@Z
	??$lazyProduct@V?$Block@V?$Block@V?$Matrix@N$0?0$00$0A@$0?0$00@Eigen@@$0?0$0?0$0A@@Eigen@@$0?0$0?0$0A@@Eigen@@@?$MatrixBase@V?$Transpose@$$CBV?$Block@$$CBV?$Matrix@N$0?0$0?0$0A@$0?0$0?0@Eigen@@$0?0$00$0A@@Eigen@@@Eigen@@@Eigen@@QEBA?BV?$Product@V?$Transpose@$$CBV?$Block@$$CBV?$Matrix@N$0?0$0?0$0A@$0?0$0?0@Eigen@@$0?0$00$0A@@Eigen@@@Eigen@@V?$Block@V?$Block@V?$Matrix@N$0?0$00$0A@$0?0$00@Eigen@@$0?0$0?0$0A@@Eigen@@$0?0$0?0$0A@@2@$00@1@AEBV?$MatrixBase@V?$Block@V?$Block@V?$Matrix@N$0?0$00$0A@$0?0$00@Eigen@@$0?0$0?0$0A@@Eigen@@$0?0$0?0$0A@@Eigen@@@1@@Z
	??$lazyProduct@V?$Map@V?$Matrix@N$00$00$00$00$00@Eigen@@$0A@V?$Stride@$0A@$0A@@2@@Eigen@@@?$MatrixBase@V?$CwiseBinaryOp@U?$scalar_product_op@NN@internal@Eigen@@$$CBV?$CwiseNullaryOp@U?$scalar_constant_op@N@internal@Eigen@@$$CBV?$Matrix@N$0?0$00$0A@$0?0$00@3@@3@$$CBV?$Block@$$CBV?$Matrix@N$0?0$0?0$0A@$0?0$0?0@Eigen@@$0?0$00$0A@@3@@Eigen@@@Eigen@@QEBA?BV?$Product@V?$CwiseBinaryOp@U?$scalar_product_op@NN@internal@Eigen@@$$CBV?$CwiseNullaryOp@U?$scalar_constant_op@N@internal@Eigen@@$$CBV?$Matrix@N$0?0$00$0A@$0?0$00@3@@3@$$CBV?$Block@$$CBV?$Matrix@N$0?0$0?0$0A@$0?0$0?0@Eigen@@$0?0$00$0A@@3@@Eigen@@V?$Map@V?$Matrix@N$00$00$00$00$00@Eigen@@$0A@V?$Stride@$0A@$0A@@2@@2@$00@1@AEBV?$MatrixBase@V?$Map@V?$Matrix@N$00$00$00$00$00@Eigen@@$0A@V?$Stride@$0A@$0A@@2@@Eigen@@@1@@Z
	??$lazyProduct@V?$Map@V?$Matrix@N$00$0?0$00$00$00@Eigen@@$0A@V?$Stride@$0A@$0A@@2@@Eigen@@@?$MatrixBase@V?$CwiseBinaryOp@U?$scalar_product_op@NN@internal@Eigen@@$$CBV?$CwiseNullaryOp@U?$scalar_constant_op@N@internal@Eigen@@$$CBV?$Matrix@N$0?0$00$0A@$0?0$00@3@@3@$$CBV?$Block@$$CBV?$Matrix@N$0?0$0?0$0A@$0?0$0?0@Eigen@@$0?0$00$0A@@3@@Eigen@@@Eigen@@QEBA?BV?$Product@V?$CwiseBinaryOp@U?$scalar_product_op@NN@internal@Eigen@@$$CBV?$CwiseNullaryOp@U?$scalar_constant_op@N@internal@Eigen@@$$CBV?$Matrix@N$0?0$00$0A@$0?0$00@3@@3@$$CBV?$Block@$$CBV?$Matrix@N$0?0$0?0$0A@$0?0$0?0@Eigen@@$0?0$00$0A@@3@@Eigen@@V?$Map@V?$Matrix@N$00$0?0$00$00$00@Eigen@@$0A@V?$Stride@$0A@$0A@@2@@2@$00@1@AEBV?$MatrixBase@V?$Map@V?$Matrix@N$00$0?0$00$00$00@Eigen@@$0A@V?$Stride@$0A@$0A@@2@@Eigen@@@1@@Z
	??$lazyProduct@V?$Matrix@N$0?0$0?0$0A@$0?0$0?0@Eigen@@@?$MatrixBase@V?$Matrix@N$0?0$0?0$0A@$0?0$0?0@Eigen@@@Eigen@@QEBA?BV?$Product@V?$Matrix@N$0?0$0?0$0A@$0?0$0?0@Eigen@@V12@$00@1@AEBV01@@Z
	??$lazyProduct@V?$Matrix@N$0?0$0?0$0A@$0?0$0?0@Eigen@@@?$MatrixBase@V?$Product@V?$Transpose@V?$Matrix@N$0?0$0?0$0A@$0?0$0?0@Eigen@@@Eigen@@V?$Matrix@N$0?0$0?0$0A@$0?0$0?0@2@$0A@@Eigen@@@Eigen@@QEBA?BV?$Product@V?$Product@V?$Transpose@V?$Matrix@N$0?0$0?0$0A@$0?0$0?0@Eigen@@@Eigen@@V?$Matrix@N$0?0$0?0$0A@$0?0$0?0@2@$0A@@Eigen@@V?$Matrix@N$0?0$0?0$0A@$0?0$0?0@2@$00@1@AEBV?$MatrixBase@V?$Matrix@N$0?0$0?0$0A@$0?0$0?0@Eigen@@@1@@Z
	??$lazyProduct@V?$Matrix@N$0?0$0?0$0A@$0?0$0?0@Eigen@@@?$MatrixBase@V?$Transpose@$$CBV?$Matrix@N$0?0$0?0$0A@$0?0$0?0@Eigen@@@Eigen@@@Eigen@@QEBA?BV?$Product@V?$Transpose@$$CBV?$Matrix@N$0?0$0?0$0A@$0?0$0?0@Eigen@@@Eigen@@V?$Matrix@N$0?0$0?0$0A@$0?0$0?0@2@$00@1@AEBV?$MatrixBase@V?$Matrix@N$0?0$0?0$0A@$0?0$0?0@Eigen@@@1@@Z
	??$lazyProduct@V?$Transpose@$$CBV?$Matrix@N$0?0$0?0$0A@$0?0$0?0@Eigen@@@Eigen@@@?$MatrixBase@V?$Matrix@N$0?0$0?0$0A@$0?0$0?0@Eigen@@@Eigen@@QEBA?BV?$Product@V?$Matrix@N$0?0$0?0$0A@$0?0$0?0@Eigen@@V?$Transpose@$$CBV?$Matrix@N$0?0$0?0$0A@$0?0$0?0@Eigen@@@2@$00@1@AEBV?$MatrixBase@V?$Transpose@$$CBV?$Matrix@N$0?0$0?0$0A@$0?0$0?0@Eigen@@@Eigen@@@1@@Z
	??$lpNorm@$00@?$MatrixBase@V?$Block@V?$Block@V?$Matrix@N$0?0$0?0$0A@$0?0$0?0@Eigen@@$00$0?0$0A@@Eigen@@$00$0?0$0A@@Eigen@@@Eigen@@QEBANXZ
	??$lpNorm@$00@?$MatrixBase@V?$Block@V?$Block@V?$Matrix@N$0?0$0?0$0A@$0?0$0?0@Eigen@@$0?0$00$00@Eigen@@$0?0$00$0A@@Eigen@@@Eigen@@QEBANXZ
	??$lpNorm@$00@?$MatrixBase@V?$Matrix@N$0?0$00$0A@$0?0$00@Eigen@@@Eigen@@QEBANXZ
	??$lpNorm@$0?0@?$MatrixBase@V?$Matrix@N$0?0$00$0A@$0?0$00@Eigen@@@Eigen@@QEBANXZ
	??$makeFailure@VNamedShape@oreo@@@DiagnosticScope@oreo@@QEBA?AV?$OperationResult@VNamedShape@oreo@@@1@XZ
	??$makeHouseholder@V?$VectorBlock@V?$Block@V?$Block@V?$Matrix@N$0?0$0?0$0A@$0?0$0?0@Eigen@@$0?0$00$00@Eigen@@$0?0$00$0A@@Eigen@@$0?0@Eigen@@@?$MatrixBase@V?$Block@V?$Block@V?$Matrix@N$0?0$0?0$0A@$0?0$0?0@Eigen@@$0?0$00$00@Eigen@@$0?0$00$0A@@Eigen@@@Eigen@@QEBAXAEAV?$VectorBlock@V?$Block@V?$Block@V?$Matrix@N$0?0$0?0$0A@$0?0$0?0@Eigen@@$0?0$00$00@Eigen@@$0?0$00$0A@@Eigen@@$0?0@1@AEAN1@Z
	??$makeResult@N@DiagnosticScope@oreo@@QEBA?AV?$OperationResult@N@1@N@Z
	??$makeResult@UBBox@oreo@@@DiagnosticScope@oreo@@QEBA?AV?$OperationResult@UBBox@oreo@@@1@UBBox@1@@Z
	??$makeResult@UMassProperties@oreo@@@DiagnosticScope@oreo@@QEBA?AV?$OperationResult@UMassProperties@oreo@@@1@UMassProperties@1@@Z
	??$makeResult@USolveResult@oreo@@@DiagnosticScope@oreo@@QEBA?AV?$OperationResult@USolveResult@oreo@@@1@USolveResult@1@@Z
	??$makeResult@UStepImportResult@oreo@@@DiagnosticScope@oreo@@QEBA?AV?$OperationResult@UStepImportResult@oreo@@@1@UStepImportResult@1@@Z
	??$makeResult@V?$vector@EV?$allocator@E@std@@@std@@@DiagnosticScope@oreo@@QEBA?AV?$OperationResult@V?$vector@EV?$allocator@E@std@@@std@@@1@V?$vector@EV?$allocator@E@std@@@std@@@Z
	??$makeResult@V?$vector@UNamedEdge@oreo@@V?$allocator@UNamedEdge@oreo@@@std@@@std@@@DiagnosticScope@oreo@@QEBA?AV?$OperationResult@V?$vector@UNamedEdge@oreo@@V?$allocator@UNamedEdge@oreo@@@std@@@std@@@1@V?$vector@UNamedEdge@oreo@@V?$allocator@UNamedEdge@oreo@@@std@@@std@@@Z
	??$makeResult@V?$vector@UNamedFace@oreo@@V?$allocator@UNamedFace@oreo@@@std@@@std@@@DiagnosticScope@oreo@@QEBA?AV?$OperationResult@V?$vector@UNamedFace@oreo@@V?$allocator@UNamedFace@oreo@@@std@@@std@@@1@V?$vector@UNamedFace@oreo@@V?$allocator@UNamedFace@oreo@@@std@@@std@@@Z
	??$makeResult@VNamedShape@oreo@@@DiagnosticScope@oreo@@QEBA?AV?$OperationResult@VNamedShape@oreo@@@1@VNamedShape@1@@Z
	??$makeResult@_N@DiagnosticScope@oreo@@QEBA?AV?$OperationResult@_N@1@_N@Z
	??$make_block_householder_triangular_factor@V?$Matrix@N$0?0$0?0$00$0?0$0?0@Eigen@@V?$Block@V?$Matrix@N$0?0$0?0$0A@$0?0$0?0@Eigen@@$0?0$0?0$0A@@2@V?$Block@$$CBV?$Matrix@N$0?0$00$0A@$0?0$00@Eigen@@$0?0$00$0A@@2@@internal@Eigen@@YAXAEAV?$Matrix@N$0?0$0?0$00$0?0$0?0@1@AEBV?$Block@V?$Matrix@N$0?0$0?0$0A@$0?0$0?0@Eigen@@$0?0$0?0$0A@@1@AEBV?$Block@$$CBV?$Matrix@N$0?0$00$0A@$0?0$00@Eigen@@$0?0$00$0A@@1@@Z
	??$make_block_householder_triangular_factor@V?$Matrix@N$0?0$0?0$00$0?0$0?0@Eigen@@V?$Block@V?$Matrix@N$0?0$0?0$0A@$0?0$0?0@Eigen@@$0?0$0?0$0A@@2@V?$VectorBlock@$$CBV?$Matrix@N$0?0$00$0A@$0?0$00@Eigen@@$0?0@2@@internal@Eigen@@YAXAEAV?$Matrix@N$0?0$0?0$00$0?0$0?0@1@AEBV?$Block@V?$Matrix@N$0?0$0?0$0A@$0?0$0?0@Eigen@@$0?0$0?0$0A@@1@AEBV?$VectorBlock@$$CBV?$Matrix@N$0?0$00$0A@$0?0$00@Eigen@@$0?0@1@@Z
	??$make_dfs_visitor@Unull_visitor@boost@@@boost@@YA?AV?$dfs_visitor@Unull_visitor@boost@@@0@Unull_visitor@0@@Z
	??$make_shared@VElementMap@Data@@$$V@std@@YA?AV?$shared_ptr@VElementMap@Data@@@0@XZ
	??$make_shared@VElementMap@oreo@@$$V@std@@YA?AV?$shared_ptr@VElementMap@oreo@@@0@XZ
	??$make_shared_array_property_map@W4default_color_type@boost@@U?$vec_adj_list_vertex_id_map@Uno_property@boost@@_K@2@@boost@@YA?AV?$shared_array_property_map@W4default_color_type@boost@@U?$vec_adj_list_vertex_id_map@Uno_property@boost@@_K@2@@0@_KAEBW4default_color_type@0@AEBU?$vec_adj_list_vertex_id_map@Uno_property@boost@@_K@0@@Z
	??$make_transform_iterator@U?$copy_iterator_rangeF@V?$basic_string@DU?$char_traits@D@std@@V?$allocator@D@2@@std@@V?$_String_iterator@V?$_String_val@U?$_Simple_types@D@std@@@std@@@2@@detail@algorithm@boost@@V?$split_iterator@V?$_String_iterator@V?$_String_val@U?$_Simple_types@D@std@@@std@@@std@@@34@@iterators@boost@@YA?AV?$transform_iterator@U?$copy_iterator_rangeF@V?$basic_string@DU?$char_traits@D@std@@V?$allocator@D@2@@std@@V?$_String_iterator@V?$_String_val@U?$_Simple_types@D@std@@@std@@@2@@detail@algorithm@boost@@V?$split_iterator@V?$_String_iterator@V?$_String_val@U?$_Simple_types@D@std@@@std@@@std@@@34@Uuse_default@4@U64@@01@V?$split_iterator@V?$_String_iterator@V?$_String_val@U?$_Simple_types@D@std@@@std@@@std@@@algorithm@1@U?$copy_iterator_rangeF@V?$basic_string@DU?$char_traits@D@std@@V?$allocator@D@2@@std@@V?$_String_iterator@V?$_String_val@U?$_Simple_types@D@std@@@std@@@2@@detail@41@@Z
	??$maxCoeff@$0A@@?$DenseBase@V?$CwiseUnaryOp@U?$scalar_abs_op@N@internal@Eigen@@$$CBV?$Matrix@N$0?0$00$0A@$0?0$00@3@@Eigen@@@Eigen@@QEBANXZ
	??$maxCoeff@$0A@@?$DenseBase@V?$Matrix@N$00$0?0$00$00$0?0@Eigen@@@Eigen@@QEBANXZ
	??$maxCoeff@$0A@@?$DenseBase@V?$PartialReduxExpr@$$CBV?$CwiseUnaryOp@U?$scalar_abs_op@N@internal@Eigen@@$$CBV?$Matrix@N$0?0$0?0$0A@$0?0$0?0@3@@Eigen@@U?$member_sum@NN@internal@2@$0A@@Eigen@@@Eigen@@QEBANXZ
	??$maxCoeff@$0A@_J@?$DenseBase@V?$Block@V?$Matrix@N$00$0?0$00$00$0?0@Eigen@@$00$0?0$0A@@Eigen@@@Eigen@@QEBANPEA_J@Z
	??$maxCoeff@$0A@_J@?$DenseBase@V?$CwiseUnaryOp@U?$scalar_abs_op@N@internal@Eigen@@$$CBV?$Block@V?$Diagonal@V?$Matrix@N$0?0$0?0$0A@$0?0$0?0@Eigen@@$0A@@Eigen@@$0?0$00$0A@@3@@Eigen@@@Eigen@@QEBANPEA_J@Z
	??$maxCoeff@$0A@_J@?$DenseBase@V?$CwiseUnaryOp@U?$scalar_score_coeff_op@N@internal@Eigen@@$$CBV?$Block@V?$Matrix@N$0?0$0?0$0A@$0?0$0?0@Eigen@@$0?0$0?0$0A@@3@@Eigen@@@Eigen@@QEBANPEA_J0@Z
	??$move@V?$_Vector_iterator@V?$_Vector_val@U?$_Simple_types@V?$basic_json@Vmap@std@@Vvector@2@V?$basic_string@DU?$char_traits@D@std@@V?$allocator@D@2@@2@_N_J_KNVallocator@2@Uadl_serializer@json_abi_v3_12_0@nlohmann@@V?$vector@EV?$allocator@E@std@@@2@X@json_abi_v3_12_0@nlohmann@@@std@@@std@@@std@@V?$back_insert_iterator@V?$vector@V?$basic_json@Vmap@std@@Vvector@2@V?$basic_string@DU?$char_traits@D@std@@V?$allocator@D@2@@2@_N_J_KNVallocator@2@Uadl_serializer@json_abi_v3_12_0@nlohmann@@V?$vector@EV?$allocator@E@std@@@2@X@json_abi_v3_12_0@nlohmann@@V?$allocator@V?$basic_json@Vmap@std@@Vvector@2@V?$basic_string@DU?$char_traits@D@std@@V?$allocator@D@2@@2@_N_J_KNVallocator@2@Uadl_serializer@json_abi_v3_12_0@nlohmann@@V?$vector@EV?$allocator@E@std@@@2@X@json_abi_v3_12_0@nlohmann@@@std@@@std@@@2@@std@@YA?AV?$back_insert_iterator@V?$vector@V?$basic_json@Vmap@std@@Vvector@2@V?$basic_string@DU?$char_traits@D@std@@V?$allocator@D@2@@2@_N_J_KNVallocator@2@Uadl_serializer@json_abi_v3_12_0@nlohmann@@V?$vector@EV?$allocator@E@std@@@2@X@json_abi_v3_12_0@nlohmann@@V?$allocator@V?$basic_json@Vmap@std@@Vvector@2@V?$basic_string@DU?$char_traits@D@std@@V?$allocator@D@2@@2@_N_J_KNVallocator@2@Uadl_serializer@json_abi_v3_12_0@nlohmann@@V?$vector@EV?$allocator@E@std@@@2@X@json_abi_v3_12_0@nlohmann@@@std@@@std@@@0@V?$_Vector_iterator@V?$_Vector_val@U?$_Simple_types@V?$basic_json@Vmap@std@@Vvector@2@V?$basic_string@DU?$char_traits@D@std@@V?$allocator@D@2@@2@_N_J_KNVallocator@2@Uadl_serializer@json_abi_v3_12_0@nlohmann@@V?$vector@EV?$allocator@E@std@@@2@X@json_abi_v3_12_0@nlohmann@@@std@@@std@@@0@0V10@@Z
	??$mutate@V?$mutant_relation@U?$tagged@QEAVStringID@App@@Uleft@member_at@relation@bimaps@boost@@@tags@bimaps@boost@@U?$tagged@$$CBJUright@member_at@relation@bimaps@boost@@@234@Una@mpl@4@$00@relation@bimaps@boost@@$$CBV?$structured_pair@U?$tagged@$$CBJUright@member_at@relation@bimaps@boost@@@tags@bimaps@boost@@U?$tagged@QEAVStringID@App@@Uleft@member_at@relation@bimaps@boost@@@234@Una@mpl@4@Umirror_layout@relation@34@@234@@detail@relation@bimaps@boost@@YAAEBV?$mutant_relation@U?$tagged@QEAVStringID@App@@Uleft@member_at@relation@bimaps@boost@@@tags@bimaps@boost@@U?$tagged@$$CBJUright@member_at@relation@bimaps@boost@@@234@Una@mpl@4@$00@123@AEBV?$structured_pair@U?$tagged@$$CBJUright@member_at@relation@bimaps@boost@@@tags@bimaps@boost@@U?$tagged@QEAVStringID@App@@Uleft@member_at@relation@bimaps@boost@@@234@Una@mpl@4@Umirror_layout@relation@34@@123@@Z
	??$mutate@V?$structured_pair@U?$tagged@$$CBJUright@member_at@relation@bimaps@boost@@@tags@bimaps@boost@@U?$tagged@QEAVStringID@App@@Uleft@member_at@relation@bimaps@boost@@@234@Una@mpl@4@Umirror_layout@relation@34@@relation@bimaps@boost@@V?$mutant_relation@U?$tagged@QEAVStringID@App@@Uleft@member_at@relation@bimaps@boost@@@tags@bimaps@boost@@U?$tagged@$$CBJUright@member_at@relation@bimaps@boost@@@234@Una@mpl@4@$00@234@@detail@relation@bimaps@boost@@YAAEAV?$structured_pair@U?$tagged@$$CBJUright@member_at@relation@bimaps@boost@@@tags@bimaps@boost@@U?$tagged@QEAVStringID@App@@Uleft@member_at@relation@bimaps@boost@@@234@Una@mpl@4@Umirror_layout@relation@34@@123@AEAV?$mutant_relation@U?$tagged@QEAVStringID@App@@Uleft@member_at@relation@bimaps@boost@@@tags@bimaps@boost@@U?$tagged@$$CBJUright@member_at@relation@bimaps@boost@@@234@Una@mpl@4@$00@123@@Z
	??$mutate@V?$structured_pair@U?$tagged@QEAVStringID@App@@Uleft@member_at@relation@bimaps@boost@@@tags@bimaps@boost@@U?$tagged@$$CBJUright@member_at@relation@bimaps@boost@@@234@Una@mpl@4@Unormal_layout@relation@34@@relation@bimaps@boost@@V?$mutant_relation@U?$tagged@QEAVStringID@App@@Uleft@member_at@relation@bimaps@boost@@@tags@bimaps@boost@@U?$tagged@$$CBJUright@member_at@relation@bimaps@boost@@@234@Una@mpl@4@$00@234@@detail@relation@bimaps@boost@@YAAEAV?$structured_pair@U?$tagged@QEAVStringID@App@@Uleft@member_at@relation@bimaps@boost@@@tags@bimaps@boost@@U?$tagged@$$CBJUright@member_at@relation@bimaps@boost@@@234@Una@mpl@4@Unormal_layout@relation@34@@123@AEAV?$mutant_relation@U?$tagged@QEAVStringID@App@@Uleft@member_at@relation@bimaps@boost@@@tags@bimaps@boost@@U?$tagged@$$CBJUright@member_at@relation@bimaps@boost@@@234@Una@mpl@4@$00@123@@Z
	??$ones_complement@H@Colamd@internal@Eigen@@YAHH@Z
	??$outer_product_selector_run@V?$Block@V?$Block@V?$Matrix@N$0?0$0?0$0A@$0?0$0?0@Eigen@@$0?0$0?0$0A@@Eigen@@$0?0$0?0$0A@@Eigen@@V?$CwiseBinaryOp@U?$scalar_product_op@NN@internal@Eigen@@$$CBV?$CwiseNullaryOp@U?$scalar_constant_op@N@internal@Eigen@@$$CBV?$Matrix@N$0?0$00$0A@$0?0$00@3@@3@$$CBV?$Block@$$CBV?$Block@$$CBV?$Matrix@N$0?0$0?0$0A@$0?0$0?0@Eigen@@$0?0$00$00@Eigen@@$0?0$00$0A@@3@@2@V?$Map@V?$Matrix@N$00$0?0$00$00$0?0@Eigen@@$0A@V?$Stride@$0A@$0A@@2@@2@Usub@?$generic_product_impl@V?$CwiseBinaryOp@U?$scalar_product_op@NN@internal@Eigen@@$$CBV?$CwiseNullaryOp@U?$scalar_constant_op@N@internal@Eigen@@$$CBV?$Matrix@N$0?0$00$0A@$0?0$00@3@@3@$$CBV?$Block@$$CBV?$Block@$$CBV?$Matrix@N$0?0$0?0$0A@$0?0$0?0@Eigen@@$0?0$00$00@Eigen@@$0?0$00$0A@@3@@Eigen@@V?$Map@V?$Matrix@N$00$0?0$00$00$0?0@Eigen@@$0A@V?$Stride@$0A@$0A@@2@@2@UDenseShape@2@U42@$04@internal@2@@internal@Eigen@@YAXAEAV?$Block@V?$Block@V?$Matrix@N$0?0$0?0$0A@$0?0$0?0@Eigen@@$0?0$0?0$0A@@Eigen@@$0?0$0?0$0A@@1@AEBV?$CwiseBinaryOp@U?$scalar_product_op@NN@internal@Eigen@@$$CBV?$CwiseNullaryOp@U?$scalar_constant_op@N@internal@Eigen@@$$CBV?$Matrix@N$0?0$00$0A@$0?0$00@3@@3@$$CBV?$Block@$$CBV?$Block@$$CBV?$Matrix@N$0?0$0?0$0A@$0?0$0?0@Eigen@@$0?0$00$00@Eigen@@$0?0$00$0A@@3@@1@AEBV?$Map@V?$Matrix@N$00$0?0$00$00$0?0@Eigen@@$0A@V?$Stride@$0A@$0A@@2@@1@AEBUsub@?$generic_product_impl@V?$CwiseBinaryOp@U?$scalar_product_op@NN@internal@Eigen@@$$CBV?$CwiseNullaryOp@U?$scalar_constant_op@N@internal@Eigen@@$$CBV?$Matrix@N$0?0$00$0A@$0?0$00@3@@3@$$CBV?$Block@$$CBV?$Block@$$CBV?$Matrix@N$0?0$0?0$0A@$0?0$0?0@Eigen@@$0?0$00$00@Eigen@@$0?0$00$0A@@3@@Eigen@@V?$Map@V?$Matrix@N$00$0?0$00$00$0?0@Eigen@@$0A@V?$Stride@$0A@$0A@@2@@2@UDenseShape@2@U42@$04@01@AEBU?$integral_constant@_N$0A@@std@@@Z
	??$outer_product_selector_run@V?$Block@V?$Block@V?$Matrix@N$0?0$0?0$0A@$0?0$0?0@Eigen@@$0?0$0?0$0A@@Eigen@@$0?0$0?0$0A@@Eigen@@V?$CwiseBinaryOp@U?$scalar_product_op@NN@internal@Eigen@@$$CBV?$CwiseNullaryOp@U?$scalar_constant_op@N@internal@Eigen@@$$CBV?$Matrix@N$0?0$00$0A@$0?0$00@3@@3@$$CBV?$Block@V?$Block@V?$Matrix@N$0?0$0?0$0A@$0?0$0?0@Eigen@@$0?0$00$00@Eigen@@$0?0$00$0A@@3@@2@V?$Map@V?$Matrix@N$00$0?0$00$00$0?0@Eigen@@$0A@V?$Stride@$0A@$0A@@2@@2@Usub@?$generic_product_impl@V?$CwiseBinaryOp@U?$scalar_product_op@NN@internal@Eigen@@$$CBV?$CwiseNullaryOp@U?$scalar_constant_op@N@internal@Eigen@@$$CBV?$Matrix@N$0?0$00$0A@$0?0$00@3@@3@$$CBV?$Block@V?$Block@V?$Matrix@N$0?0$0?0$0A@$0?0$0?0@Eigen@@$0?0$00$00@Eigen@@$0?0$00$0A@@3@@Eigen@@V?$Map@V?$Matrix@N$00$0?0$00$00$0?0@Eigen@@$0A@V?$Stride@$0A@$0A@@2@@2@UDenseShape@2@U42@$04@internal@2@@internal@Eigen@@YAXAEAV?$Block@V?$Block@V?$Matrix@N$0?0$0?0$0A@$0?0$0?0@Eigen@@$0?0$0?0$0A@@Eigen@@$0?0$0?0$0A@@1@AEBV?$CwiseBinaryOp@U?$scalar_product_op@NN@internal@Eigen@@$$CBV?$CwiseNullaryOp@U?$scalar_constant_op@N@internal@Eigen@@$$CBV?$Matrix@N$0?0$00$0A@$0?0$00@3@@3@$$CBV?$Block@V?$Block@V?$Matrix@N$0?0$0?0$0A@$0?0$0?0@Eigen@@$0?0$00$00@Eigen@@$0?0$00$0A@@3@@1@AEBV?$Map@V?$Matrix@N$00$0?0$00$00$0?0@Eigen@@$0A@V?$Stride@$0A@$0A@@2@@1@AEBUsub@?$generic_product_impl@V?$CwiseBinaryOp@U?$scalar_product_op@NN@internal@Eigen@@$$CBV?$CwiseNullaryOp@U?$scalar_constant_op@N@internal@Eigen@@$$CBV?$Matrix@N$0?0$00$0A@$0?0$00@3@@3@$$CBV?$Block@V?$Block@V?$Matrix@N$0?0$0?0$0A@$0?0$0?0@Eigen@@$0?0$00$00@Eigen@@$0?0$00$0A@@3@@Eigen@@V?$Map@V?$Matrix@N$00$0?0$00$00$0?0@Eigen@@$0A@V?$Stride@$0A@$0A@@2@@2@UDenseShape@2@U42@$04@01@AEBU?$integral_constant@_N$0A@@std@@@Z
	??$outer_product_selector_run@V?$Block@V?$Matrix@N$0?0$0?0$0A@$0?0$0?0@Eigen@@$0?0$0?0$0A@@Eigen@@V?$Block@V?$Block@V?$Matrix@N$0?0$0?0$0A@$0?0$0?0@Eigen@@$0?0$00$00@Eigen@@$0?0$00$0A@@2@V?$Block@V?$Block@V?$Matrix@N$0?0$0?0$0A@$0?0$0?0@Eigen@@$00$0?0$0A@@Eigen@@$00$0?0$0A@@2@Usub@?$generic_product_impl@V?$Block@V?$Block@V?$Matrix@N$0?0$0?0$0A@$0?0$0?0@Eigen@@$0?0$00$00@Eigen@@$0?0$00$0A@@Eigen@@V?$Block@V?$Block@V?$Matrix@N$0?0$0?0$0A@$0?0$0?0@Eigen@@$00$0?0$0A@@Eigen@@$00$0?0$0A@@2@UDenseShape@2@U42@$04@internal@2@@internal@Eigen@@YAXAEAV?$Block@V?$Matrix@N$0?0$0?0$0A@$0?0$0?0@Eigen@@$0?0$0?0$0A@@1@AEBV?$Block@V?$Block@V?$Matrix@N$0?0$0?0$0A@$0?0$0?0@Eigen@@$0?0$00$00@Eigen@@$0?0$00$0A@@1@AEBV?$Block@V?$Block@V?$Matrix@N$0?0$0?0$0A@$0?0$0?0@Eigen@@$00$0?0$0A@@Eigen@@$00$0?0$0A@@1@AEBUsub@?$generic_product_impl@V?$Block@V?$Block@V?$Matrix@N$0?0$0?0$0A@$0?0$0?0@Eigen@@$0?0$00$00@Eigen@@$0?0$00$0A@@Eigen@@V?$Block@V?$Block@V?$Matrix@N$0?0$0?0$0A@$0?0$0?0@Eigen@@$00$0?0$0A@@Eigen@@$00$0?0$0A@@2@UDenseShape@2@U42@$04@01@AEBU?$integral_constant@_N$0A@@std@@@Z
	??$outer_product_selector_run@V?$Matrix@N$0?0$0?0$0A@$0?0$0?0@Eigen@@V?$CwiseBinaryOp@U?$scalar_product_op@NN@internal@Eigen@@$$CBV?$CwiseNullaryOp@U?$scalar_constant_op@N@internal@Eigen@@$$CBV?$Matrix@N$0?0$00$0A@$0?0$00@3@@3@$$CBV?$Matrix@N$0?0$00$0A@$0?0$00@3@@2@V?$Transpose@V?$Matrix@N$0?0$00$0A@$0?0$00@Eigen@@@2@Uset@?$generic_product_impl@V?$CwiseBinaryOp@U?$scalar_product_op@NN@internal@Eigen@@$$CBV?$CwiseNullaryOp@U?$scalar_constant_op@N@internal@Eigen@@$$CBV?$Matrix@N$0?0$00$0A@$0?0$00@3@@3@$$CBV?$Matrix@N$0?0$00$0A@$0?0$00@3@@Eigen@@V?$Transpose@V?$Matrix@N$0?0$00$0A@$0?0$00@Eigen@@@2@UDenseShape@2@U42@$04@internal@2@@internal@Eigen@@YAXAEAV?$Matrix@N$0?0$0?0$0A@$0?0$0?0@1@AEBV?$CwiseBinaryOp@U?$scalar_product_op@NN@internal@Eigen@@$$CBV?$CwiseNullaryOp@U?$scalar_constant_op@N@internal@Eigen@@$$CBV?$Matrix@N$0?0$00$0A@$0?0$00@3@@3@$$CBV?$Matrix@N$0?0$00$0A@$0?0$00@3@@1@AEBV?$Transpose@V?$Matrix@N$0?0$00$0A@$0?0$00@Eigen@@@1@AEBUset@?$generic_product_impl@V?$CwiseBinaryOp@U?$scalar_product_op@NN@internal@Eigen@@$$CBV?$CwiseNullaryOp@U?$scalar_constant_op@N@internal@Eigen@@$$CBV?$Matrix@N$0?0$00$0A@$0?0$00@3@@3@$$CBV?$Matrix@N$0?0$00$0A@$0?0$00@3@@Eigen@@V?$Transpose@V?$Matrix@N$0?0$00$0A@$0?0$00@Eigen@@@2@UDenseShape@2@U42@$04@01@AEBU?$integral_constant@_N$0A@@std@@@Z
	??$outer_product_selector_run@V?$Matrix@N$0?0$0?0$0A@$0?0$0?0@Eigen@@V?$Matrix@N$0?0$00$0A@$0?0$00@2@V?$Transpose@V?$Matrix@N$0?0$00$0A@$0?0$00@Eigen@@@2@Uset@?$generic_product_impl@V?$Matrix@N$0?0$00$0A@$0?0$00@Eigen@@V?$Transpose@V?$Matrix@N$0?0$00$0A@$0?0$00@Eigen@@@2@UDenseShape@2@U42@$04@internal@2@@internal@Eigen@@YAXAEAV?$Matrix@N$0?0$0?0$0A@$0?0$0?0@1@AEBV?$Matrix@N$0?0$00$0A@$0?0$00@1@AEBV?$Transpose@V?$Matrix@N$0?0$00$0A@$0?0$00@Eigen@@@1@AEBUset@?$generic_product_impl@V?$Matrix@N$0?0$00$0A@$0?0$00@Eigen@@V?$Transpose@V?$Matrix@N$0?0$00$0A@$0?0$00@Eigen@@@2@UDenseShape@2@U42@$04@01@AEBU?$integral_constant@_N$0A@@std@@@Z
	??$override_const_property@V?$arg_list@V?$tagged_argument@Uvisitor@tag@keywords@graph@boost@@$$CBV?$components_recorder@PEAH@detail@5@@aux@parameter@boost@@Uempty_arg_list@234@U?$integral_constant@_N$00@std@@@aux@parameter@boost@@Uvertex_index_map@tag@keywords@graph@4@W4vertex_index_t@4@V?$adjacency_list@UvecS@boost@@U12@UundirectedS@2@Uno_property@2@U42@U42@UlistS@2@@4@@detail@boost@@YA?AU?$vec_adj_list_vertex_id_map@Uno_property@boost@@_K@1@AEBV?$arg_list@V?$tagged_argument@Uvisitor@tag@keywords@graph@boost@@$$CBV?$components_recorder@PEAH@detail@5@@aux@parameter@boost@@Uempty_arg_list@234@U?$integral_constant@_N$00@std@@@aux@parameter@1@AEBU?$keyword@Uvertex_index_map@tag@keywords@graph@boost@@@51@AEBV?$adjacency_list@UvecS@boost@@U12@UundirectedS@2@Uno_property@2@U42@U42@UlistS@2@@1@W4vertex_index_t@1@@Z
	??$pair_by@Uleft@member_at@relation@bimaps@boost@@V?$mutant_relation@U?$tagged@QEAVStringID@App@@Uleft@member_at@relation@bimaps@boost@@@tags@bimaps@boost@@U?$tagged@$$CBJUright@member_at@relation@bimaps@boost@@@234@Una@mpl@4@$00@345@@support@relation@bimaps@boost@@YAAEAV?$structured_pair@U?$tagged@QEAVStringID@App@@Uleft@member_at@relation@bimaps@boost@@@tags@bimaps@boost@@U?$tagged@$$CBJUright@member_at@relation@bimaps@boost@@@234@Una@mpl@4@Unormal_layout@relation@34@@123@AEAV?$mutant_relation@U?$tagged@QEAVStringID@App@@Uleft@member_at@relation@bimaps@boost@@@tags@bimaps@boost@@U?$tagged@$$CBJUright@member_at@relation@bimaps@boost@@@234@Una@mpl@4@$00@123@@Z
	??$pair_by@Uright@member_at@relation@bimaps@boost@@V?$mutant_relation@U?$tagged@QEAVStringID@App@@Uleft@member_at@relation@bimaps@boost@@@tags@bimaps@boost@@U?$tagged@$$CBJUright@member_at@relation@bimaps@boost@@@234@Una@mpl@4@$00@345@@support@relation@bimaps@boost@@YAAEAV?$structured_pair@U?$tagged@$$CBJUright@member_at@relation@bimaps@boost@@@tags@bimaps@boost@@U?$tagged@QEAVStringID@App@@Uleft@member_at@relation@bimaps@boost@@@234@Una@mpl@4@Umirror_layout@relation@34@@123@AEAV?$mutant_relation@U?$tagged@QEAVStringID@App@@Uleft@member_at@relation@bimaps@boost@@@tags@bimaps@boost@@U?$tagged@$$CBJUright@member_at@relation@bimaps@boost@@@234@Una@mpl@4@$00@123@@Z
	??$pair_by@V?$mutant_relation@U?$tagged@QEAVStringID@App@@Uleft@member_at@relation@bimaps@boost@@@tags@bimaps@boost@@U?$tagged@$$CBJUright@member_at@relation@bimaps@boost@@@234@Una@mpl@4@$00@relation@bimaps@boost@@@detail@support@relation@bimaps@boost@@YAAEAV?$structured_pair@U?$tagged@$$CBJUright@member_at@relation@bimaps@boost@@@tags@bimaps@boost@@U?$tagged@QEAVStringID@App@@Uleft@member_at@relation@bimaps@boost@@@234@Una@mpl@4@Umirror_layout@relation@34@@234@Uright@member_at@234@AEAV?$mutant_relation@U?$tagged@QEAVStringID@App@@Uleft@member_at@relation@bimaps@boost@@@tags@bimaps@boost@@U?$tagged@$$CBJUright@member_at@relation@bimaps@boost@@@234@Una@mpl@4@$00@234@@Z
	??$pair_by@V?$mutant_relation@U?$tagged@QEAVStringID@App@@Uleft@member_at@relation@bimaps@boost@@@tags@bimaps@boost@@U?$tagged@$$CBJUright@member_at@relation@bimaps@boost@@@234@Una@mpl@4@$00@relation@bimaps@boost@@@detail@support@relation@bimaps@boost@@YAAEAV?$structured_pair@U?$tagged@QEAVStringID@App@@Uleft@member_at@relation@bimaps@boost@@@tags@bimaps@boost@@U?$tagged@$$CBJUright@member_at@relation@bimaps@boost@@@234@Una@mpl@4@Unormal_layout@relation@34@@234@Uleft@member_at@234@AEAV?$mutant_relation@U?$tagged@QEAVStringID@App@@Uleft@member_at@relation@bimaps@boost@@@tags@bimaps@boost@@U?$tagged@$$CBJUright@member_at@relation@bimaps@boost@@@234@Una@mpl@4@$00@234@@Z
	??$parse@AEBV?$basic_string@DU?$char_traits@D@std@@V?$allocator@D@2@@std@@@?$basic_json@Vmap@std@@Vvector@2@V?$basic_string@DU?$char_traits@D@std@@V?$allocator@D@2@@2@_N_J_KNVallocator@2@Uadl_serializer@json_abi_v3_12_0@nlohmann@@V?$vector@EV?$allocator@E@std@@@2@X@json_abi_v3_12_0@nlohmann@@SA?AV012@AEBV?$basic_string@DU?$char_traits@D@std@@V?$allocator@D@2@@std@@V?$function@$$A6A_NHW4parse_event_t@detail@json_abi_v3_12_0@nlohmann@@AEAV?$basic_json@Vmap@std@@Vvector@2@V?$basic_string@DU?$char_traits@D@std@@V?$allocator@D@2@@2@_N_J_KNVallocator@2@Uadl_serializer@json_abi_v3_12_0@nlohmann@@V?$vector@EV?$allocator@E@std@@@2@X@34@@Z@4@_N2@Z
	??$parse_error@V0detail@json_abi_v3_12_0@nlohmann@@@?$json_sax_dom_callback_parser@V?$basic_json@Vmap@std@@Vvector@2@V?$basic_string@DU?$char_traits@D@std@@V?$allocator@D@2@@2@_N_J_KNVallocator@2@Uadl_serializer@json_abi_v3_12_0@nlohmann@@V?$vector@EV?$allocator@E@std@@@2@X@json_abi_v3_12_0@nlohmann@@V?$iterator_input_adapter@V?$_String_const_iterator@V?$_String_val@U?$_Simple_types@D@std@@@std@@@std@@@detail@23@@detail@json_abi_v3_12_0@nlohmann@@QEAA_N_KAEBV?$basic_string@DU?$char_traits@D@std@@V?$allocator@D@2@@std@@AEBVparse_error@123@@Z
	??$parse_error@V0detail@json_abi_v3_12_0@nlohmann@@@?$json_sax_dom_parser@V?$basic_json@Vmap@std@@Vvector@2@V?$basic_string@DU?$char_traits@D@std@@V?$allocator@D@2@@2@_N_J_KNVallocator@2@Uadl_serializer@json_abi_v3_12_0@nlohmann@@V?$vector@EV?$allocator@E@std@@@2@X@json_abi_v3_12_0@nlohmann@@V?$iterator_input_adapter@V?$_String_const_iterator@V?$_String_val@U?$_Simple_types@D@std@@@std@@@std@@@detail@23@@detail@json_abi_v3_12_0@nlohmann@@QEAA_N_KAEBV?$basic_string@DU?$char_traits@D@std@@V?$allocator@D@2@@std@@AEBVparse_error@123@@Z
	??$parse_error@Vout_of_range@detail@json_abi_v3_12_0@nlohmann@@@?$json_sax_dom_callback_parser@V?$basic_json@Vmap@std@@Vvector@2@V?$basic_string@DU?$char_traits@D@std@@V?$allocator@D@2@@2@_N_J_KNVallocator@2@Uadl_serializer@json_abi_v3_12_0@nlohmann@@V?$vector@EV?$allocator@E@std@@@2@X@json_abi_v3_12_0@nlohmann@@V?$iterator_input_adapter@V?$_String_const_iterator@V?$_String_val@U?$_Simple_types@D@std@@@std@@@std@@@detail@23@@detail@json_abi_v3_12_0@nlohmann@@QEAA_N_KAEBV?$basic_string@DU?$char_traits@D@std@@V?$allocator@D@2@@std@@AEBVout_of_range@123@@Z
	??$permute_outer@V?$SparseMatrix@N$0A@H@Eigen@@V?$PermutationMatrix@$0?0$0?0H@2@@?$permutation_matrix_product@V?$SparseMatrix@N$0A@H@Eigen@@$01$0A@USparseShape@2@@internal@Eigen@@SAXAEAV?$SparseMatrix@N$0A@H@2@AEBV?$PermutationMatrix@$0?0$0?0H@2@AEBV32@@Z
	??$pmax@U__m128d@@@internal@Eigen@@YA?AU__m128d@@AEBU2@0@Z
	??$pow@NH$0A@@@YANNH@Z
	??$print_matrix@V?$Matrix@N$00$0?0$00$00$0?0@Eigen@@@internal@Eigen@@YAAEAV?$basic_ostream@DU?$char_traits@D@std@@@std@@AEAV23@AEBV?$Matrix@N$00$0?0$00$00$0?0@1@AEBUIOFormat@1@@Z
	??$push@V?$list@U?$list_edge@_KUno_property@boost@@@boost@@V?$allocator@U?$list_edge@_KUno_property@boost@@@boost@@@std@@@std@@AEAU?$list_edge@_KUno_property@boost@@@boost@@@graph_detail@boost@@YA?AU?$pair@V?$_List_iterator@V?$_List_val@U?$_List_simple_types@U?$list_edge@_KUno_property@boost@@@boost@@@std@@@std@@@std@@_N@std@@AEAV?$list@U?$list_edge@_KUno_property@boost@@@boost@@V?$allocator@U?$list_edge@_KUno_property@boost@@@boost@@@std@@@3@AEAU?$list_edge@_KUno_property@boost@@@1@@Z
	??$push@V?$vector@V?$stored_edge_iter@_KV?$_List_iterator@V?$_List_val@U?$_List_simple_types@U?$list_edge@_KUno_property@boost@@@boost@@@std@@@std@@@std@@Uno_property@boost@@@detail@boost@@V?$allocator@V?$stored_edge_iter@_KV?$_List_iterator@V?$_List_val@U?$_List_simple_types@U?$list_edge@_KUno_property@boost@@@boost@@@std@@@std@@@std@@Uno_property@boost@@@detail@boost@@@std@@@std@@V?$stored_edge_iter@_KV?$_List_iterator@V?$_List_val@U?$_List_simple_types@U?$list_edge@_KUno_property@boost@@@boost@@@std@@@std@@@std@@Uno_property@boost@@@detail@boost@@@graph_detail@boost@@YA?AU?$pair@V?$_Vector_iterator@V?$_Vector_val@U?$_Simple_types@V?$stored_edge_iter@_KV?$_List_iterator@V?$_List_val@U?$_List_simple_types@U?$list_edge@_KUno_property@boost@@@boost@@@std@@@std@@@std@@Uno_property@boost@@@detail@boost@@@std@@@std@@@std@@_N@std@@AEAV?$vector@V?$stored_edge_iter@_KV?$_List_iterator@V?$_List_val@U?$_List_simple_types@U?$list_edge@_KUno_property@boost@@@boost@@@std@@@std@@@std@@Uno_property@boost@@@detail@boost@@V?$allocator@V?$stored_edge_iter@_KV?$_List_iterator@V?$_List_val@U?$_List_simple_types@U?$list_edge@_KUno_property@boost@@@boost@@@std@@@std@@@std@@Uno_property@boost@@@detail@boost@@@std@@@3@$$QEAV?$stored_edge_iter@_KV?$_List_iterator@V?$_List_val@U?$_List_simple_types@U?$list_edge@_KUno_property@boost@@@boost@@@std@@@std@@@std@@Uno_property@boost@@@detail@1@@Z
	??$push_dispatch@V?$list@U?$list_edge@_KUno_property@boost@@@boost@@V?$allocator@U?$list_edge@_KUno_property@boost@@@boost@@@std@@@std@@AEAU?$list_edge@_KUno_property@boost@@@boost@@@graph_detail@boost@@YA?AU?$pair@V?$_List_iterator@V?$_List_val@U?$_List_simple_types@U?$list_edge@_KUno_property@boost@@@boost@@@std@@@std@@@std@@_N@std@@AEAV?$list@U?$list_edge@_KUno_property@boost@@@boost@@V?$allocator@U?$list_edge@_KUno_property@boost@@@boost@@@std@@@3@AEAU?$list_edge@_KUno_property@boost@@@1@Uback_insertion_sequence_tag@01@@Z
	??$push_dispatch@V?$vector@V?$stored_edge_iter@_KV?$_List_iterator@V?$_List_val@U?$_List_simple_types@U?$list_edge@_KUno_property@boost@@@boost@@@std@@@std@@@std@@Uno_property@boost@@@detail@boost@@V?$allocator@V?$stored_edge_iter@_KV?$_List_iterator@V?$_List_val@U?$_List_simple_types@U?$list_edge@_KUno_property@boost@@@boost@@@std@@@std@@@std@@Uno_property@boost@@@detail@boost@@@std@@@std@@V?$stored_edge_iter@_KV?$_List_iterator@V?$_List_val@U?$_List_simple_types@U?$list_edge@_KUno_property@boost@@@boost@@@std@@@std@@@std@@Uno_property@boost@@@detail@boost@@@graph_detail@boost@@YA?AU?$pair@V?$_Vector_iterator@V?$_Vector_val@U?$_Simple_types@V?$stored_edge_iter@_KV?$_List_iterator@V?$_List_val@U?$_List_simple_types@U?$list_edge@_KUno_property@boost@@@boost@@@std@@@std@@@std@@Uno_property@boost@@@detail@boost@@@std@@@std@@@std@@_N@std@@AEAV?$vector@V?$stored_edge_iter@_KV?$_List_iterator@V?$_List_val@U?$_List_simple_types@U?$list_edge@_KUno_property@boost@@@boost@@@std@@@std@@@std@@Uno_property@boost@@@detail@boost@@V?$allocator@V?$stored_edge_iter@_KV?$_List_iterator@V?$_List_val@U?$_List_simple_types@U?$list_edge@_KUno_property@boost@@@boost@@@std@@@std@@@std@@Uno_property@boost@@@detail@boost@@@std@@@3@$$QEAV?$stored_edge_iter@_KV?$_List_iterator@V?$_List_val@U?$_List_simple_types@U?$list_edge@_KUno_property@boost@@@boost@@@std@@@std@@@std@@Uno_property@boost@@@detail@1@Uback_insertion_sequence_tag@01@@Z
	??$qHashEquals@VQByteArray@@@@YA_NAEBVQByteArray@@0@Z
	??$q_relocate_overlap_n@VStringIDRef@App@@_J@QtPrivate@@YAXPEAVStringIDRef@App@@_J0@Z
	??$q_relocate_overlap_n_left_move@PEAVStringIDRef@App@@_J@QtPrivate@@YAXPEAVStringIDRef@App@@_J0@Z
	??$q_relocate_overlap_n_left_move@V?$reverse_iterator@PEAVStringIDRef@App@@@std@@_J@QtPrivate@@YAXV?$reverse_iterator@PEAVStringIDRef@App@@@std@@_J0@Z
	??$redux@U?$scalar_max_op@NN$0A@@internal@Eigen@@@?$DenseBase@V?$CwiseUnaryOp@U?$scalar_abs_op@N@internal@Eigen@@$$CBV?$Matrix@N$0?0$00$0A@$0?0$00@3@@Eigen@@@Eigen@@QEBANAEBU?$scalar_max_op@NN$0A@@internal@1@@Z
	??$redux@U?$scalar_max_op@NN$0A@@internal@Eigen@@@?$DenseBase@V?$Matrix@N$00$0?0$00$00$0?0@Eigen@@@Eigen@@QEBANAEBU?$scalar_max_op@NN$0A@@internal@1@@Z
	??$redux@U?$scalar_max_op@NN$0A@@internal@Eigen@@@?$DenseBase@V?$PartialReduxExpr@$$CBV?$CwiseUnaryOp@U?$scalar_abs_op@N@internal@Eigen@@$$CBV?$Matrix@N$0?0$0?0$0A@$0?0$0?0@3@@Eigen@@U?$member_sum@NN@internal@2@$0A@@Eigen@@@Eigen@@QEBANAEBU?$scalar_max_op@NN$0A@@internal@1@@Z
	??$redux@U?$scalar_sum_op@HH@internal@Eigen@@@?$DenseBase@V?$Map@$$CBV?$Matrix@H$0?0$00$0A@$0?0$00@Eigen@@$0A@V?$Stride@$0A@$0A@@2@@Eigen@@@Eigen@@QEBAHAEBU?$scalar_sum_op@HH@internal@1@@Z
	??$redux@U?$scalar_sum_op@NN@internal@Eigen@@@?$DenseBase@V?$Block@$$CBV?$CwiseUnaryOp@U?$scalar_abs_op@N@internal@Eigen@@$$CBV?$Matrix@N$0?0$0?0$0A@$0?0$0?0@3@@Eigen@@$0?0$00$00@Eigen@@@Eigen@@QEBANAEBU?$scalar_sum_op@NN@internal@1@@Z
	??$redux@U?$scalar_sum_op@NN@internal@Eigen@@@?$DenseBase@V?$CwiseBinaryOp@U?$scalar_product_op@NN@internal@Eigen@@$$CBV?$Block@$$CBV?$Block@$$CBV?$Map@$$CBV?$Matrix@N$0?0$0?0$00$0?0$0?0@Eigen@@$0A@V?$OuterStride@$0?0@2@@Eigen@@$00$0?0$00@Eigen@@$00$0?0$0A@@3@$$CBV?$Transpose@$$CBV?$Block@$$CBV?$Map@$$CBV?$Matrix@N$0?0$00$0A@$0?0$00@Eigen@@$0A@V?$Stride@$0A@$0A@@2@@Eigen@@$0?0$00$0A@@Eigen@@@3@@Eigen@@@Eigen@@QEBANAEBU?$scalar_sum_op@NN@internal@1@@Z
	??$redux@U?$scalar_sum_op@NN@internal@Eigen@@@?$DenseBase@V?$CwiseBinaryOp@U?$scalar_product_op@NN@internal@Eigen@@$$CBV?$Transpose@$$CBV?$Block@$$CBV?$Block@$$CBV?$Map@$$CBV?$Matrix@N$0?0$0?0$00$0?0$0?0@Eigen@@$0A@V?$OuterStride@$0?0@2@@Eigen@@$00$0?0$00@Eigen@@$00$0?0$0A@@Eigen@@@3@$$CBV?$Map@$$CBV?$Matrix@N$0?0$00$0A@$0?0$00@Eigen@@$0A@V?$Stride@$0A@$0A@@2@@3@@Eigen@@@Eigen@@QEBANAEBU?$scalar_sum_op@NN@internal@1@@Z
	??$redux@U?$scalar_sum_op@NN@internal@Eigen@@@?$DenseBase@V?$CwiseBinaryOp@U?$scalar_product_op@NN@internal@Eigen@@$$CBV?$Transpose@$$CBV?$Block@$$CBV?$CwiseBinaryOp@U?$scalar_product_op@NN@internal@Eigen@@$$CBV?$CwiseNullaryOp@U?$scalar_constant_op@N@internal@Eigen@@$$CBV?$Matrix@N$0?0$00$0A@$0?0$00@3@@3@$$CBV?$Block@$$CBV?$Matrix@N$0?0$0?0$0A@$0?0$0?0@Eigen@@$0?0$00$0A@@3@@Eigen@@$00$00$0A@@Eigen@@@3@$$CBV?$Block@$$CBV?$Map@V?$Matrix@N$00$00$00$00$00@Eigen@@$0A@V?$Stride@$0A@$0A@@2@@Eigen@@$00$00$0A@@3@@Eigen@@@Eigen@@QEBANAEBU?$scalar_sum_op@NN@internal@1@@Z
	??$redux@U?$scalar_sum_op@NN@internal@Eigen@@@?$DenseBase@V?$CwiseBinaryOp@U?$scalar_product_op@NN@internal@Eigen@@$$CBV?$Transpose@$$CBV?$Block@$$CBV?$Matrix@N$0?0$00$0A@$0?0$00@Eigen@@$00$00$0A@@Eigen@@@3@$$CBV?$Block@$$CBV?$Map@V?$Matrix@N$00$0?0$00$00$00@Eigen@@$0A@V?$Stride@$0A@$0A@@2@@Eigen@@$00$00$0A@@3@@Eigen@@@Eigen@@QEBANAEBU?$scalar_sum_op@NN@internal@1@@Z
	??$redux@U?$scalar_sum_op@NN@internal@Eigen@@@?$DenseBase@V?$CwiseBinaryOp@U?$scalar_product_op@NN@internal@Eigen@@$$CBV?$Transpose@$$CBV?$Block@$$CBV?$Matrix@N$0?0$0?0$0A@$0?0$0?0@Eigen@@$00$0?0$0A@@Eigen@@@3@$$CBV?$Block@$$CBV?$Matrix@N$0?0$0?0$0A@$0?0$0?0@Eigen@@$0?0$00$00@3@@Eigen@@@Eigen@@QEBANAEBU?$scalar_sum_op@NN@internal@1@@Z
	??$redux@U?$scalar_sum_op@NN@internal@Eigen@@@?$DenseBase@V?$CwiseBinaryOp@U?$scalar_product_op@NN@internal@Eigen@@$$CBV?$Transpose@$$CBV?$Block@$$CBV?$Matrix@N$0?0$0?0$0A@$0?0$0?0@Eigen@@$00$0?0$0A@@Eigen@@@3@$$CBV?$Block@$$CBV?$Transpose@$$CBV?$Matrix@N$0?0$0?0$0A@$0?0$0?0@Eigen@@@Eigen@@$0?0$00$0A@@3@@Eigen@@@Eigen@@QEBANAEBU?$scalar_sum_op@NN@internal@1@@Z
	??$redux@U?$scalar_sum_op@NN@internal@Eigen@@@?$DenseBase@V?$CwiseBinaryOp@U?$scalar_product_op@NN@internal@Eigen@@$$CBV?$Transpose@$$CBV?$Block@$$CBV?$Transpose@$$CBV?$Block@$$CBV?$Matrix@N$0?0$0?0$0A@$0?0$0?0@Eigen@@$0?0$00$0A@@Eigen@@@Eigen@@$00$0?0$00@Eigen@@@3@$$CBV?$Block@$$CBV?$Block@V?$Block@V?$Matrix@N$0?0$00$0A@$0?0$00@Eigen@@$0?0$0?0$0A@@Eigen@@$0?0$0?0$0A@@Eigen@@$0?0$00$00@3@@Eigen@@@Eigen@@QEBANAEBU?$scalar_sum_op@NN@internal@1@@Z
	??$redux@U?$scalar_sum_op@NN@internal@Eigen@@@?$DenseBase@V?$CwiseBinaryOp@U?$scalar_product_op@NN@internal@Eigen@@$$CBV?$Transpose@$$CBV?$Block@$$CBV?$Transpose@$$CBV?$Matrix@N$0?0$0?0$0A@$0?0$0?0@Eigen@@@Eigen@@$00$0?0$00@Eigen@@@3@$$CBV?$Block@$$CBV?$Matrix@N$0?0$0?0$0A@$0?0$0?0@Eigen@@$0?0$00$00@3@@Eigen@@@Eigen@@QEBANAEBU?$scalar_sum_op@NN@internal@1@@Z
	??$redux@U?$scalar_sum_op@NN@internal@Eigen@@@?$DenseBase@V?$CwiseUnaryOp@U?$scalar_abs_op@N@internal@Eigen@@$$CBV?$Block@V?$Block@V?$Matrix@N$0?0$0?0$0A@$0?0$0?0@Eigen@@$00$0?0$0A@@Eigen@@$00$0?0$0A@@3@@Eigen@@@Eigen@@QEBANAEBU?$scalar_sum_op@NN@internal@1@@Z
	??$redux@U?$scalar_sum_op@NN@internal@Eigen@@@?$DenseBase@V?$CwiseUnaryOp@U?$scalar_abs_op@N@internal@Eigen@@$$CBV?$Block@V?$Block@V?$Matrix@N$0?0$0?0$0A@$0?0$0?0@Eigen@@$0?0$00$00@Eigen@@$0?0$00$0A@@3@@Eigen@@@Eigen@@QEBANAEBU?$scalar_sum_op@NN@internal@1@@Z
	??$redux@U?$scalar_sum_op@NN@internal@Eigen@@@?$DenseBase@V?$CwiseUnaryOp@U?$scalar_abs_op@N@internal@Eigen@@$$CBV?$Matrix@N$0?0$00$0A@$0?0$00@3@@Eigen@@@Eigen@@QEBANAEBU?$scalar_sum_op@NN@internal@1@@Z
	??$redux@U?$scalar_sum_op@NN@internal@Eigen@@@?$DenseBase@V?$CwiseUnaryOp@U?$squared_norm_functor@N$0A@@internal@Eigen@@$$CBV?$Block@$$CBV?$Block@V?$Block@V?$Matrix@N$0?0$0?0$0A@$0?0$0?0@Eigen@@$0?0$00$00@Eigen@@$0?0$00$0A@@Eigen@@$0?0$00$0A@@3@@Eigen@@@Eigen@@QEBANAEBU?$scalar_sum_op@NN@internal@1@@Z
	??$redux@U?$scalar_sum_op@NN@internal@Eigen@@@?$DenseBase@V?$CwiseUnaryOp@U?$squared_norm_functor@N$0A@@internal@Eigen@@$$CBV?$Block@V?$Block@V?$Matrix@N$0?0$0?0$0A@$0?0$0?0@Eigen@@$0?0$00$00@Eigen@@$0?0$00$0A@@3@@Eigen@@@Eigen@@QEBANAEBU?$scalar_sum_op@NN@internal@1@@Z
	??$redux@U?$scalar_sum_op@NN@internal@Eigen@@@?$DenseBase@V?$CwiseUnaryOp@U?$squared_norm_functor@N$0A@@internal@Eigen@@$$CBV?$Block@V?$Matrix@N$0?0$0?0$0A@$0?0$0?0@Eigen@@$0?0$00$00@3@@Eigen@@@Eigen@@QEBANAEBU?$scalar_sum_op@NN@internal@1@@Z
	??$redux@U?$scalar_sum_op@NN@internal@Eigen@@@?$DenseBase@V?$CwiseUnaryOp@U?$squared_norm_functor@N$0A@@internal@Eigen@@$$CBV?$CwiseBinaryOp@U?$scalar_difference_op@NN@internal@Eigen@@$$CBV?$Product@V?$Matrix@N$0?0$0?0$0A@$0?0$0?0@Eigen@@V?$Matrix@N$0?0$00$0A@$0?0$00@2@$0A@@3@$$CBV?$Matrix@N$0?0$00$0A@$0?0$00@3@@3@@Eigen@@@Eigen@@QEBANAEBU?$scalar_sum_op@NN@internal@1@@Z
	??$redux@U?$scalar_sum_op@NN@internal@Eigen@@@?$DenseBase@V?$CwiseUnaryOp@U?$squared_norm_functor@N$0A@@internal@Eigen@@$$CBV?$CwiseBinaryOp@U?$scalar_sum_op@NN@internal@Eigen@@$$CBV?$Matrix@N$0?0$00$0A@$0?0$00@3@$$CBV?$Product@V?$Matrix@N$0?0$0?0$0A@$0?0$0?0@Eigen@@V?$Matrix@N$0?0$00$0A@$0?0$00@2@$0A@@3@@3@@Eigen@@@Eigen@@QEBANAEBU?$scalar_sum_op@NN@internal@1@@Z
	??$redux@U?$scalar_sum_op@NN@internal@Eigen@@@?$DenseBase@V?$CwiseUnaryOp@U?$squared_norm_functor@N$0A@@internal@Eigen@@$$CBV?$CwiseBinaryOp@U?$scalar_sum_op@NN@internal@Eigen@@$$CBV?$Product@V?$Matrix@N$0?0$0?0$0A@$0?0$0?0@Eigen@@V?$Matrix@N$0?0$00$0A@$0?0$00@2@$0A@@3@$$CBV?$Matrix@N$0?0$00$0A@$0?0$00@3@@3@@Eigen@@@Eigen@@QEBANAEBU?$scalar_sum_op@NN@internal@1@@Z
	??$redux@U?$scalar_sum_op@NN@internal@Eigen@@@?$DenseBase@V?$CwiseUnaryOp@U?$squared_norm_functor@N$0A@@internal@Eigen@@$$CBV?$Matrix@N$0?0$00$0A@$0?0$00@3@@Eigen@@@Eigen@@QEBANAEBU?$scalar_sum_op@NN@internal@1@@Z
	??$redux@U?$scalar_sum_op@NN@internal@Eigen@@@?$DenseBase@V?$CwiseUnaryOp@U?$squared_norm_functor@N$0A@@internal@Eigen@@$$CBV?$Product@V?$Matrix@N$0?0$0?0$0A@$0?0$0?0@Eigen@@V?$Matrix@N$0?0$00$0A@$0?0$00@2@$0A@@3@@Eigen@@@Eigen@@QEBANAEBU?$scalar_sum_op@NN@internal@1@@Z
	??$redux@U?$scalar_sum_op@NN@internal@Eigen@@@?$DenseBase@V?$CwiseUnaryOp@U?$squared_norm_functor@N$0A@@internal@Eigen@@$$CBV?$Product@V?$Transpose@V?$Matrix@N$0?0$00$0A@$0?0$00@Eigen@@@Eigen@@V?$Matrix@N$0?0$00$0A@$0?0$00@2@$0A@@3@@Eigen@@@Eigen@@QEBANAEBU?$scalar_sum_op@NN@internal@1@@Z
	??$reinterpret_bits@_KN@dtoa_impl@detail@json_abi_v3_12_0@nlohmann@@YA_KN@Z
	??$requireNonEmpty@V?$vector@UNamedEdge@oreo@@V?$allocator@UNamedEdge@oreo@@@std@@@std@@@validation@oreo@@YA_NAEAVKernelContext@1@AEBV?$vector@UNamedEdge@oreo@@V?$allocator@UNamedEdge@oreo@@@std@@@std@@PEBD@Z
	??$requireNonEmpty@V?$vector@UNamedFace@oreo@@V?$allocator@UNamedFace@oreo@@@std@@@std@@@validation@oreo@@YA_NAEAVKernelContext@1@AEBV?$vector@UNamedFace@oreo@@V?$allocator@UNamedFace@oreo@@@std@@@std@@PEBD@Z
	??$requireNonEmpty@V?$vector@VNamedShape@oreo@@V?$allocator@VNamedShape@oreo@@@std@@@std@@@validation@oreo@@YA_NAEAVKernelContext@1@AEBV?$vector@VNamedShape@oreo@@V?$allocator@VNamedShape@oreo@@@std@@@std@@PEBD@Z
	??$run@U__m128d@@@?$redux_vec_linear_unroller@U?$scalar_sum_op@NN@internal@Eigen@@V?$redux_evaluator@V?$CwiseBinaryOp@U?$scalar_product_op@NN@internal@Eigen@@$$CBV?$Transpose@$$CBV?$Block@$$CBV?$CwiseBinaryOp@U?$scalar_product_op@NN@internal@Eigen@@$$CBV?$CwiseNullaryOp@U?$scalar_constant_op@N@internal@Eigen@@$$CBV?$Matrix@N$0?0$00$0A@$0?0$00@3@@3@$$CBV?$Block@$$CBV?$Matrix@N$0?0$0?0$0A@$0?0$0?0@Eigen@@$0?0$00$0A@@3@@Eigen@@$00$00$0A@@Eigen@@@3@$$CBV?$Block@$$CBV?$Map@V?$Matrix@N$00$00$00$00$00@Eigen@@$0A@V?$Stride@$0A@$0A@@2@@Eigen@@$00$00$0A@@3@@Eigen@@@23@$0A@$0A@@internal@Eigen@@SA?AU__m128d@@AEBV?$redux_evaluator@V?$CwiseBinaryOp@U?$scalar_product_op@NN@internal@Eigen@@$$CBV?$Transpose@$$CBV?$Block@$$CBV?$CwiseBinaryOp@U?$scalar_product_op@NN@internal@Eigen@@$$CBV?$CwiseNullaryOp@U?$scalar_constant_op@N@internal@Eigen@@$$CBV?$Matrix@N$0?0$00$0A@$0?0$00@3@@3@$$CBV?$Block@$$CBV?$Matrix@N$0?0$0?0$0A@$0?0$0?0@Eigen@@$0?0$00$0A@@3@@Eigen@@$00$00$0A@@Eigen@@@3@$$CBV?$Block@$$CBV?$Map@V?$Matrix@N$00$00$00$00$00@Eigen@@$0A@V?$Stride@$0A@$0A@@2@@Eigen@@$00$00$0A@@3@@Eigen@@@12@AEBU?$scalar_sum_op@NN@12@@Z
	??$run@U__m128d@@@?$redux_vec_linear_unroller@U?$scalar_sum_op@NN@internal@Eigen@@V?$redux_evaluator@V?$CwiseBinaryOp@U?$scalar_product_op@NN@internal@Eigen@@$$CBV?$Transpose@$$CBV?$Block@$$CBV?$Matrix@N$0?0$00$0A@$0?0$00@Eigen@@$00$00$0A@@Eigen@@@3@$$CBV?$Block@$$CBV?$Map@V?$Matrix@N$00$0?0$00$00$00@Eigen@@$0A@V?$Stride@$0A@$0A@@2@@Eigen@@$00$00$0A@@3@@Eigen@@@23@$0A@$0A@@internal@Eigen@@SA?AU__m128d@@AEBV?$redux_evaluator@V?$CwiseBinaryOp@U?$scalar_product_op@NN@internal@Eigen@@$$CBV?$Transpose@$$CBV?$Block@$$CBV?$Matrix@N$0?0$00$0A@$0?0$00@Eigen@@$00$00$0A@@Eigen@@@3@$$CBV?$Block@$$CBV?$Map@V?$Matrix@N$00$0?0$00$00$00@Eigen@@$0A@V?$Stride@$0A@$0A@@2@@Eigen@@$00$00$0A@@3@@Eigen@@@12@AEBU?$scalar_sum_op@NN@12@@Z
	??$run@U__m128d@@@?$redux_vec_linear_unroller@U?$scalar_sum_op@NN@internal@Eigen@@V?$redux_evaluator@V?$CwiseUnaryOp@U?$squared_norm_functor@N$0A@@internal@Eigen@@$$CBV?$Product@V?$Transpose@V?$Matrix@N$0?0$00$0A@$0?0$00@Eigen@@@Eigen@@V?$Matrix@N$0?0$00$0A@$0?0$00@2@$0A@@3@@Eigen@@@23@$0A@$0A@@internal@Eigen@@SA?AU__m128d@@AEBV?$redux_evaluator@V?$CwiseUnaryOp@U?$squared_norm_functor@N$0A@@internal@Eigen@@$$CBV?$Product@V?$Transpose@V?$Matrix@N$0?0$00$0A@$0?0$00@Eigen@@@Eigen@@V?$Matrix@N$0?0$00$0A@$0?0$00@2@$0A@@3@@Eigen@@@12@AEBU?$scalar_sum_op@NN@12@@Z
	??$run@V?$Block@$$CBV?$CwiseUnaryOp@U?$scalar_abs_op@N@internal@Eigen@@$$CBV?$Matrix@N$0?0$0?0$0A@$0?0$0?0@3@@Eigen@@$0?0$00$00@Eigen@@@?$redux_impl@U?$scalar_sum_op@NN@internal@Eigen@@V?$redux_evaluator@V?$Block@$$CBV?$CwiseUnaryOp@U?$scalar_abs_op@N@internal@Eigen@@$$CBV?$Matrix@N$0?0$0?0$0A@$0?0$0?0@3@@Eigen@@$0?0$00$00@Eigen@@@23@$02$0A@@internal@Eigen@@SANAEBV?$redux_evaluator@V?$Block@$$CBV?$CwiseUnaryOp@U?$scalar_abs_op@N@internal@Eigen@@$$CBV?$Matrix@N$0?0$0?0$0A@$0?0$0?0@3@@Eigen@@$0?0$00$00@Eigen@@@12@AEBU?$scalar_sum_op@NN@12@AEBV?$Block@$$CBV?$CwiseUnaryOp@U?$scalar_abs_op@N@internal@Eigen@@$$CBV?$Matrix@N$0?0$0?0$0A@$0?0$0?0@3@@Eigen@@$0?0$00$00@2@@Z
	??$run@V?$Block@V?$Matrix@N$0?0$00$0A@$0?0$00@Eigen@@$0?0$0?0$0A@@Eigen@@@?$triangular_product_impl@$04$00$$CBV?$Block@V?$Matrix@N$0?0$0?0$0A@$0?0$0?0@Eigen@@$0?0$0?0$0A@@Eigen@@$0A@V?$Matrix@N$0?0$0?0$0A@$0?0$00@2@$0A@@internal@Eigen@@SAXAEAV?$Block@V?$Matrix@N$0?0$00$0A@$0?0$00@Eigen@@$0?0$0?0$0A@@2@AEBV?$Block@V?$Matrix@N$0?0$0?0$0A@$0?0$0?0@Eigen@@$0?0$0?0$0A@@2@AEBV?$Matrix@N$0?0$0?0$0A@$0?0$00@2@AEBN@Z
	??$run@V?$Block@V?$Matrix@N$0?0$0?0$0A@$0?0$0?0@Eigen@@$0?0$0?0$0A@@Eigen@@V?$Block@V?$Matrix@N$0?0$00$0A@$0?0$00@Eigen@@$0?0$00$0A@@2@V?$Block@V?$Matrix@N$0?0$0?0$0A@$0?0$0?0@Eigen@@$0?0$00$0A@@2@@?$gemv_dense_selector@$01$0A@$00@internal@Eigen@@SAXAEBV?$Block@V?$Matrix@N$0?0$0?0$0A@$0?0$0?0@Eigen@@$0?0$0?0$0A@@2@AEBV?$Block@V?$Matrix@N$0?0$00$0A@$0?0$00@Eigen@@$0?0$00$0A@@2@AEAV?$Block@V?$Matrix@N$0?0$0?0$0A@$0?0$0?0@Eigen@@$0?0$00$0A@@2@AEBN@Z
	??$run@V?$CwiseBinaryOp@U?$scalar_product_op@NN@internal@Eigen@@$$CBV?$Block@$$CBV?$Block@$$CBV?$Map@$$CBV?$Matrix@N$0?0$0?0$00$0?0$0?0@Eigen@@$0A@V?$OuterStride@$0?0@2@@Eigen@@$00$0?0$00@Eigen@@$00$0?0$0A@@3@$$CBV?$Transpose@$$CBV?$Block@$$CBV?$Map@$$CBV?$Matrix@N$0?0$00$0A@$0?0$00@Eigen@@$0A@V?$Stride@$0A@$0A@@2@@Eigen@@$0?0$00$0A@@Eigen@@@3@@Eigen@@@?$redux_impl@U?$scalar_sum_op@NN@internal@Eigen@@V?$redux_evaluator@V?$CwiseBinaryOp@U?$scalar_product_op@NN@internal@Eigen@@$$CBV?$Block@$$CBV?$Block@$$CBV?$Map@$$CBV?$Matrix@N$0?0$0?0$00$0?0$0?0@Eigen@@$0A@V?$OuterStride@$0?0@2@@Eigen@@$00$0?0$00@Eigen@@$00$0?0$0A@@3@$$CBV?$Transpose@$$CBV?$Block@$$CBV?$Map@$$CBV?$Matrix@N$0?0$00$0A@$0?0$00@Eigen@@$0A@V?$Stride@$0A@$0A@@2@@Eigen@@$0?0$00$0A@@Eigen@@@3@@Eigen@@@23@$02$0A@@internal@Eigen@@SANAEBV?$redux_evaluator@V?$CwiseBinaryOp@U?$scalar_product_op@NN@internal@Eigen@@$$CBV?$Block@$$CBV?$Block@$$CBV?$Map@$$CBV?$Matrix@N$0?0$0?0$00$0?0$0?0@Eigen@@$0A@V?$OuterStride@$0?0@2@@Eigen@@$00$0?0$00@Eigen@@$00$0?0$0A@@3@$$CBV?$Transpose@$$CBV?$Block@$$CBV?$Map@$$CBV?$Matrix@N$0?0$00$0A@$0?0$00@Eigen@@$0A@V?$Stride@$0A@$0A@@2@@Eigen@@$0?0$00$0A@@Eigen@@@3@@Eigen@@@12@AEBU?$scalar_sum_op@NN@12@AEBV?$CwiseBinaryOp@U?$scalar_product_op@NN@internal@Eigen@@$$CBV?$Block@$$CBV?$Block@$$CBV?$Map@$$CBV?$Matrix@N$0?0$0?0$00$0?0$0?0@Eigen@@$0A@V?$OuterStride@$0?0@2@@Eigen@@$00$0?0$00@Eigen@@$00$0?0$0A@@3@$$CBV?$Transpose@$$CBV?$Block@$$CBV?$Map@$$CBV?$Matrix@N$0?0$00$0A@$0?0$00@Eigen@@$0A@V?$Stride@$0A@$0A@@2@@Eigen@@$0?0$00$0A@@Eigen@@@3@@2@@Z
	??$run@V?$CwiseBinaryOp@U?$scalar_product_op@NN@internal@Eigen@@$$CBV?$Transpose@$$CBV?$Block@$$CBV?$Block@$$CBV?$Map@$$CBV?$Matrix@N$0?0$0?0$00$0?0$0?0@Eigen@@$0A@V?$OuterStride@$0?0@2@@Eigen@@$00$0?0$00@Eigen@@$00$0?0$0A@@Eigen@@@3@$$CBV?$Map@$$CBV?$Matrix@N$0?0$00$0A@$0?0$00@Eigen@@$0A@V?$Stride@$0A@$0A@@2@@3@@Eigen@@@?$redux_impl@U?$scalar_sum_op@NN@internal@Eigen@@V?$redux_evaluator@V?$CwiseBinaryOp@U?$scalar_product_op@NN@internal@Eigen@@$$CBV?$Transpose@$$CBV?$Block@$$CBV?$Block@$$CBV?$Map@$$CBV?$Matrix@N$0?0$0?0$00$0?0$0?0@Eigen@@$0A@V?$OuterStride@$0?0@2@@Eigen@@$00$0?0$00@Eigen@@$00$0?0$0A@@Eigen@@@3@$$CBV?$Map@$$CBV?$Matrix@N$0?0$00$0A@$0?0$00@Eigen@@$0A@V?$Stride@$0A@$0A@@2@@3@@Eigen@@@23@$02$0A@@internal@Eigen@@SANAEBV?$redux_evaluator@V?$CwiseBinaryOp@U?$scalar_product_op@NN@internal@Eigen@@$$CBV?$Transpose@$$CBV?$Block@$$CBV?$Block@$$CBV?$Map@$$CBV?$Matrix@N$0?0$0?0$00$0?0$0?0@Eigen@@$0A@V?$OuterStride@$0?0@2@@Eigen@@$00$0?0$00@Eigen@@$00$0?0$0A@@Eigen@@@3@$$CBV?$Map@$$CBV?$Matrix@N$0?0$00$0A@$0?0$00@Eigen@@$0A@V?$Stride@$0A@$0A@@2@@3@@Eigen@@@12@AEBU?$scalar_sum_op@NN@12@AEBV?$CwiseBinaryOp@U?$scalar_product_op@NN@internal@Eigen@@$$CBV?$Transpose@$$CBV?$Block@$$CBV?$Block@$$CBV?$Map@$$CBV?$Matrix@N$0?0$0?0$00$0?0$0?0@Eigen@@$0A@V?$OuterStride@$0?0@2@@Eigen@@$00$0?0$00@Eigen@@$00$0?0$0A@@Eigen@@@3@$$CBV?$Map@$$CBV?$Matrix@N$0?0$00$0A@$0?0$00@Eigen@@$0A@V?$Stride@$0A@$0A@@2@@3@@2@@Z
	??$run@V?$CwiseBinaryOp@U?$scalar_product_op@NN@internal@Eigen@@$$CBV?$Transpose@$$CBV?$Block@$$CBV?$Transpose@$$CBV?$Block@$$CBV?$Matrix@N$0?0$0?0$0A@$0?0$0?0@Eigen@@$0?0$00$0A@@Eigen@@@Eigen@@$00$0?0$00@Eigen@@@3@$$CBV?$Block@$$CBV?$Block@V?$Block@V?$Matrix@N$0?0$00$0A@$0?0$00@Eigen@@$0?0$0?0$0A@@Eigen@@$0?0$0?0$0A@@Eigen@@$0?0$00$00@3@@Eigen@@@?$redux_impl@U?$scalar_sum_op@NN@internal@Eigen@@V?$redux_evaluator@V?$CwiseBinaryOp@U?$scalar_product_op@NN@internal@Eigen@@$$CBV?$Transpose@$$CBV?$Block@$$CBV?$Transpose@$$CBV?$Block@$$CBV?$Matrix@N$0?0$0?0$0A@$0?0$0?0@Eigen@@$0?0$00$0A@@Eigen@@@Eigen@@$00$0?0$00@Eigen@@@3@$$CBV?$Block@$$CBV?$Block@V?$Block@V?$Matrix@N$0?0$00$0A@$0?0$00@Eigen@@$0?0$0?0$0A@@Eigen@@$0?0$0?0$0A@@Eigen@@$0?0$00$00@3@@Eigen@@@23@$02$0A@@internal@Eigen@@SANAEBV?$redux_evaluator@V?$CwiseBinaryOp@U?$scalar_product_op@NN@internal@Eigen@@$$CBV?$Transpose@$$CBV?$Block@$$CBV?$Transpose@$$CBV?$Block@$$CBV?$Matrix@N$0?0$0?0$0A@$0?0$0?0@Eigen@@$0?0$00$0A@@Eigen@@@Eigen@@$00$0?0$00@Eigen@@@3@$$CBV?$Block@$$CBV?$Block@V?$Block@V?$Matrix@N$0?0$00$0A@$0?0$00@Eigen@@$0?0$0?0$0A@@Eigen@@$0?0$0?0$0A@@Eigen@@$0?0$00$00@3@@Eigen@@@12@AEBU?$scalar_sum_op@NN@12@AEBV?$CwiseBinaryOp@U?$scalar_product_op@NN@internal@Eigen@@$$CBV?$Transpose@$$CBV?$Block@$$CBV?$Transpose@$$CBV?$Block@$$CBV?$Matrix@N$0?0$0?0$0A@$0?0$0?0@Eigen@@$0?0$00$0A@@Eigen@@@Eigen@@$00$0?0$00@Eigen@@@3@$$CBV?$Block@$$CBV?$Block@V?$Block@V?$Matrix@N$0?0$00$0A@$0?0$00@Eigen@@$0?0$0?0$0A@@Eigen@@$0?0$0?0$0A@@Eigen@@$0?0$00$00@3@@2@@Z
	??$run@V?$CwiseBinaryOp@U?$scalar_product_op@NN@internal@Eigen@@$$CBV?$Transpose@$$CBV?$Block@$$CBV?$Transpose@$$CBV?$Matrix@N$0?0$0?0$0A@$0?0$0?0@Eigen@@@Eigen@@$00$0?0$00@Eigen@@@3@$$CBV?$Block@$$CBV?$Matrix@N$0?0$0?0$0A@$0?0$0?0@Eigen@@$0?0$00$00@3@@Eigen@@@?$redux_impl@U?$scalar_sum_op@NN@internal@Eigen@@V?$redux_evaluator@V?$CwiseBinaryOp@U?$scalar_product_op@NN@internal@Eigen@@$$CBV?$Transpose@$$CBV?$Block@$$CBV?$Transpose@$$CBV?$Matrix@N$0?0$0?0$0A@$0?0$0?0@Eigen@@@Eigen@@$00$0?0$00@Eigen@@@3@$$CBV?$Block@$$CBV?$Matrix@N$0?0$0?0$0A@$0?0$0?0@Eigen@@$0?0$00$00@3@@Eigen@@@23@$02$0A@@internal@Eigen@@SANAEBV?$redux_evaluator@V?$CwiseBinaryOp@U?$scalar_product_op@NN@internal@Eigen@@$$CBV?$Transpose@$$CBV?$Block@$$CBV?$Transpose@$$CBV?$Matrix@N$0?0$0?0$0A@$0?0$0?0@Eigen@@@Eigen@@$00$0?0$00@Eigen@@@3@$$CBV?$Block@$$CBV?$Matrix@N$0?0$0?0$0A@$0?0$0?0@Eigen@@$0?0$00$00@3@@Eigen@@@12@AEBU?$scalar_sum_op@NN@12@AEBV?$CwiseBinaryOp@U?$scalar_product_op@NN@internal@Eigen@@$$CBV?$Transpose@$$CBV?$Block@$$CBV?$Transpose@$$CBV?$Matrix@N$0?0$0?0$0A@$0?0$0?0@Eigen@@@Eigen@@$00$0?0$00@Eigen@@@3@$$CBV?$Block@$$CBV?$Matrix@N$0?0$0?0$0A@$0?0$0?0@Eigen@@$0?0$00$00@3@@2@@Z
	??$run@V?$CwiseUnaryOp@U?$scalar_abs_op@N@internal@Eigen@@$$CBV?$Block@V?$Block@V?$Matrix@N$0?0$0?0$0A@$0?0$0?0@Eigen@@$0?0$00$00@Eigen@@$0?0$00$0A@@3@@Eigen@@@?$redux_impl@U?$scalar_sum_op@NN@internal@Eigen@@V?$redux_evaluator@V?$CwiseUnaryOp@U?$scalar_abs_op@N@internal@Eigen@@$$CBV?$Block@V?$Block@V?$Matrix@N$0?0$0?0$0A@$0?0$0?0@Eigen@@$0?0$00$00@Eigen@@$0?0$00$0A@@3@@Eigen@@@23@$02$0A@@internal@Eigen@@SANAEBV?$redux_evaluator@V?$CwiseUnaryOp@U?$scalar_abs_op@N@internal@Eigen@@$$CBV?$Block@V?$Block@V?$Matrix@N$0?0$0?0$0A@$0?0$0?0@Eigen@@$0?0$00$00@Eigen@@$0?0$00$0A@@3@@Eigen@@@12@AEBU?$scalar_sum_op@NN@12@AEBV?$CwiseUnaryOp@U?$scalar_abs_op@N@internal@Eigen@@$$CBV?$Block@V?$Block@V?$Matrix@N$0?0$0?0$0A@$0?0$0?0@Eigen@@$0?0$00$00@Eigen@@$0?0$00$0A@@3@@2@@Z
	??$run@V?$CwiseUnaryOp@U?$scalar_abs_op@N@internal@Eigen@@$$CBV?$Matrix@N$0?0$00$0A@$0?0$00@3@@Eigen@@@?$redux_impl@U?$scalar_max_op@NN$0A@@internal@Eigen@@V?$redux_evaluator@V?$CwiseUnaryOp@U?$scalar_abs_op@N@internal@Eigen@@$$CBV?$Matrix@N$0?0$00$0A@$0?0$00@3@@Eigen@@@23@$02$0A@@internal@Eigen@@SANAEBV?$redux_evaluator@V?$CwiseUnaryOp@U?$scalar_abs_op@N@internal@Eigen@@$$CBV?$Matrix@N$0?0$00$0A@$0?0$00@3@@Eigen@@@12@AEBU?$scalar_max_op@NN$0A@@12@AEBV?$CwiseUnaryOp@U?$scalar_abs_op@N@internal@Eigen@@$$CBV?$Matrix@N$0?0$00$0A@$0?0$00@3@@2@@Z
	??$run@V?$CwiseUnaryOp@U?$scalar_abs_op@N@internal@Eigen@@$$CBV?$Matrix@N$0?0$00$0A@$0?0$00@3@@Eigen@@@?$redux_impl@U?$scalar_sum_op@NN@internal@Eigen@@V?$redux_evaluator@V?$CwiseUnaryOp@U?$scalar_abs_op@N@internal@Eigen@@$$CBV?$Matrix@N$0?0$00$0A@$0?0$00@3@@Eigen@@@23@$02$0A@@internal@Eigen@@SANAEBV?$redux_evaluator@V?$CwiseUnaryOp@U?$scalar_abs_op@N@internal@Eigen@@$$CBV?$Matrix@N$0?0$00$0A@$0?0$00@3@@Eigen@@@12@AEBU?$scalar_sum_op@NN@12@AEBV?$CwiseUnaryOp@U?$scalar_abs_op@N@internal@Eigen@@$$CBV?$Matrix@N$0?0$00$0A@$0?0$00@3@@2@@Z
	??$run@V?$CwiseUnaryOp@U?$scalar_opposite_op@N@internal@Eigen@@$$CBV?$Matrix@N$0?0$0?0$0A@$0?0$0?0@3@@Eigen@@V?$Matrix@N$0?0$00$0A@$0?0$00@2@V32@@?$gemv_dense_selector@$01$0A@$00@internal@Eigen@@SAXAEBV?$CwiseUnaryOp@U?$scalar_opposite_op@N@internal@Eigen@@$$CBV?$Matrix@N$0?0$0?0$0A@$0?0$0?0@3@@2@AEBV?$Matrix@N$0?0$00$0A@$0?0$00@2@AEAV42@AEBN@Z
	??$run@V?$CwiseUnaryOp@U?$squared_norm_functor@N$0A@@internal@Eigen@@$$CBV?$Block@$$CBV?$Block@V?$Block@V?$Matrix@N$0?0$0?0$0A@$0?0$0?0@Eigen@@$0?0$00$00@Eigen@@$0?0$00$0A@@Eigen@@$0?0$00$0A@@3@@Eigen@@@?$redux_impl@U?$scalar_sum_op@NN@internal@Eigen@@V?$redux_evaluator@V?$CwiseUnaryOp@U?$squared_norm_functor@N$0A@@internal@Eigen@@$$CBV?$Block@$$CBV?$Block@V?$Block@V?$Matrix@N$0?0$0?0$0A@$0?0$0?0@Eigen@@$0?0$00$00@Eigen@@$0?0$00$0A@@Eigen@@$0?0$00$0A@@3@@Eigen@@@23@$02$0A@@internal@Eigen@@SANAEBV?$redux_evaluator@V?$CwiseUnaryOp@U?$squared_norm_functor@N$0A@@internal@Eigen@@$$CBV?$Block@$$CBV?$Block@V?$Block@V?$Matrix@N$0?0$0?0$0A@$0?0$0?0@Eigen@@$0?0$00$00@Eigen@@$0?0$00$0A@@Eigen@@$0?0$00$0A@@3@@Eigen@@@12@AEBU?$scalar_sum_op@NN@12@AEBV?$CwiseUnaryOp@U?$squared_norm_functor@N$0A@@internal@Eigen@@$$CBV?$Block@$$CBV?$Block@V?$Block@V?$Matrix@N$0?0$0?0$0A@$0?0$0?0@Eigen@@$0?0$00$00@Eigen@@$0?0$00$0A@@Eigen@@$0?0$00$0A@@3@@2@@Z
	??$run@V?$CwiseUnaryOp@U?$squared_norm_functor@N$0A@@internal@Eigen@@$$CBV?$Block@V?$Block@V?$Matrix@N$0?0$0?0$0A@$0?0$0?0@Eigen@@$0?0$00$00@Eigen@@$0?0$00$0A@@3@@Eigen@@@?$redux_impl@U?$scalar_sum_op@NN@internal@Eigen@@V?$redux_evaluator@V?$CwiseUnaryOp@U?$squared_norm_functor@N$0A@@internal@Eigen@@$$CBV?$Block@V?$Block@V?$Matrix@N$0?0$0?0$0A@$0?0$0?0@Eigen@@$0?0$00$00@Eigen@@$0?0$00$0A@@3@@Eigen@@@23@$02$0A@@internal@Eigen@@SANAEBV?$redux_evaluator@V?$CwiseUnaryOp@U?$squared_norm_functor@N$0A@@internal@Eigen@@$$CBV?$Block@V?$Block@V?$Matrix@N$0?0$0?0$0A@$0?0$0?0@Eigen@@$0?0$00$00@Eigen@@$0?0$00$0A@@3@@Eigen@@@12@AEBU?$scalar_sum_op@NN@12@AEBV?$CwiseUnaryOp@U?$squared_norm_functor@N$0A@@internal@Eigen@@$$CBV?$Block@V?$Block@V?$Matrix@N$0?0$0?0$0A@$0?0$0?0@Eigen@@$0?0$00$00@Eigen@@$0?0$00$0A@@3@@2@@Z
	??$run@V?$CwiseUnaryOp@U?$squared_norm_functor@N$0A@@internal@Eigen@@$$CBV?$Block@V?$Matrix@N$0?0$0?0$0A@$0?0$0?0@Eigen@@$0?0$00$00@3@@Eigen@@@?$redux_impl@U?$scalar_sum_op@NN@internal@Eigen@@V?$redux_evaluator@V?$CwiseUnaryOp@U?$squared_norm_functor@N$0A@@internal@Eigen@@$$CBV?$Block@V?$Matrix@N$0?0$0?0$0A@$0?0$0?0@Eigen@@$0?0$00$00@3@@Eigen@@@23@$02$0A@@internal@Eigen@@SANAEBV?$redux_evaluator@V?$CwiseUnaryOp@U?$squared_norm_functor@N$0A@@internal@Eigen@@$$CBV?$Block@V?$Matrix@N$0?0$0?0$0A@$0?0$0?0@Eigen@@$0?0$00$00@3@@Eigen@@@12@AEBU?$scalar_sum_op@NN@12@AEBV?$CwiseUnaryOp@U?$squared_norm_functor@N$0A@@internal@Eigen@@$$CBV?$Block@V?$Matrix@N$0?0$0?0$0A@$0?0$0?0@Eigen@@$0?0$00$00@3@@2@@Z
	??$run@V?$CwiseUnaryOp@U?$squared_norm_functor@N$0A@@internal@Eigen@@$$CBV?$CwiseBinaryOp@U?$scalar_difference_op@NN@internal@Eigen@@$$CBV?$Product@V?$Matrix@N$0?0$0?0$0A@$0?0$0?0@Eigen@@V?$Matrix@N$0?0$00$0A@$0?0$00@2@$0A@@3@$$CBV?$Matrix@N$0?0$00$0A@$0?0$00@3@@3@@Eigen@@@?$redux_impl@U?$scalar_sum_op@NN@internal@Eigen@@V?$redux_evaluator@V?$CwiseUnaryOp@U?$squared_norm_functor@N$0A@@internal@Eigen@@$$CBV?$CwiseBinaryOp@U?$scalar_difference_op@NN@internal@Eigen@@$$CBV?$Product@V?$Matrix@N$0?0$0?0$0A@$0?0$0?0@Eigen@@V?$Matrix@N$0?0$00$0A@$0?0$00@2@$0A@@3@$$CBV?$Matrix@N$0?0$00$0A@$0?0$00@3@@3@@Eigen@@@23@$02$0A@@internal@Eigen@@SANAEBV?$redux_evaluator@V?$CwiseUnaryOp@U?$squared_norm_functor@N$0A@@internal@Eigen@@$$CBV?$CwiseBinaryOp@U?$scalar_difference_op@NN@internal@Eigen@@$$CBV?$Product@V?$Matrix@N$0?0$0?0$0A@$0?0$0?0@Eigen@@V?$Matrix@N$0?0$00$0A@$0?0$00@2@$0A@@3@$$CBV?$Matrix@N$0?0$00$0A@$0?0$00@3@@3@@Eigen@@@12@AEBU?$scalar_sum_op@NN@12@AEBV?$CwiseUnaryOp@U?$squared_norm_functor@N$0A@@internal@Eigen@@$$CBV?$CwiseBinaryOp@U?$scalar_difference_op@NN@internal@Eigen@@$$CBV?$Product@V?$Matrix@N$0?0$0?0$0A@$0?0$0?0@Eigen@@V?$Matrix@N$0?0$00$0A@$0?0$00@2@$0A@@3@$$CBV?$Matrix@N$0?0$00$0A@$0?0$00@3@@3@@2@@Z
	??$run@V?$CwiseUnaryOp@U?$squared_norm_functor@N$0A@@internal@Eigen@@$$CBV?$CwiseBinaryOp@U?$scalar_sum_op@NN@internal@Eigen@@$$CBV?$Matrix@N$0?0$00$0A@$0?0$00@3@$$CBV?$Product@V?$Matrix@N$0?0$0?0$0A@$0?0$0?0@Eigen@@V?$Matrix@N$0?0$00$0A@$0?0$00@2@$0A@@3@@3@@Eigen@@@?$redux_impl@U?$scalar_sum_op@NN@internal@Eigen@@V?$redux_evaluator@V?$CwiseUnaryOp@U?$squared_norm_functor@N$0A@@internal@Eigen@@$$CBV?$CwiseBinaryOp@U?$scalar_sum_op@NN@internal@Eigen@@$$CBV?$Matrix@N$0?0$00$0A@$0?0$00@3@$$CBV?$Product@V?$Matrix@N$0?0$0?0$0A@$0?0$0?0@Eigen@@V?$Matrix@N$0?0$00$0A@$0?0$00@2@$0A@@3@@3@@Eigen@@@23@$02$0A@@internal@Eigen@@SANAEBV?$redux_evaluator@V?$CwiseUnaryOp@U?$squared_norm_functor@N$0A@@internal@Eigen@@$$CBV?$CwiseBinaryOp@U?$scalar_sum_op@NN@internal@Eigen@@$$CBV?$Matrix@N$0?0$00$0A@$0?0$00@3@$$CBV?$Product@V?$Matrix@N$0?0$0?0$0A@$0?0$0?0@Eigen@@V?$Matrix@N$0?0$00$0A@$0?0$00@2@$0A@@3@@3@@Eigen@@@12@AEBU?$scalar_sum_op@NN@12@AEBV?$CwiseUnaryOp@U?$squared_norm_functor@N$0A@@internal@Eigen@@$$CBV?$CwiseBinaryOp@U?$scalar_sum_op@NN@internal@Eigen@@$$CBV?$Matrix@N$0?0$00$0A@$0?0$00@3@$$CBV?$Product@V?$Matrix@N$0?0$0?0$0A@$0?0$0?0@Eigen@@V?$Matrix@N$0?0$00$0A@$0?0$00@2@$0A@@3@@3@@2@@Z
	??$run@V?$CwiseUnaryOp@U?$squared_norm_functor@N$0A@@internal@Eigen@@$$CBV?$CwiseBinaryOp@U?$scalar_sum_op@NN@internal@Eigen@@$$CBV?$Product@V?$Matrix@N$0?0$0?0$0A@$0?0$0?0@Eigen@@V?$Matrix@N$0?0$00$0A@$0?0$00@2@$0A@@3@$$CBV?$Matrix@N$0?0$00$0A@$0?0$00@3@@3@@Eigen@@@?$redux_impl@U?$scalar_sum_op@NN@internal@Eigen@@V?$redux_evaluator@V?$CwiseUnaryOp@U?$squared_norm_functor@N$0A@@internal@Eigen@@$$CBV?$CwiseBinaryOp@U?$scalar_sum_op@NN@internal@Eigen@@$$CBV?$Product@V?$Matrix@N$0?0$0?0$0A@$0?0$0?0@Eigen@@V?$Matrix@N$0?0$00$0A@$0?0$00@2@$0A@@3@$$CBV?$Matrix@N$0?0$00$0A@$0?0$00@3@@3@@Eigen@@@23@$02$0A@@internal@Eigen@@SANAEBV?$redux_evaluator@V?$CwiseUnaryOp@U?$squared_norm_functor@N$0A@@internal@Eigen@@$$CBV?$CwiseBinaryOp@U?$scalar_sum_op@NN@internal@Eigen@@$$CBV?$Product@V?$Matrix@N$0?0$0?0$0A@$0?0$0?0@Eigen@@V?$Matrix@N$0?0$00$0A@$0?0$00@2@$0A@@3@$$CBV?$Matrix@N$0?0$00$0A@$0?0$00@3@@3@@Eigen@@@12@AEBU?$scalar_sum_op@NN@12@AEBV?$CwiseUnaryOp@U?$squared_norm_functor@N$0A@@internal@Eigen@@$$CBV?$CwiseBinaryOp@U?$scalar_sum_op@NN@internal@Eigen@@$$CBV?$Product@V?$Matrix@N$0?0$0?0$0A@$0?0$0?0@Eigen@@V?$Matrix@N$0?0$00$0A@$0?0$00@2@$0A@@3@$$CBV?$Matrix@N$0?0$00$0A@$0?0$00@3@@3@@2@@Z
	??$run@V?$CwiseUnaryOp@U?$squared_norm_functor@N$0A@@internal@Eigen@@$$CBV?$Matrix@N$0?0$00$0A@$0?0$00@3@@Eigen@@@?$redux_impl@U?$scalar_sum_op@NN@internal@Eigen@@V?$redux_evaluator@V?$CwiseUnaryOp@U?$squared_norm_functor@N$0A@@internal@Eigen@@$$CBV?$Matrix@N$0?0$00$0A@$0?0$00@3@@Eigen@@@23@$02$0A@@internal@Eigen@@SANAEBV?$redux_evaluator@V?$CwiseUnaryOp@U?$squared_norm_functor@N$0A@@internal@Eigen@@$$CBV?$Matrix@N$0?0$00$0A@$0?0$00@3@@Eigen@@@12@AEBU?$scalar_sum_op@NN@12@AEBV?$CwiseUnaryOp@U?$squared_norm_functor@N$0A@@internal@Eigen@@$$CBV?$Matrix@N$0?0$00$0A@$0?0$00@3@@2@@Z
	??$run@V?$CwiseUnaryOp@U?$squared_norm_functor@N$0A@@internal@Eigen@@$$CBV?$Product@V?$Matrix@N$0?0$0?0$0A@$0?0$0?0@Eigen@@V?$Matrix@N$0?0$00$0A@$0?0$00@2@$0A@@3@@Eigen@@@?$redux_impl@U?$scalar_sum_op@NN@internal@Eigen@@V?$redux_evaluator@V?$CwiseUnaryOp@U?$squared_norm_functor@N$0A@@internal@Eigen@@$$CBV?$Product@V?$Matrix@N$0?0$0?0$0A@$0?0$0?0@Eigen@@V?$Matrix@N$0?0$00$0A@$0?0$00@2@$0A@@3@@Eigen@@@23@$02$0A@@internal@Eigen@@SANAEBV?$redux_evaluator@V?$CwiseUnaryOp@U?$squared_norm_functor@N$0A@@internal@Eigen@@$$CBV?$Product@V?$Matrix@N$0?0$0?0$0A@$0?0$0?0@Eigen@@V?$Matrix@N$0?0$00$0A@$0?0$00@2@$0A@@3@@Eigen@@@12@AEBU?$scalar_sum_op@NN@12@AEBV?$CwiseUnaryOp@U?$squared_norm_functor@N$0A@@internal@Eigen@@$$CBV?$Product@V?$Matrix@N$0?0$0?0$0A@$0?0$0?0@Eigen@@V?$Matrix@N$0?0$00$0A@$0?0$00@2@$0A@@3@@2@@Z
	??$run@V?$Map@$$CBV?$Matrix@H$0?0$00$0A@$0?0$00@Eigen@@$0A@V?$Stride@$0A@$0A@@2@@Eigen@@@?$redux_impl@U?$scalar_sum_op@HH@internal@Eigen@@V?$redux_evaluator@V?$Map@$$CBV?$Matrix@H$0?0$00$0A@$0?0$00@Eigen@@$0A@V?$Stride@$0A@$0A@@2@@Eigen@@@23@$02$0A@@internal@Eigen@@SAHAEBV?$redux_evaluator@V?$Map@$$CBV?$Matrix@H$0?0$00$0A@$0?0$00@Eigen@@$0A@V?$Stride@$0A@$0A@@2@@Eigen@@@12@AEBU?$scalar_sum_op@HH@12@AEBV?$Map@$$CBV?$Matrix@H$0?0$00$0A@$0?0$00@Eigen@@$0A@V?$Stride@$0A@$0A@@2@@2@@Z
	??$run@V?$Matrix@N$00$0?0$00$00$0?0@Eigen@@@?$redux_impl@U?$scalar_max_op@NN$0A@@internal@Eigen@@V?$redux_evaluator@V?$Matrix@N$00$0?0$00$00$0?0@Eigen@@@23@$02$0A@@internal@Eigen@@SANAEBV?$redux_evaluator@V?$Matrix@N$00$0?0$00$00$0?0@Eigen@@@12@AEBU?$scalar_max_op@NN$0A@@12@AEBV?$Matrix@N$00$0?0$00$00$0?0@2@@Z
	??$run@V?$Matrix@N$0?0$0?0$0A@$0?0$00@Eigen@@@?$triangular_product_impl@$00$00$$CBV?$Transpose@$$CBV?$Matrix@N$0?0$0?0$00$0?0$0?0@Eigen@@@Eigen@@$0A@V?$Matrix@N$0?0$0?0$0A@$0?0$00@2@$0A@@internal@Eigen@@SAXAEAV?$Matrix@N$0?0$0?0$0A@$0?0$00@2@AEBV?$Transpose@$$CBV?$Matrix@N$0?0$0?0$00$0?0$0?0@Eigen@@@2@AEBV32@AEBN@Z
	??$run@V?$Matrix@N$0?0$0?0$0A@$0?0$00@Eigen@@@?$triangular_product_impl@$01$00V?$Matrix@N$0?0$0?0$00$0?0$0?0@Eigen@@$0A@V?$Matrix@N$0?0$0?0$0A@$0?0$00@2@$0A@@internal@Eigen@@SAXAEAV?$Matrix@N$0?0$0?0$0A@$0?0$00@2@AEBV?$Matrix@N$0?0$0?0$00$0?0$0?0@2@AEBV32@AEBN@Z
	??$run@V?$Matrix@N$0?0$0?0$0A@$0?0$00@Eigen@@@?$triangular_product_impl@$05$00$$CBV?$Transpose@$$CBV?$Block@V?$Matrix@N$0?0$0?0$0A@$0?0$0?0@Eigen@@$0?0$0?0$0A@@Eigen@@@Eigen@@$0A@V?$Block@V?$Matrix@N$0?0$00$0A@$0?0$00@Eigen@@$0?0$0?0$0A@@2@$0A@@internal@Eigen@@SAXAEAV?$Matrix@N$0?0$0?0$0A@$0?0$00@2@AEBV?$Transpose@$$CBV?$Block@V?$Matrix@N$0?0$0?0$0A@$0?0$0?0@Eigen@@$0?0$0?0$0A@@Eigen@@@2@AEBV?$Block@V?$Matrix@N$0?0$00$0A@$0?0$00@Eigen@@$0?0$0?0$0A@@2@AEBN@Z
	??$run@V?$Matrix@N$0?0$0?0$0A@$0?0$0?0@Eigen@@V?$Matrix@N$0?0$00$0A@$0?0$00@2@V32@@?$gemv_dense_selector@$01$0A@$00@internal@Eigen@@SAXAEBV?$Matrix@N$0?0$0?0$0A@$0?0$0?0@2@AEBV?$Matrix@N$0?0$00$0A@$0?0$00@2@AEAV42@AEBN@Z
	??$run@V?$Transpose@$$CBV?$Block@V?$Block@V?$Matrix@N$0?0$0?0$0A@$0?0$0?0@Eigen@@$0?0$0?0$0A@@Eigen@@$0?0$0?0$0A@@Eigen@@@Eigen@@V?$Transpose@$$CBV?$Transpose@$$CBV?$Block@$$CBV?$Block@$$CBV?$Matrix@N$0?0$0?0$0A@$0?0$0?0@Eigen@@$0?0$00$00@Eigen@@$0?0$00$0A@@Eigen@@@Eigen@@@2@V?$Transpose@V?$Map@V?$Matrix@N$00$0?0$00$00$0?0@Eigen@@$0A@V?$Stride@$0A@$0A@@2@@Eigen@@@2@@?$gemv_dense_selector@$01$00$00@internal@Eigen@@SAXAEBV?$Transpose@$$CBV?$Block@V?$Block@V?$Matrix@N$0?0$0?0$0A@$0?0$0?0@Eigen@@$0?0$0?0$0A@@Eigen@@$0?0$0?0$0A@@Eigen@@@2@AEBV?$Transpose@$$CBV?$Transpose@$$CBV?$Block@$$CBV?$Block@$$CBV?$Matrix@N$0?0$0?0$0A@$0?0$0?0@Eigen@@$0?0$00$00@Eigen@@$0?0$00$0A@@Eigen@@@Eigen@@@2@AEAV?$Transpose@V?$Map@V?$Matrix@N$00$0?0$00$00$0?0@Eigen@@$0A@V?$Stride@$0A@$0A@@2@@Eigen@@@2@AEBN@Z
	??$run@V?$Transpose@$$CBV?$Block@V?$Block@V?$Matrix@N$0?0$0?0$0A@$0?0$0?0@Eigen@@$0?0$0?0$0A@@Eigen@@$0?0$0?0$0A@@Eigen@@@Eigen@@V?$Transpose@$$CBV?$Transpose@$$CBV?$Block@V?$Block@V?$Matrix@N$0?0$0?0$0A@$0?0$0?0@Eigen@@$0?0$00$00@Eigen@@$0?0$00$0A@@Eigen@@@Eigen@@@2@V?$Transpose@V?$Map@V?$Matrix@N$00$0?0$00$00$0?0@Eigen@@$0A@V?$Stride@$0A@$0A@@2@@Eigen@@@2@@?$gemv_dense_selector@$01$00$00@internal@Eigen@@SAXAEBV?$Transpose@$$CBV?$Block@V?$Block@V?$Matrix@N$0?0$0?0$0A@$0?0$0?0@Eigen@@$0?0$0?0$0A@@Eigen@@$0?0$0?0$0A@@Eigen@@@2@AEBV?$Transpose@$$CBV?$Transpose@$$CBV?$Block@V?$Block@V?$Matrix@N$0?0$0?0$0A@$0?0$0?0@Eigen@@$0?0$00$00@Eigen@@$0?0$00$0A@@Eigen@@@Eigen@@@2@AEAV?$Transpose@V?$Map@V?$Matrix@N$00$0?0$00$00$0?0@Eigen@@$0A@V?$Stride@$0A@$0A@@2@@Eigen@@@2@AEBN@Z
	??$run@V?$Transpose@$$CBV?$Matrix@N$0?0$0?0$0A@$0?0$0?0@Eigen@@@Eigen@@V?$Matrix@N$0?0$00$0A@$0?0$00@2@V32@@?$gemv_dense_selector@$01$00$00@internal@Eigen@@SAXAEBV?$Transpose@$$CBV?$Matrix@N$0?0$0?0$0A@$0?0$0?0@Eigen@@@2@AEBV?$Matrix@N$0?0$00$0A@$0?0$00@2@AEAV42@AEBN@Z
	??$run@V?$Transpose@$$CBV?$Matrix@N$0?0$0?0$0A@$0?0$0?0@Eigen@@@Eigen@@V?$Transpose@$$CBV?$Block@$$CBV?$Matrix@N$0?0$0?0$0A@$0?0$0?0@Eigen@@$00$0?0$0A@@Eigen@@@2@V?$Transpose@V?$Block@V?$Matrix@N$0?0$0?0$0A@$0?0$0?0@Eigen@@$00$0?0$0A@@Eigen@@@2@@?$gemv_dense_selector@$01$00$00@internal@Eigen@@SAXAEBV?$Transpose@$$CBV?$Matrix@N$0?0$0?0$0A@$0?0$0?0@Eigen@@@2@AEBV?$Transpose@$$CBV?$Block@$$CBV?$Matrix@N$0?0$0?0$0A@$0?0$0?0@Eigen@@$00$0?0$0A@@Eigen@@@2@AEAV?$Transpose@V?$Block@V?$Matrix@N$0?0$0?0$0A@$0?0$0?0@Eigen@@$00$0?0$0A@@Eigen@@@2@AEBN@Z
	??$run@V?$Transpose@$$CBV?$Matrix@N$0?0$0?0$0A@$0?0$0?0@Eigen@@@Eigen@@V?$Transpose@$$CBV?$Block@$$CBV?$Transpose@V?$Matrix@N$0?0$0?0$0A@$0?0$0?0@Eigen@@@Eigen@@$00$0?0$00@Eigen@@@2@V?$Transpose@V?$Block@V?$Matrix@N$0?0$0?0$0A@$0?0$0?0@Eigen@@$00$0?0$0A@@Eigen@@@2@@?$gemv_dense_selector@$01$00$00@internal@Eigen@@SAXAEBV?$Transpose@$$CBV?$Matrix@N$0?0$0?0$0A@$0?0$0?0@Eigen@@@2@AEBV?$Transpose@$$CBV?$Block@$$CBV?$Transpose@V?$Matrix@N$0?0$0?0$0A@$0?0$0?0@Eigen@@@Eigen@@$00$0?0$00@Eigen@@@2@AEAV?$Transpose@V?$Block@V?$Matrix@N$0?0$0?0$0A@$0?0$0?0@Eigen@@$00$0?0$0A@@Eigen@@@2@AEBN@Z
	??$run@V?$Transpose@$$CBV?$Matrix@N$0?0$0?0$0A@$0?0$0?0@Eigen@@@Eigen@@V?$Transpose@$$CBV?$Matrix@N$00$0?0$00$00$0?0@Eigen@@@2@V?$Transpose@V?$Block@V?$Matrix@N$0?0$0?0$0A@$0?0$0?0@Eigen@@$00$0?0$0A@@Eigen@@@2@@?$gemv_dense_selector@$01$00$00@internal@Eigen@@SAXAEBV?$Transpose@$$CBV?$Matrix@N$0?0$0?0$0A@$0?0$0?0@Eigen@@@2@AEBV?$Transpose@$$CBV?$Matrix@N$00$0?0$00$00$0?0@Eigen@@@2@AEAV?$Transpose@V?$Block@V?$Matrix@N$0?0$0?0$0A@$0?0$0?0@Eigen@@$00$0?0$0A@@Eigen@@@2@AEBN@Z
	??$run@V?$Transpose@$$CBV?$Transpose@$$CBV?$Matrix@N$0?0$0?0$0A@$0?0$0?0@Eigen@@@Eigen@@@Eigen@@V?$Transpose@$$CBV?$Block@$$CBV?$Matrix@N$0?0$0?0$0A@$0?0$0?0@Eigen@@$00$0?0$0A@@Eigen@@@2@V?$Transpose@V?$Block@V?$Matrix@N$0?0$0?0$0A@$0?0$0?0@Eigen@@$00$0?0$0A@@Eigen@@@2@@?$gemv_dense_selector@$01$0A@$00@internal@Eigen@@SAXAEBV?$Transpose@$$CBV?$Transpose@$$CBV?$Matrix@N$0?0$0?0$0A@$0?0$0?0@Eigen@@@Eigen@@@2@AEBV?$Transpose@$$CBV?$Block@$$CBV?$Matrix@N$0?0$0?0$0A@$0?0$0?0@Eigen@@$00$0?0$0A@@Eigen@@@2@AEAV?$Transpose@V?$Block@V?$Matrix@N$0?0$0?0$0A@$0?0$0?0@Eigen@@$00$0?0$0A@@Eigen@@@2@AEBN@Z
	??$run@V?$Transpose@V?$Matrix@N$0?0$0?0$0A@$0?0$0?0@Eigen@@@Eigen@@V?$Block@$$CBV?$Matrix@N$0?0$0?0$0A@$0?0$0?0@Eigen@@$0?0$00$00@2@V?$Block@V?$Matrix@N$0?0$0?0$0A@$0?0$0?0@Eigen@@$0?0$00$00@2@@?$gemv_dense_selector@$01$00$00@internal@Eigen@@SAXAEBV?$Transpose@V?$Matrix@N$0?0$0?0$0A@$0?0$0?0@Eigen@@@2@AEBV?$Block@$$CBV?$Matrix@N$0?0$0?0$0A@$0?0$0?0@Eigen@@$0?0$00$00@2@AEAV?$Block@V?$Matrix@N$0?0$0?0$0A@$0?0$0?0@Eigen@@$0?0$00$00@2@AEBN@Z
	??$run@V?$Transpose@V?$Matrix@N$0?0$0?0$0A@$0?0$0?0@Eigen@@@Eigen@@V?$CwiseUnaryOp@U?$scalar_opposite_op@N@internal@Eigen@@$$CBV?$Matrix@N$0?0$00$0A@$0?0$00@3@@2@V?$Matrix@N$0?0$00$0A@$0?0$00@2@@?$gemv_dense_selector@$01$00$00@internal@Eigen@@SAXAEBV?$Transpose@V?$Matrix@N$0?0$0?0$0A@$0?0$0?0@Eigen@@@2@AEBV?$CwiseUnaryOp@U?$scalar_opposite_op@N@internal@Eigen@@$$CBV?$Matrix@N$0?0$00$0A@$0?0$00@3@@2@AEAV?$Matrix@N$0?0$00$0A@$0?0$00@2@AEBN@Z
	??$run@V?$Transpose@V?$Matrix@N$0?0$0?0$0A@$0?0$0?0@Eigen@@@Eigen@@V?$Matrix@N$0?0$00$0A@$0?0$00@2@V32@@?$gemv_dense_selector@$01$00$00@internal@Eigen@@SAXAEBV?$Transpose@V?$Matrix@N$0?0$0?0$0A@$0?0$0?0@Eigen@@@2@AEBV?$Matrix@N$0?0$00$0A@$0?0$00@2@AEAV42@AEBN@Z
	??$sax_parse_internal@V?$json_sax_dom_callback_parser@V?$basic_json@Vmap@std@@Vvector@2@V?$basic_string@DU?$char_traits@D@std@@V?$allocator@D@2@@2@_N_J_KNVallocator@2@Uadl_serializer@json_abi_v3_12_0@nlohmann@@V?$vector@EV?$allocator@E@std@@@2@X@json_abi_v3_12_0@nlohmann@@V?$iterator_input_adapter@V?$_String_const_iterator@V?$_String_val@U?$_Simple_types@D@std@@@std@@@std@@@detail@23@@detail@json_abi_v3_12_0@nlohmann@@@?$parser@V?$basic_json@Vmap@std@@Vvector@2@V?$basic_string@DU?$char_traits@D@std@@V?$allocator@D@2@@2@_N_J_KNVallocator@2@Uadl_serializer@json_abi_v3_12_0@nlohmann@@V?$vector@EV?$allocator@E@std@@@2@X@json_abi_v3_12_0@nlohmann@@V?$iterator_input_adapter@V?$_String_const_iterator@V?$_String_val@U?$_Simple_types@D@std@@@std@@@std@@@detail@23@@detail@json_abi_v3_12_0@nlohmann@@AEAA_NPEAV?$json_sax_dom_callback_parser@V?$basic_json@Vmap@std@@Vvector@2@V?$basic_string@DU?$char_traits@D@std@@V?$allocator@D@2@@2@_N_J_KNVallocator@2@Uadl_serializer@json_abi_v3_12_0@nlohmann@@V?$vector@EV?$allocator@E@std@@@2@X@json_abi_v3_12_0@nlohmann@@V?$iterator_input_adapter@V?$_String_const_iterator@V?$_String_val@U?$_Simple_types@D@std@@@std@@@std@@@detail@23@@123@@Z
	??$sax_parse_internal@V?$json_sax_dom_parser@V?$basic_json@Vmap@std@@Vvector@2@V?$basic_string@DU?$char_traits@D@std@@V?$allocator@D@2@@2@_N_J_KNVallocator@2@Uadl_serializer@json_abi_v3_12_0@nlohmann@@V?$vector@EV?$allocator@E@std@@@2@X@json_abi_v3_12_0@nlohmann@@V?$iterator_input_adapter@V?$_String_const_iterator@V?$_String_val@U?$_Simple_types@D@std@@@std@@@std@@@detail@23@@detail@json_abi_v3_12_0@nlohmann@@@?$parser@V?$basic_json@Vmap@std@@Vvector@2@V?$basic_string@DU?$char_traits@D@std@@V?$allocator@D@2@@2@_N_J_KNVallocator@2@Uadl_serializer@json_abi_v3_12_0@nlohmann@@V?$vector@EV?$allocator@E@std@@@2@X@json_abi_v3_12_0@nlohmann@@V?$iterator_input_adapter@V?$_String_const_iterator@V?$_String_val@U?$_Simple_types@D@std@@@std@@@std@@@detail@23@@detail@json_abi_v3_12_0@nlohmann@@AEAA_NPEAV?$json_sax_dom_parser@V?$basic_json@Vmap@std@@Vvector@2@V?$basic_string@DU?$char_traits@D@std@@V?$allocator@D@2@@2@_N_J_KNVallocator@2@Uadl_serializer@json_abi_v3_12_0@nlohmann@@V?$vector@EV?$allocator@E@std@@@2@X@json_abi_v3_12_0@nlohmann@@V?$iterator_input_adapter@V?$_String_const_iterator@V?$_String_val@U?$_Simple_types@D@std@@@std@@@std@@@detail@23@@123@@Z
	??$scaleAndAddTo@V?$Block@V?$Block@V?$Matrix@N$0?0$0?0$00$0?0$0?0@Eigen@@$00$0?0$00@Eigen@@$00$0?0$0A@@Eigen@@@?$generic_product_impl@V?$CwiseBinaryOp@U?$scalar_product_op@NN@internal@Eigen@@$$CBV?$CwiseNullaryOp@U?$scalar_constant_op@N@internal@Eigen@@$$CBV?$Matrix@N$00$0?0$00$00$0?0@3@@3@$$CBV?$Transpose@$$CBV?$Block@$$CBV?$Block@$$CBV?$Block@V?$Matrix@N$0?0$0?0$0A@$0?0$0?0@Eigen@@$0?0$0?0$0A@@Eigen@@$0?0$00$00@Eigen@@$0?0$00$0A@@Eigen@@@3@@Eigen@@V?$TriangularView@$$CBV?$Block@$$CBV?$Block@V?$Matrix@N$0?0$0?0$0A@$0?0$0?0@Eigen@@$0?0$0?0$0A@@Eigen@@$0?0$0?0$0A@@Eigen@@$04@2@UDenseShape@2@UTriangularShape@2@$06@internal@Eigen@@SAXAEAV?$Block@V?$Block@V?$Matrix@N$0?0$0?0$00$0?0$0?0@Eigen@@$00$0?0$00@Eigen@@$00$0?0$0A@@2@AEBV?$CwiseBinaryOp@U?$scalar_product_op@NN@internal@Eigen@@$$CBV?$CwiseNullaryOp@U?$scalar_constant_op@N@internal@Eigen@@$$CBV?$Matrix@N$00$0?0$00$00$0?0@3@@3@$$CBV?$Transpose@$$CBV?$Block@$$CBV?$Block@$$CBV?$Block@V?$Matrix@N$0?0$0?0$0A@$0?0$0?0@Eigen@@$0?0$0?0$0A@@Eigen@@$0?0$00$00@Eigen@@$0?0$00$0A@@Eigen@@@3@@2@AEBV?$TriangularView@$$CBV?$Block@$$CBV?$Block@V?$Matrix@N$0?0$0?0$0A@$0?0$0?0@Eigen@@$0?0$0?0$0A@@Eigen@@$0?0$0?0$0A@@Eigen@@$04@2@AEBN@Z
	??$scaleAndAddTo@V?$Block@V?$Matrix@N$0?0$00$0A@$0?0$00@Eigen@@$0?0$00$0A@@Eigen@@@?$generic_product_impl@V?$TriangularView@$$CBV?$Block@V?$Matrix@N$0?0$0?0$0A@$0?0$0?0@Eigen@@$0?0$0?0$0A@@Eigen@@$04@Eigen@@V?$Matrix@N$0?0$00$0A@$0?0$00@2@UTriangularShape@2@UDenseShape@2@$06@internal@Eigen@@SAXAEAV?$Block@V?$Matrix@N$0?0$00$0A@$0?0$00@Eigen@@$0?0$00$0A@@2@AEBV?$TriangularView@$$CBV?$Block@V?$Matrix@N$0?0$0?0$0A@$0?0$0?0@Eigen@@$0?0$0?0$0A@@Eigen@@$04@2@AEBV?$Matrix@N$0?0$00$0A@$0?0$00@2@AEBN@Z
	??$scaleAndAddTo@V?$Matrix@N$0?0$00$0A@$0?0$00@Eigen@@@?$generic_product_impl@V?$TriangularView@$$CBV?$Transpose@$$CBV?$Matrix@N$0?0$0?0$00$0?0$0?0@Eigen@@@Eigen@@$00@Eigen@@V?$Matrix@N$0?0$00$0A@$0?0$00@2@UTriangularShape@2@UDenseShape@2@$06@internal@Eigen@@SAXAEAV?$Matrix@N$0?0$00$0A@$0?0$00@2@AEBV?$TriangularView@$$CBV?$Transpose@$$CBV?$Matrix@N$0?0$0?0$00$0?0$0?0@Eigen@@@Eigen@@$00@2@AEBV32@AEBN@Z
	??$scaleAndAddTo@V?$Matrix@N$0?0$0?0$0A@$0?0$0?0@Eigen@@@?$generic_product_impl@V?$Matrix@N$0?0$0?0$0A@$0?0$0?0@Eigen@@V12@UDenseShape@2@U32@$07@internal@Eigen@@SAXAEAV?$Matrix@N$0?0$0?0$0A@$0?0$0?0@2@AEBV32@1AEBN@Z
	??$scaleAndAddTo@V?$Matrix@N$0?0$0?0$0A@$0?0$0?0@Eigen@@@?$generic_product_impl@V?$Matrix@N$0?0$0?0$0A@$0?0$0?0@Eigen@@V?$Transpose@$$CBV?$Matrix@N$0?0$0?0$0A@$0?0$0?0@Eigen@@@2@UDenseShape@2@U42@$07@internal@Eigen@@SAXAEAV?$Matrix@N$0?0$0?0$0A@$0?0$0?0@2@AEBV32@AEBV?$Transpose@$$CBV?$Matrix@N$0?0$0?0$0A@$0?0$0?0@Eigen@@@2@AEBN@Z
	??$scaleAndAddTo@V?$Matrix@N$0?0$0?0$0A@$0?0$0?0@Eigen@@@?$generic_product_impl@V?$Product@V?$Transpose@V?$Matrix@N$0?0$0?0$0A@$0?0$0?0@Eigen@@@Eigen@@V?$Matrix@N$0?0$0?0$0A@$0?0$0?0@2@$0A@@Eigen@@V?$Matrix@N$0?0$0?0$0A@$0?0$0?0@2@UDenseShape@2@U42@$07@internal@Eigen@@SAXAEAV?$Matrix@N$0?0$0?0$0A@$0?0$0?0@2@AEBV?$Product@V?$Transpose@V?$Matrix@N$0?0$0?0$0A@$0?0$0?0@Eigen@@@Eigen@@V?$Matrix@N$0?0$0?0$0A@$0?0$0?0@2@$0A@@2@AEBV32@AEBN@Z
	??$scaleAndAddTo@V?$Matrix@N$0?0$0?0$0A@$0?0$0?0@Eigen@@@?$generic_product_impl@V?$Transpose@V?$Matrix@N$0?0$0?0$0A@$0?0$0?0@Eigen@@@Eigen@@V?$Matrix@N$0?0$0?0$0A@$0?0$0?0@2@UDenseShape@2@U42@$07@internal@Eigen@@SAXAEAV?$Matrix@N$0?0$0?0$0A@$0?0$0?0@2@AEBV?$Transpose@V?$Matrix@N$0?0$0?0$0A@$0?0$0?0@Eigen@@@2@AEBV32@AEBN@Z
	??$set_intersection@V?$_Tree_const_iterator@V?$_Tree_val@U?$_Tree_simple_types@PEAN@std@@@std@@@std@@V12@V?$back_insert_iterator@V?$vector@PEANV?$allocator@PEAN@std@@@std@@@2@U?$less@X@2@@std@@YA?AV?$back_insert_iterator@V?$vector@PEANV?$allocator@PEAN@std@@@std@@@0@V?$_Tree_const_iterator@V?$_Tree_val@U?$_Tree_simple_types@PEAN@std@@@std@@@0@000V10@U?$less@X@0@@Z
	??$set_union@V?$_Vector_iterator@V?$_Vector_val@U?$_Simple_types@PEAN@std@@@std@@@std@@V12@V12@@std@@YA?AV?$_Vector_iterator@V?$_Vector_val@U?$_Simple_types@PEAN@std@@@std@@@0@V10@0000@Z
	??$smart_copy@H@internal@Eigen@@YAXPEBH0PEAH@Z
	??$smart_copy@N@internal@Eigen@@YAXPEBN0PEAN@Z
	??$smart_memmove@H@internal@Eigen@@YAXPEBH0PEAH@Z
	??$smart_memmove@N@internal@Eigen@@YAXPEBN0PEAN@Z
	??$solveInPlace@$00V?$Block@V?$Matrix@N$0?0$00$0A@$0?0$00@Eigen@@$0?0$00$0A@@Eigen@@@?$TriangularViewImpl@$$CBV?$Block@$$CBV?$Matrix@N$0?0$0?0$0A@$0?0$0?0@Eigen@@$0?0$0?0$0A@@Eigen@@$01UDense@2@@Eigen@@QEBAXAEBV?$MatrixBase@V?$Block@V?$Matrix@N$0?0$00$0A@$0?0$00@Eigen@@$0?0$00$0A@@Eigen@@@1@@Z
	??$solveInPlace@$00V?$Block@V?$Matrix@N$0?0$00$0A@$0?0$00@Eigen@@$0?0$00$0A@@Eigen@@@?$TriangularViewImpl@$$CBV?$Block@$$CBV?$Matrix@N$0?0$0?0$0A@$0?0$0?0@Eigen@@$0?0$0?0$0A@@Eigen@@$04UDense@2@@Eigen@@QEBAXAEBV?$MatrixBase@V?$Block@V?$Matrix@N$0?0$00$0A@$0?0$00@Eigen@@$0?0$00$0A@@Eigen@@@1@@Z
	??$solveInPlace@$00V?$Matrix@N$0?0$00$0A@$0?0$00@Eigen@@@?$TriangularViewImpl@$$CBV?$Matrix@N$0?0$0?0$0A@$0?0$0?0@Eigen@@$04UDense@2@@Eigen@@QEBAXAEBV?$MatrixBase@V?$Matrix@N$0?0$00$0A@$0?0$00@Eigen@@@1@@Z
	??$solveInPlace@$00V?$Matrix@N$0?0$00$0A@$0?0$00@Eigen@@@?$TriangularViewImpl@$$CBV?$Transpose@$$CBV?$Matrix@N$0?0$0?0$0A@$0?0$0?0@Eigen@@@Eigen@@$05UDense@2@@Eigen@@QEBAXAEBV?$MatrixBase@V?$Matrix@N$0?0$00$0A@$0?0$00@Eigen@@@1@@Z
	??$solveInPlace@$01V?$Matrix@N$0?0$0?0$0A@$0?0$0?0@Eigen@@@?$TriangularViewImpl@$$CBV?$Transpose@$$CBV?$Block@$$CBV?$Matrix@N$0?0$0?0$0A@$0?0$0?0@Eigen@@$0?0$0?0$0A@@Eigen@@@Eigen@@$00UDense@2@@Eigen@@QEBAXAEBV?$MatrixBase@V?$Matrix@N$0?0$0?0$0A@$0?0$0?0@Eigen@@@1@@Z
	??$split@V?$vector@V?$basic_string@DU?$char_traits@D@std@@V?$allocator@D@2@@std@@V?$allocator@V?$basic_string@DU?$char_traits@D@std@@V?$allocator@D@2@@std@@@2@@std@@AEAV?$basic_string@DU?$char_traits@D@std@@V?$allocator@D@2@@2@U?$is_any_ofF@D@detail@algorithm@boost@@@algorithm@boost@@YAAEAV?$vector@V?$basic_string@DU?$char_traits@D@std@@V?$allocator@D@2@@std@@V?$allocator@V?$basic_string@DU?$char_traits@D@std@@V?$allocator@D@2@@std@@@2@@std@@AEAV23@AEAV?$basic_string@DU?$char_traits@D@std@@V?$allocator@D@2@@3@U?$is_any_ofF@D@detail@01@W4token_compress_mode_type@01@@Z
	??$swap@VStringIDRef@App@@$0A@@std@@YAXAEAVStringIDRef@App@@0@Z
	??$throw_exception@Vbad_function_call@boost@@@boost@@YAXAEBVbad_function_call@0@@Z
	??$throw_exception@Vfailure@ios_base@std@@@boost@@YAXAEBVfailure@ios_base@std@@@Z
	??$to_chars@N@detail@json_abi_v3_12_0@nlohmann@@YAPEADPEADPEBDN@Z
	??$to_json@V?$basic_json@Vmap@std@@Vvector@2@V?$basic_string@DU?$char_traits@D@std@@V?$allocator@D@2@@2@_N_J_KNVallocator@2@Uadl_serializer@json_abi_v3_12_0@nlohmann@@V?$vector@EV?$allocator@E@std@@@2@X@json_abi_v3_12_0@nlohmann@@N$0A@@detail@json_abi_v3_12_0@nlohmann@@YAXAEAV?$basic_json@Vmap@std@@Vvector@2@V?$basic_string@DU?$char_traits@D@std@@V?$allocator@D@2@@2@_N_J_KNVallocator@2@Uadl_serializer@json_abi_v3_12_0@nlohmann@@V?$vector@EV?$allocator@E@std@@@2@X@12@N@Z
	??$to_json@V?$basic_json@Vmap@std@@Vvector@2@V?$basic_string@DU?$char_traits@D@std@@V?$allocator@D@2@@2@_N_J_KNVallocator@2@Uadl_serializer@json_abi_v3_12_0@nlohmann@@V?$vector@EV?$allocator@E@std@@@2@X@json_abi_v3_12_0@nlohmann@@V?$basic_string@DU?$char_traits@D@std@@V?$allocator@D@2@@std@@$0A@@detail@json_abi_v3_12_0@nlohmann@@YAXAEAV?$basic_json@Vmap@std@@Vvector@2@V?$basic_string@DU?$char_traits@D@std@@V?$allocator@D@2@@2@_N_J_KNVallocator@2@Uadl_serializer@json_abi_v3_12_0@nlohmann@@V?$vector@EV?$allocator@E@std@@@2@X@12@AEBV?$basic_string@DU?$char_traits@D@std@@V?$allocator@D@2@@std@@@Z
	??$triangularView@$01@?$MatrixBase@V?$Block@$$CBV?$Matrix@N$0?0$0?0$0A@$0?0$0?0@Eigen@@$0?0$0?0$0A@@Eigen@@@Eigen@@QEBA?BV?$TriangularView@$$CBV?$Block@$$CBV?$Matrix@N$0?0$0?0$0A@$0?0$0?0@Eigen@@$0?0$0?0$0A@@Eigen@@$01@1@XZ
	??$triangularView@$01@?$MatrixBase@V?$Matrix@N$0?0$0?0$00$0?0$0?0@Eigen@@@Eigen@@QEAA?AV?$TriangularView@V?$Matrix@N$0?0$0?0$00$0?0$0?0@Eigen@@$01@1@XZ
	??$triangularView@$01@?$MatrixBase@V?$Matrix@N$0?0$0?0$0A@$0?0$0?0@Eigen@@@Eigen@@QEBA?BV?$TriangularView@$$CBV?$Matrix@N$0?0$0?0$0A@$0?0$0?0@Eigen@@$01@1@XZ
	??$triangularView@$04@?$MatrixBase@V?$Block@$$CBV?$Block@V?$Matrix@N$0?0$0?0$0A@$0?0$0?0@Eigen@@$0?0$0?0$0A@@Eigen@@$0?0$0?0$0A@@Eigen@@@Eigen@@QEBA?BV?$TriangularView@$$CBV?$Block@$$CBV?$Block@V?$Matrix@N$0?0$0?0$0A@$0?0$0?0@Eigen@@$0?0$0?0$0A@@Eigen@@$0?0$0?0$0A@@Eigen@@$04@1@XZ
	??$triangularView@$04@?$MatrixBase@V?$Block@$$CBV?$Matrix@N$0?0$0?0$0A@$0?0$0?0@Eigen@@$0?0$0?0$0A@@Eigen@@@Eigen@@QEBA?BV?$TriangularView@$$CBV?$Block@$$CBV?$Matrix@N$0?0$0?0$0A@$0?0$0?0@Eigen@@$0?0$0?0$0A@@Eigen@@$04@1@XZ
	??$tryEmplace_impl@AEBVQByteArray@@$$V@?$QHash@VQByteArray@@UChildMapInfo@ElementMap@Data@@@@AEAA?AUTryEmplaceResult@0@AEBVQByteArray@@@Z
	??$unblocked@V?$Matrix@N$0?0$0?0$0A@$0?0$0?0@Eigen@@V?$Transpositions@$0?0$0?0H@2@V?$Matrix@N$0?0$00$0A@$0?0$00@2@@?$ldlt_inplace@$00@internal@Eigen@@SA_NAEAV?$Matrix@N$0?0$0?0$0A@$0?0$0?0@2@AEAV?$Transpositions@$0?0$0?0H@2@AEAV?$Matrix@N$0?0$00$0A@$0?0$00@2@AEAW4SignMatrix@12@@Z
	??$uninitialized_copy@PEAPEAUMappedNameRef@Data@@PEAPEAU12@@std@@YAPEAPEAUMappedNameRef@Data@@QEAPEAU12@0PEAPEAU12@@Z
	??$uninitialized_copy@PEAPEAVStringIDRef@App@@PEAPEAV12@@std@@YAPEAPEAVStringIDRef@App@@QEAPEAV12@0PEAPEAV12@@Z
	??$uninitialized_fill@PEAV?$_List_unchecked_const_iterator@V?$_List_val@U?$_List_simple_types@UByteArray@Data@@@std@@@std@@U_Iterator_base0@2@@std@@V12@@std@@YAXQEAV?$_List_unchecked_const_iterator@V?$_List_val@U?$_List_simple_types@UByteArray@Data@@@std@@@std@@U_Iterator_base0@2@@0@0AEBV10@@Z
	??$uninitialized_fill@PEAV?$_List_unchecked_iterator@V?$_List_val@U?$_List_simple_types@U?$pair@$$CBIV?$shared_ptr@VElementMap@Data@@@std@@@std@@@std@@@std@@@std@@V12@@std@@YAXQEAV?$_List_unchecked_iterator@V?$_List_val@U?$_List_simple_types@U?$pair@$$CBIV?$shared_ptr@VElementMap@Data@@@std@@@std@@@std@@@std@@@0@0AEBV10@@Z
	??$uninitialized_fill@PEAV?$_List_unchecked_iterator@V?$_List_val@U?$_List_simple_types@U?$pair@$$CBV?$basic_string@DU?$char_traits@D@std@@V?$allocator@D@2@@std@@H@std@@@std@@@std@@@std@@V12@@std@@YAXQEAV?$_List_unchecked_iterator@V?$_List_val@U?$_List_simple_types@U?$pair@$$CBV?$basic_string@DU?$char_traits@D@std@@V?$allocator@D@2@@std@@H@std@@@std@@@std@@@0@0AEBV10@@Z
	??$uninitialized_fill@PEAV?$_List_unchecked_iterator@V?$_List_val@U?$_List_simple_types@U?$pair@QEBVElementMap@Data@@I@std@@@std@@@std@@@std@@V12@@std@@YAXQEAV?$_List_unchecked_iterator@V?$_List_val@U?$_List_simple_types@U?$pair@QEBVElementMap@Data@@I@std@@@std@@@std@@@0@0AEBV10@@Z
	??$unique@Viterator@?$QList@VStringIDRef@App@@@@U?$equal_to@X@std@@@std@@YA?AViterator@?$QList@VStringIDRef@App@@@@V12@0U?$equal_to@X@0@@Z
	??$unwrap@U?$basic_array_source@D@iostreams@boost@@@detail@iostreams@boost@@YAAEAU?$basic_array_source@D@12@AEAU312@@Z
	??$use_facet@V?$codecvt@DDU_Mbstatet@@@std@@@std@@YAAEBV?$codecvt@DDU_Mbstatet@@@0@AEBVlocale@0@@Z
	??$use_facet@V?$ctype@D@std@@@std@@YAAEBV?$ctype@D@0@AEBVlocale@0@@Z
	??$value@AEAY00$$CBDAEAY04$$CBDV?$basic_string@DU?$char_traits@D@std@@V?$allocator@D@2@@std@@$0A@@?$basic_json@Vmap@std@@Vvector@2@V?$basic_string@DU?$char_traits@D@std@@V?$allocator@D@2@@2@_N_J_KNVallocator@2@Uadl_serializer@json_abi_v3_12_0@nlohmann@@V?$vector@EV?$allocator@E@std@@@2@X@json_abi_v3_12_0@nlohmann@@QEBA?AV?$basic_string@DU?$char_traits@D@std@@V?$allocator@D@2@@std@@AEAY04$$CBDAEAY00$$CBD@Z
	??$value@AEAY00$$CBDAEAY09$$CBDV?$basic_string@DU?$char_traits@D@std@@V?$allocator@D@2@@std@@$0A@@?$basic_json@Vmap@std@@Vvector@2@V?$basic_string@DU?$char_traits@D@std@@V?$allocator@D@2@@2@_N_J_KNVallocator@2@Uadl_serializer@json_abi_v3_12_0@nlohmann@@V?$vector@EV?$allocator@E@std@@@2@X@json_abi_v3_12_0@nlohmann@@QEBA?AV?$basic_string@DU?$char_traits@D@std@@V?$allocator@D@2@@std@@AEAY09$$CBDAEAY00$$CBD@Z
	??$value@AEAY00$$CBDAEAY0M@$$CBDV?$basic_string@DU?$char_traits@D@std@@V?$allocator@D@2@@std@@$0A@@?$basic_json@Vmap@std@@Vvector@2@V?$basic_string@DU?$char_traits@D@std@@V?$allocator@D@2@@2@_N_J_KNVallocator@2@Uadl_serializer@json_abi_v3_12_0@nlohmann@@V?$vector@EV?$allocator@E@std@@@2@X@json_abi_v3_12_0@nlohmann@@QEBA?AV?$basic_string@DU?$char_traits@D@std@@V?$allocator@D@2@@std@@AEAY0M@$$CBDAEAY00$$CBD@Z
	??$value@NAEAY01$$CBDN$0A@@?$basic_json@Vmap@std@@Vvector@2@V?$basic_string@DU?$char_traits@D@std@@V?$allocator@D@2@@2@_N_J_KNVallocator@2@Uadl_serializer@json_abi_v3_12_0@nlohmann@@V?$vector@EV?$allocator@E@std@@@2@X@json_abi_v3_12_0@nlohmann@@QEBANAEAY01$$CBD$$QEAN@Z
	??$value@NAEAY02$$CBDN$0A@@?$basic_json@Vmap@std@@Vvector@2@V?$basic_string@DU?$char_traits@D@std@@V?$allocator@D@2@@2@_N_J_KNVallocator@2@Uadl_serializer@json_abi_v3_12_0@nlohmann@@V?$vector@EV?$allocator@E@std@@@2@X@json_abi_v3_12_0@nlohmann@@QEBANAEAY02$$CBD$$QEAN@Z
	??$value@_NAEAY0L@$$CBD_N$0A@@?$basic_json@Vmap@std@@Vvector@2@V?$basic_string@DU?$char_traits@D@std@@V?$allocator@D@2@@2@_N_J_KNVallocator@2@Uadl_serializer@json_abi_v3_12_0@nlohmann@@V?$vector@EV?$allocator@E@std@@@2@X@json_abi_v3_12_0@nlohmann@@QEBA_NAEAY0L@$$CBD$$QEA_N@Z
	??$visitor@V?$components_recorder@PEAH@detail@boost@@@boost@@YA?AU?$bgl_named_params@V?$components_recorder@PEAH@detail@boost@@W4graph_visitor_t@3@Uno_property@3@@0@AEBV?$components_recorder@PEAH@detail@0@@Z
	??0?$BlockImpl_dense@$$CBV?$CwiseUnaryOp@U?$scalar_opposite_op@N@internal@Eigen@@$$CBV?$Matrix@N$0?0$0?0$0A@$0?0$0?0@3@@Eigen@@$00$0?0$0A@$0A@@internal@Eigen@@QEAA@AEBV?$CwiseUnaryOp@U?$scalar_opposite_op@N@internal@Eigen@@$$CBV?$Matrix@N$0?0$0?0$0A@$0?0$0?0@3@@2@_J@Z
	??0?$Data@U?$Node@VQByteArray@@UChildMapInfo@ElementMap@Data@@@QHashPrivate@@@QHashPrivate@@QEAA@AEBU01@@Z
	??0?$Data@U?$Node@VQByteArray@@UChildMapInfo@ElementMap@Data@@@QHashPrivate@@@QHashPrivate@@QEAA@AEBU01@_K@Z
	??0?$Data@U?$Node@VQByteArray@@UChildMapInfo@ElementMap@Data@@@QHashPrivate@@@QHashPrivate@@QEAA@_K@Z
	??0?$NCollection_IndexedMap@VTopoDS_Shape@@VTopTools_ShapeMapHasher@@@@QEAA@XZ
	??0?$Node@VQByteArray@@UChildMapInfo@ElementMap@Data@@@QHashPrivate@@QEAA@$$QEAU01@@Z
	??0?$OperationResult@VNamedShape@oreo@@@oreo@@QEAA@$$QEAV01@@Z
	??0?$QList@VStringIDRef@App@@@@QEAA@AEBV0@@Z
	??0?$Span@U?$Node@VQByteArray@@UChildMapInfo@ElementMap@Data@@@QHashPrivate@@@QHashPrivate@@QEAA@XZ
	??0?$SparseQR@V?$SparseMatrix@N$0A@H@Eigen@@V?$COLAMDOrdering@H@2@@Eigen@@QEAA@XZ
	??0?$_Fake_no_copy_callable_adapter@P8System@GCS@@EAAXAEBV?$Matrix@N$0?0$0?0$0A@$0?0$0?0@Eigen@@AEBV?$map@HHU?$less@H@std@@V?$allocator@U?$pair@$$CBHH@std@@@2@@std@@AEBV?$vector@PEANV?$allocator@PEAN@std@@@6@_N@ZPEAV12@AEAV34@AEAV56@AEAV76@_N@std@@QEAA@AEBV01@@Z
	??0?$array_adapter@Uinput_seekable@iostreams@boost@@D@detail@iostreams@boost@@QEAA@PEBD_K@Z
	??0?$basic_json@Vmap@std@@Vvector@2@V?$basic_string@DU?$char_traits@D@std@@V?$allocator@D@2@@2@_N_J_KNVallocator@2@Uadl_serializer@json_abi_v3_12_0@nlohmann@@V?$vector@EV?$allocator@E@std@@@2@X@json_abi_v3_12_0@nlohmann@@QEAA@AEBV012@@Z
	??0?$basic_json@Vmap@std@@Vvector@2@V?$basic_string@DU?$char_traits@D@std@@V?$allocator@D@2@@2@_N_J_KNVallocator@2@Uadl_serializer@json_abi_v3_12_0@nlohmann@@V?$vector@EV?$allocator@E@std@@@2@X@json_abi_v3_12_0@nlohmann@@QEAA@V?$initializer_list@V?$json_ref@V?$basic_json@Vmap@std@@Vvector@2@V?$basic_string@DU?$char_traits@D@std@@V?$allocator@D@2@@2@_N_J_KNVallocator@2@Uadl_serializer@json_abi_v3_12_0@nlohmann@@V?$vector@EV?$allocator@E@std@@@2@X@json_abi_v3_12_0@nlohmann@@@detail@json_abi_v3_12_0@nlohmann@@@std@@_NW4value_t@detail@12@@Z
	??0?$basic_ostringstream@DU?$char_traits@D@std@@V?$allocator@D@2@@std@@QEAA@XZ
	??0?$basic_string@DU?$char_traits@D@std@@V?$allocator@D@2@@std@@QEAA@AEBV01@@Z
	??0?$basic_string@DU?$char_traits@D@std@@V?$allocator@D@2@@std@@QEAA@QEBD@Z
	??0?$basic_string@DU?$char_traits@D@std@@V?$allocator@D@2@@std@@QEAA@U_String_constructor_concat_tag@1@AEAV01@1@Z
	??0?$basic_string@DU?$char_traits@D@std@@V?$allocator@D@2@@std@@QEAA@U_String_constructor_concat_tag@1@AEBV01@QEBD_K23@Z
	??0?$basic_string@DU?$char_traits@D@std@@V?$allocator@D@2@@std@@QEAA@XZ
	??0?$basic_string@DU?$char_traits@D@std@@V?$allocator@D@2@@std@@QEAA@_KD@Z
	??0?$basic_string@_WU?$char_traits@_W@std@@V?$allocator@_W@2@@std@@QEAA@AEBV01@@Z
	??0?$basic_stringstream@DU?$char_traits@D@std@@V?$allocator@D@2@@std@@QEAA@XZ
	??0?$bucket_array@V?$allocator@V?$mutant_relation@U?$tagged@QEAVStringID@App@@Uleft@member_at@relation@bimaps@boost@@@tags@bimaps@boost@@U?$tagged@$$CBJUright@member_at@relation@bimaps@boost@@@234@Una@mpl@4@$00@relation@bimaps@boost@@@std@@@detail@multi_index@boost@@QEAA@AEBV?$allocator@V?$mutant_relation@U?$tagged@QEAVStringID@App@@Uleft@member_at@relation@bimaps@boost@@@tags@bimaps@boost@@U?$tagged@$$CBJUright@member_at@relation@bimaps@boost@@@234@Una@mpl@4@$00@relation@bimaps@boost@@@std@@PEAU?$hashed_index_node_impl@V?$allocator@D@std@@@123@_K@Z
	??0?$direct_streambuf@U?$basic_array_source@D@iostreams@boost@@U?$char_traits@D@std@@@detail@iostreams@boost@@IEAA@XZ
	??0?$enable_shared_from_this@VElementMap@Data@@@std@@IEAA@AEBV01@@Z
	??0?$enable_shared_from_this@VElementMap@Data@@@std@@IEAA@XZ
	??0?$evaluator@V?$Solve@V?$FullPivLU@V?$Matrix@N$0?0$0?0$0A@$0?0$0?0@Eigen@@H@Eigen@@V?$CwiseUnaryOp@U?$scalar_opposite_op@N@internal@Eigen@@$$CBV?$Matrix@N$0?0$00$0A@$0?0$00@3@@2@@Eigen@@@internal@Eigen@@QEAA@AEBV?$Solve@V?$FullPivLU@V?$Matrix@N$0?0$0?0$0A@$0?0$0?0@Eigen@@H@Eigen@@V?$CwiseUnaryOp@U?$scalar_opposite_op@N@internal@Eigen@@$$CBV?$Matrix@N$0?0$00$0A@$0?0$00@3@@2@@2@@Z
	??0?$evaluator@V?$Solve@V?$LDLT@V?$Matrix@N$0?0$0?0$0A@$0?0$0?0@Eigen@@$00@Eigen@@V?$CwiseUnaryOp@U?$scalar_opposite_op@N@internal@Eigen@@$$CBV?$Matrix@N$0?0$00$0A@$0?0$00@3@@2@@Eigen@@@internal@Eigen@@QEAA@AEBV?$Solve@V?$LDLT@V?$Matrix@N$0?0$0?0$0A@$0?0$0?0@Eigen@@$00@Eigen@@V?$CwiseUnaryOp@U?$scalar_opposite_op@N@internal@Eigen@@$$CBV?$Matrix@N$0?0$00$0A@$0?0$00@3@@2@@2@@Z
	??0?$function@$$A6A?AV?$basic_json@Vmap@std@@Vvector@2@V?$basic_string@DU?$char_traits@D@std@@V?$allocator@D@2@@2@_N_J_KNVallocator@2@Uadl_serializer@json_abi_v3_12_0@nlohmann@@V?$vector@EV?$allocator@E@std@@@2@X@json_abi_v3_12_0@nlohmann@@AEBV123@@Z@std@@QEAA@$$QEAV01@@Z
	??0?$function@$$A6A_NHW4parse_event_t@detail@json_abi_v3_12_0@nlohmann@@AEAV?$basic_json@Vmap@std@@Vvector@2@V?$basic_string@DU?$char_traits@D@std@@V?$allocator@D@2@@2@_N_J_KNVallocator@2@Uadl_serializer@json_abi_v3_12_0@nlohmann@@V?$vector@EV?$allocator@E@std@@@2@X@34@@Z@std@@QEAA@$$QEAV01@@Z
	??0?$gemm_blocking_space@$0A@NN$0?0$0?0$0?0$00$0A@@internal@Eigen@@QEAA@_J000_N@Z
	??0?$local_nested_eval_wrapper@V?$CwiseBinaryOp@U?$scalar_product_op@NN@internal@Eigen@@$$CBV?$CwiseNullaryOp@U?$scalar_constant_op@N@internal@Eigen@@$$CBV?$Matrix@N$0?0$00$0A@$0?0$00@3@@3@$$CBV?$Block@$$CBV?$Block@$$CBV?$Matrix@N$0?0$0?0$0A@$0?0$0?0@Eigen@@$0?0$00$00@Eigen@@$0?0$00$0A@@3@@Eigen@@$0?0$00@internal@Eigen@@QEAA@AEBV?$CwiseBinaryOp@U?$scalar_product_op@NN@internal@Eigen@@$$CBV?$CwiseNullaryOp@U?$scalar_constant_op@N@internal@Eigen@@$$CBV?$Matrix@N$0?0$00$0A@$0?0$00@3@@3@$$CBV?$Block@$$CBV?$Block@$$CBV?$Matrix@N$0?0$0?0$0A@$0?0$0?0@Eigen@@$0?0$00$00@Eigen@@$0?0$00$0A@@3@@2@PEAN@Z
	??0?$local_nested_eval_wrapper@V?$CwiseBinaryOp@U?$scalar_product_op@NN@internal@Eigen@@$$CBV?$CwiseNullaryOp@U?$scalar_constant_op@N@internal@Eigen@@$$CBV?$Matrix@N$0?0$00$0A@$0?0$00@3@@3@$$CBV?$Block@V?$Block@V?$Matrix@N$0?0$0?0$0A@$0?0$0?0@Eigen@@$0?0$00$00@Eigen@@$0?0$00$0A@@3@@Eigen@@$0?0$00@internal@Eigen@@QEAA@AEBV?$CwiseBinaryOp@U?$scalar_product_op@NN@internal@Eigen@@$$CBV?$CwiseNullaryOp@U?$scalar_constant_op@N@internal@Eigen@@$$CBV?$Matrix@N$0?0$00$0A@$0?0$00@3@@3@$$CBV?$Block@V?$Block@V?$Matrix@N$0?0$0?0$0A@$0?0$0?0@Eigen@@$0?0$00$00@Eigen@@$0?0$00$0A@@3@@2@PEAN@Z
	??0?$local_nested_eval_wrapper@V?$CwiseBinaryOp@U?$scalar_product_op@NN@internal@Eigen@@$$CBV?$CwiseNullaryOp@U?$scalar_constant_op@N@internal@Eigen@@$$CBV?$Matrix@N$0?0$00$0A@$0?0$00@3@@3@$$CBV?$Matrix@N$0?0$00$0A@$0?0$00@3@@Eigen@@$0?0$00@internal@Eigen@@QEAA@AEBV?$CwiseBinaryOp@U?$scalar_product_op@NN@internal@Eigen@@$$CBV?$CwiseNullaryOp@U?$scalar_constant_op@N@internal@Eigen@@$$CBV?$Matrix@N$0?0$00$0A@$0?0$00@3@@3@$$CBV?$Matrix@N$0?0$00$0A@$0?0$00@3@@2@PEAN@Z
	??0?$map@PEAVConstraint@GCS@@V?$set@HU?$less@H@std@@V?$allocator@H@2@@std@@U?$less@PEAVConstraint@GCS@@@4@V?$allocator@U?$pair@QEAVConstraint@GCS@@V?$set@HU?$less@H@std@@V?$allocator@H@2@@std@@@std@@@4@@std@@QEAA@XZ
	??0?$map@VIndexedName@Data@@V?$map@UNameKey@oreo@@UNameInfo@2@U?$less@UNameKey@oreo@@@std@@V?$allocator@U?$pair@$$CBUNameKey@oreo@@UNameInfo@2@@std@@@5@@std@@U?$less@VIndexedName@Data@@@4@V?$allocator@U?$pair@$$CBVIndexedName@Data@@V?$map@UNameKey@oreo@@UNameInfo@2@U?$less@UNameKey@oreo@@@std@@V?$allocator@U?$pair@$$CBUNameKey@oreo@@UNameInfo@2@@std@@@5@@std@@@std@@@4@@std@@QEAA@XZ
	??0?$set@HU?$less@H@std@@V?$allocator@H@2@@std@@QEAA@XZ
	??0?$set@PEAVConstraint@GCS@@U?$less@PEAVConstraint@GCS@@@std@@V?$allocator@PEAVConstraint@GCS@@@4@@std@@QEAA@AEBV01@@Z
	??0?$set@PEAVConstraint@GCS@@U?$less@PEAVConstraint@GCS@@@std@@V?$allocator@PEAVConstraint@GCS@@@4@@std@@QEAA@XZ
	??0?$split_iterator@V?$_String_iterator@V?$_String_val@U?$_Simple_types@D@std@@@std@@@std@@@algorithm@boost@@QEAA@AEBV012@@Z
	??0?$token_finderF@U?$is_any_ofF@D@detail@algorithm@boost@@@detail@algorithm@boost@@QEAA@$$QEAU0123@@Z
	??0?$tuple@P8System@GCS@@EAAXAEBV?$Matrix@N$0?0$0?0$0A@$0?0$0?0@Eigen@@AEBV?$map@HHU?$less@H@std@@V?$allocator@U?$pair@$$CBHH@std@@@2@@std@@AEBV?$vector@PEANV?$allocator@PEAN@std@@@6@_N@ZPEAV12@V34@V56@V76@_N@std@@QEAA@$$QEAV01@@Z
	??0?$vector@HV?$allocator@H@std@@@std@@QEAA@AEBV01@@Z
	??0?$vector@HV?$allocator@H@std@@@std@@QEAA@_KAEBV?$allocator@H@1@@Z
	??0?$vector@NV?$allocator@N@std@@@std@@QEAA@AEBV01@@Z
	??0?$vector@PEANV?$allocator@PEAN@std@@@std@@QEAA@AEBV01@@Z
	??0?$vector@PEANV?$allocator@PEAN@std@@@std@@QEAA@_KAEBV?$allocator@PEAN@1@@Z
	??0?$vector@PEAVConstraint@GCS@@V?$allocator@PEAVConstraint@GCS@@@std@@@std@@QEAA@AEBV01@@Z
	??0?$vector@PEAVSubSystem@GCS@@V?$allocator@PEAVSubSystem@GCS@@@std@@@std@@QEAA@AEBV01@@Z
	??0?$vector@UElementRef@oreo@@V?$allocator@UElementRef@oreo@@@std@@@std@@QEAA@AEBV01@@Z
	??0?$vector@V?$vector@PEANV?$allocator@PEAN@std@@@std@@V?$allocator@V?$vector@PEANV?$allocator@PEAN@std@@@std@@@2@@std@@QEAA@AEBV01@@Z
	??0?$vector@V?$vector@PEAVConstraint@GCS@@V?$allocator@PEAVConstraint@GCS@@@std@@@std@@V?$allocator@V?$vector@PEAVConstraint@GCS@@V?$allocator@PEAVConstraint@GCS@@@std@@@std@@@2@@std@@QEAA@AEBV01@@Z
	??0?$vector@V?$vector@PEAVConstraint@GCS@@V?$allocator@PEAVConstraint@GCS@@@std@@@std@@V?$allocator@V?$vector@PEAVConstraint@GCS@@V?$allocator@PEAVConstraint@GCS@@@std@@@std@@@2@@std@@QEAA@_KAEBV?$allocator@V?$vector@PEAVConstraint@GCS@@V?$allocator@PEAVConstraint@GCS@@@std@@@std@@@1@@Z
	??0?$vector@VNamedShape@oreo@@V?$allocator@VNamedShape@oreo@@@std@@@std@@QEAA@V?$initializer_list@VNamedShape@oreo@@@1@AEBV?$allocator@VNamedShape@oreo@@@1@@Z
	??0?$vector@VTopoShapeAdapter@oreo@@V?$allocator@VTopoShapeAdapter@oreo@@@std@@@std@@QEAA@AEBV01@@Z
	??0?$wrapexcept@Vbad_function_call@boost@@@boost@@QEAA@AEBU01@@Z
	??0?$wrapexcept@Vbad_function_call@boost@@@boost@@QEAA@AEBVbad_function_call@1@@Z
	??0?$wrapexcept@Vfailure@ios_base@std@@@boost@@QEAA@AEBU01@@Z
	??0?$wrapexcept@Vfailure@ios_base@std@@@boost@@QEAA@AEBVfailure@ios_base@std@@@Z
	??0Arc@GCS@@QEAA@AEBV01@@Z
	??0Arc@GCS@@QEAA@XZ
	??0ArcOfEllipse@GCS@@QEAA@AEBV01@@Z
	??0ArcOfEllipse@GCS@@QEAA@XZ
	??0ArcOfHyperbola@GCS@@QEAA@AEBV01@@Z
	??0ArcOfHyperbola@GCS@@QEAA@XZ
	??0ArcOfParabola@GCS@@QEAA@AEBV01@@Z
	??0ArcOfParabola@GCS@@QEAA@XZ
	??0BSpline@GCS@@QEAA@AEBV01@@Z
	??0BSpline@GCS@@QEAA@XZ
	??0CacheSizes@internal@Eigen@@QEAA@XZ
	??0Circle@GCS@@QEAA@AEBV01@@Z
	??0Circle@GCS@@QEAA@XZ
	??0Constraint@GCS@@QEAA@AEBV01@@Z
	??0Constraint@GCS@@QEAA@XZ
	??0ConstraintAngleViaPoint@GCS@@QEAA@AEAVCurve@1@0VPoint@1@PEAN@Z
	??0ConstraintAngleViaPointAndParam@GCS@@QEAA@AEAVCurve@1@0VPoint@1@PEAN2@Z
	??0ConstraintAngleViaPointAndTwoParams@GCS@@QEAA@AEAVCurve@1@0VPoint@1@PEAN22@Z
	??0ConstraintAngleViaTwoPoints@GCS@@QEAA@AEAVCurve@1@0VPoint@1@1PEAN@Z
	??0ConstraintArcLength@GCS@@QEAA@AEAVArc@1@PEAN@Z
	??0ConstraintC2CDistance@GCS@@QEAA@AEAVCircle@1@0PEAN@Z
	??0ConstraintC2LDistance@GCS@@QEAA@AEAVCircle@1@AEAVLine@1@PEAN@Z
	??0ConstraintCenterOfGravity@GCS@@QEAA@AEBV?$vector@PEANV?$allocator@PEAN@std@@@std@@AEBV?$vector@NV?$allocator@N@std@@@3@@Z
	??0ConstraintCurveValue@GCS@@QEAA@AEAVPoint@1@PEANAEAVCurve@1@1@Z
	??0ConstraintDifference@GCS@@QEAA@PEAN00@Z
	??0ConstraintEllipseTangentLine@GCS@@QEAA@AEAVLine@1@AEAVEllipse@1@@Z
	??0ConstraintEqual@GCS@@QEAA@PEAN0N@Z
	??0ConstraintEqualFocalDistance@GCS@@QEAA@PEAVArcOfParabola@1@0@Z
	??0ConstraintEqualLineLength@GCS@@QEAA@AEAVLine@1@0@Z
	??0ConstraintEqualMajorAxesConic@GCS@@QEAA@PEAVMajorRadiusConic@1@0@Z
	??0ConstraintInternalAlignmentPoint2Ellipse@GCS@@QEAA@AEAVEllipse@1@AEAVPoint@1@W4InternalAlignmentType@1@@Z
	??0ConstraintInternalAlignmentPoint2Hyperbola@GCS@@QEAA@AEAVHyperbola@1@AEAVPoint@1@W4InternalAlignmentType@1@@Z
	??0ConstraintL2LAngle@GCS@@QEAA@AEAVLine@1@0PEAN@Z
	??0ConstraintL2LAngle@GCS@@QEAA@AEAVPoint@1@000PEAN@Z
	??0ConstraintMidpointOnLine@GCS@@QEAA@AEAVLine@1@0@Z
	??0ConstraintMidpointOnLine@GCS@@QEAA@AEAVPoint@1@000@Z
	??0ConstraintP2CDistance@GCS@@QEAA@AEAVPoint@1@AEAVCircle@1@PEAN@Z
	??0ConstraintP2LDistance@GCS@@QEAA@AEAVPoint@1@AEAVLine@1@PEAN@Z
	??0ConstraintP2PAngle@GCS@@QEAA@AEAVPoint@1@0PEANN@Z
	??0ConstraintP2PDistance@GCS@@QEAA@AEAVPoint@1@0PEAN@Z
	??0ConstraintParallel@GCS@@QEAA@AEAVLine@1@0@Z
	??0ConstraintPerpendicular@GCS@@QEAA@AEAVLine@1@0@Z
	??0ConstraintPerpendicular@GCS@@QEAA@AEAVPoint@1@000@Z
	??0ConstraintPointOnBSpline@GCS@@QEAA@PEAN0HAEAVBSpline@1@@Z
	??0ConstraintPointOnEllipse@GCS@@QEAA@AEAVPoint@1@AEAVEllipse@1@@Z
	??0ConstraintPointOnHyperbola@GCS@@QEAA@AEAVPoint@1@AEAVArcOfHyperbola@1@@Z
	??0ConstraintPointOnHyperbola@GCS@@QEAA@AEAVPoint@1@AEAVHyperbola@1@@Z
	??0ConstraintPointOnLine@GCS@@QEAA@AEAVPoint@1@00@Z
	??0ConstraintPointOnLine@GCS@@QEAA@AEAVPoint@1@AEAVLine@1@@Z
	??0ConstraintPointOnParabola@GCS@@QEAA@AEAVPoint@1@AEAVArcOfParabola@1@@Z
	??0ConstraintPointOnParabola@GCS@@QEAA@AEAVPoint@1@AEAVParabola@1@@Z
	??0ConstraintPointOnPerpBisector@GCS@@QEAA@AEAVPoint@1@00@Z
	??0ConstraintPointOnPerpBisector@GCS@@QEAA@AEAVPoint@1@AEAVLine@1@@Z
	??0ConstraintSlopeAtBSplineKnot@GCS@@QEAA@AEAVBSpline@1@AEAVLine@1@_K@Z
	??0ConstraintSnell@GCS@@QEAA@AEAVCurve@1@00VPoint@1@PEAN2_N3@Z
	??0ConstraintTangentCircumf@GCS@@QEAA@AEAVPoint@1@0PEAN1_N@Z
	??0ConstraintWeightedLinearCombination@GCS@@QEAA@_KAEBV?$vector@PEANV?$allocator@PEAN@std@@@std@@AEBV?$vector@NV?$allocator@N@std@@@3@@Z
	??0Curve@GCS@@QEAA@AEBV01@@Z
	??0Curve@GCS@@QEAA@XZ
	??0DeriVector2@GCS@@QEAA@AEBVPoint@1@PEBN@Z
	??0DeriVector2@GCS@@QEAA@NN@Z
	??0DeriVector2@GCS@@QEAA@NNNN@Z
	??0DeriVector2@GCS@@QEAA@XZ
	??0Diagnostic@oreo@@QEAA@$$QEAU01@@Z
	??0Diagnostic@oreo@@QEAA@AEBU01@@Z
	??0Diagnostic@oreo@@QEAA@XZ
	??0DiagnosticScope@oreo@@QEAA@AEAVKernelContext@1@@Z
	??0ElementMap@Data@@QEAA@$$QEAV01@@Z
	??0ElementMap@Data@@QEAA@AEBV01@@Z
	??0ElementMap@Data@@QEAA@XZ
	??0ElementMap@oreo@@QEAA@XZ
	??0ElementRef@oreo@@QEAA@AEBU01@@Z
	??0ElementRef@oreo@@QEAA@XZ
	??0Ellipse@GCS@@QEAA@AEBV01@@Z
	??0Ellipse@GCS@@QEAA@XZ
	??0Feature@oreo@@QEAA@AEBU01@@Z
	??0HistoryItem@Data@@QEAA@$$QEAU01@@Z
	??0HistoryItem@Data@@QEAA@AEBU01@@Z
	??0HistoryItem@Data@@QEAA@PEAVDocumentObject@App@@AEBVMappedName@1@@Z
	??0Hyperbola@GCS@@QEAA@AEBV01@@Z
	??0Hyperbola@GCS@@QEAA@XZ
	??0IndexedName@Data@@QEAA@AEBVQByteArray@@@Z
	??0IndexedName@Data@@QEAA@PEBDAEBV?$vector@PEBDV?$allocator@PEBD@std@@@std@@_N@Z
	??0IndexedName@Data@@QEAA@PEBDH@Z
	??0InnerIterator@?$SparseCompressedBase@V?$Block@V?$SparseMatrix@N$0A@H@Eigen@@$0?0$00$00@Eigen@@@Eigen@@QEAA@AEBV12@_J@Z
	??0KernelContext@oreo@@AEAA@AEBUKernelConfig@1@@Z
	??0Line@GCS@@QEAA@AEBV01@@Z
	??0Line@GCS@@QEAA@XZ
	??0MajorRadiusConic@GCS@@QEAA@AEBV01@@Z
	??0MajorRadiusConic@GCS@@QEAA@XZ
	??0MappedChildElements@ElementMap@Data@@QEAA@$$QEAU012@@Z
	??0MappedChildElements@ElementMap@Data@@QEAA@AEBU012@@Z
	??0MappedChildElements@ElementMap@Data@@QEAA@XZ
	??0MappedElement@Data@@QEAA@$$QEAU01@@Z
	??0MappedElement@Data@@QEAA@AEBU01@@Z
	??0MappedElement@Data@@QEAA@AEBVIndexedName@1@VMappedName@1@@Z
	??0MappedElement@Data@@QEAA@VMappedName@1@AEBVIndexedName@1@@Z
	??0MappedElement@Data@@QEAA@XZ
	??0MappedName@Data@@QEAA@$$QEAV01@@Z
	??0MappedName@Data@@QEAA@AEBV01@@Z
	??0MappedName@Data@@QEAA@AEBV01@HH@Z
	??0MappedName@Data@@QEAA@AEBV01@PEBD@Z
	??0MappedName@Data@@QEAA@AEBV?$basic_string@DU?$char_traits@D@std@@V?$allocator@D@2@@std@@@Z
	??0MappedName@Data@@QEAA@AEBVIndexedName@1@@Z
	??0MappedName@Data@@QEAA@AEBVStringIDRef@App@@@Z
	??0MappedName@Data@@QEAA@PEBDH@Z
	??0MappedName@Data@@QEAA@XZ
	??0MeshResult@oreo@@QEAA@$$QEAU01@@Z
	??0Migration@oreo@@QEAA@$$QEAU01@@Z
	??0NCollection_BaseList@@IEAA@AEBV?$handle@VNCollection_BaseAllocator@@@opencascade@@@Z
	??0NCollection_BaseMap@@IEAA@H_NAEBV?$handle@VNCollection_BaseAllocator@@@opencascade@@@Z
	??0NameKey@oreo@@QEAA@HVMappedName@Data@@@Z
	??0NamedShape@oreo@@QEAA@AEBV01@@Z
	??0NamedShape@oreo@@QEAA@AEBVTopoDS_Shape@@V?$shared_ptr@VElementMap@oreo@@@std@@_J@Z
	??0NamedShape@oreo@@QEAA@AEBVTopoDS_Shape@@_J@Z
	??0NamedShape@oreo@@QEAA@XZ
	??0Parabola@GCS@@QEAA@AEBV01@@Z
	??0Parabola@GCS@@QEAA@XZ
	??0Point@GCS@@QEAA@PEAN0@Z
	??0Point@GCS@@QEAA@XZ
	??0SchemaRegistry@oreo@@QEAA@XZ
	??0ShapeAncestryCache@oreo@@QEAA@AEBV01@@Z
	??0ShapeAncestryCache@oreo@@QEAA@XZ
	??0ShapeInfo@oreo@@QEAA@AEBVTopoDS_Shape@@W4TopAbs_ShapeEnum@@AEAVShapeAncestryCache@1@@Z
	??0SolverReportingManager@GCS@@AEAA@XZ
	??0Standard_ConstructionError@@QEAA@AEBV0@@Z
	??0Standard_ConstructionError@@QEAA@PEBD@Z
	??0Standard_DomainError@@QEAA@AEBV0@@Z
	??0Standard_OutOfRange@@QEAA@AEBV0@@Z
	??0Standard_OutOfRange@@QEAA@PEBD@Z
	??0Standard_RangeError@@QEAA@AEBV0@@Z
	??0Standard_Transient@@QEAA@AEBV0@@Z
	??0Standard_TypeMismatch@@QEAA@AEBV0@@Z
	??0Standard_TypeMismatch@@QEAA@PEBD@Z
	??0StepImportResult@oreo@@QEAA@$$QEAU01@@Z
	??0StepShapeMetadata@oreo@@QEAA@XZ
	??0StringHasher@App@@QEAA@XZ
	??0StringID@App@@QEAA@JVQByteArray@@AEBV?$Flags@W4Flag@StringID@App@@@Base@@@Z
	??0StringID@App@@QEAA@XZ
	??0SubSystem@GCS@@QEAA@AEAV?$vector@PEAVConstraint@GCS@@V?$allocator@PEAVConstraint@GCS@@@std@@@std@@AEAV?$vector@PEANV?$allocator@PEAN@std@@@3@@Z
	??0SubSystem@GCS@@QEAA@AEAV?$vector@PEAVConstraint@GCS@@V?$allocator@PEAVConstraint@GCS@@@std@@@std@@AEAV?$vector@PEANV?$allocator@PEAN@std@@@3@AEAV?$map@PEANPEANU?$less@PEAN@std@@V?$allocator@U?$pair@QEANPEAN@std@@@2@@3@@Z
	??0System@GCS@@QEAA@AEBV01@@Z
	??0System@GCS@@QEAA@XZ
	??0TopoDS_TShape@@IEAA@XZ
	??0TopoShapeAdapter@oreo@@QEAA@$$QEAV01@@Z
	??0ValueError@Base@@QEAA@AEBV01@@Z
	??0ValueError@Base@@QEAA@PEBD@Z
	??0_Bxty@?$_String_val@U?$_Simple_types@D@std@@@std@@QEAA@XZ
	??0_FC_StreamThrow@@QEAA@XZ
	??0_System_error@std@@IEAA@Verror_code@1@AEBV?$basic_string@DU?$char_traits@D@std@@V?$allocator@D@2@@1@@Z
	??0_System_error@std@@QEAA@AEBV01@@Z
	??0_TaskCreationCallstack@details@Concurrency@@QEAA@AEBV012@@Z
	??0_Task_impl_base@details@Concurrency@@QEAA@PEAV_CancellationTokenState@12@Uscheduler_ptr@2@@Z
	??0bad_alloc@std@@QEAA@AEBV01@@Z
	??0bad_alloc@std@@QEAA@XZ
	??0bad_array_new_length@std@@QEAA@AEBV01@@Z
	??0bad_array_new_length@std@@QEAA@XZ
	??0bad_cast@std@@QEAA@AEBV01@@Z
	??0bad_cast@std@@QEAA@XZ
	??0bad_function_call@boost@@QEAA@AEBV01@@Z
	??0bad_variant_access@std@@QEAA@AEBV01@@Z
	??0bad_variant_access@std@@QEAA@XZ
	??0bad_weak_ptr@std@@QEAA@AEBV01@@Z
	??0bad_weak_ptr@std@@QEAA@XZ
	??0clone_base@exception_detail@boost@@QEAA@AEBV012@@Z
	??0exception@boost@@QEAA@AEBV01@@Z
	??0exception@detail@json_abi_v3_12_0@nlohmann@@QEAA@AEBV0123@@Z
	??0exception@std@@QEAA@AEBV01@@Z
	??0exception_ptr@std@@QEAA@AEBV01@@Z
	??0failure@ios_base@std@@QEAA@AEBV012@@Z
	??0failure@ios_base@std@@QEAA@PEBDAEBVerror_code@2@@Z
	??0filesystem_error@filesystem@std@@QEAA@AEBV012@@Z
	??0filesystem_error@filesystem@std@@QEAA@AEBV?$basic_string@DU?$char_traits@D@std@@V?$allocator@D@2@@2@AEBVpath@12@Verror_code@2@@Z
	??0future_error@std@@QEAA@AEBV01@@Z
	??0future_error@std@@QEAA@W4future_errc@1@@Z
	??0gp_Ax2@@QEAA@AEBVgp_Pnt@@AEBVgp_Dir@@1@Z
	??0gp_Dir@@QEAA@AEBVgp_Vec@@@Z
	??0gp_Dir@@QEAA@NNN@Z
	??0gp_Pln@@QEAA@XZ
	??0gp_Pnt@@QEAA@NNN@Z
	??0invalid_argument@std@@QEAA@AEBV01@@Z
	??0invalid_argument@std@@QEAA@AEBV?$basic_string@DU?$char_traits@D@std@@V?$allocator@D@2@@1@@Z
	??0invalid_argument@std@@QEAA@PEBD@Z
	??0invalid_iterator@detail@json_abi_v3_12_0@nlohmann@@QEAA@AEBV0123@@Z
	??0invalid_operation@Concurrency@@QEAA@AEBV01@@Z
	??0invalid_operation@Concurrency@@QEAA@PEBD@Z
	??0json_value@?$basic_json@Vmap@std@@Vvector@2@V?$basic_string@DU?$char_traits@D@std@@V?$allocator@D@2@@2@_N_J_KNVallocator@2@Uadl_serializer@json_abi_v3_12_0@nlohmann@@V?$vector@EV?$allocator@E@std@@@2@X@json_abi_v3_12_0@nlohmann@@QEAA@W4value_t@detail@23@@Z
	??0logic_error@std@@QEAA@AEBV01@@Z
	??0other_error@detail@json_abi_v3_12_0@nlohmann@@QEAA@AEBV0123@@Z
	??0out_of_range@detail@json_abi_v3_12_0@nlohmann@@QEAA@AEBV0123@@Z
	??0overflow_error@std@@QEAA@AEBV01@@Z
	??0overflow_error@std@@QEAA@PEBD@Z
	??0parse_error@detail@json_abi_v3_12_0@nlohmann@@AEAA@H_KPEBD@Z
	??0parse_error@detail@json_abi_v3_12_0@nlohmann@@QEAA@AEBV0123@@Z
	??0runtime_error@std@@QEAA@AEBV01@@Z
	??0runtime_error@std@@QEAA@AEBV?$basic_string@DU?$char_traits@D@std@@V?$allocator@D@2@@1@@Z
	??0runtime_error@std@@QEAA@PEBD@Z
	??0system_error@std@@QEAA@AEBV01@@Z
	??0system_error@std@@QEAA@Verror_code@1@@Z
	??0type_error@detail@json_abi_v3_12_0@nlohmann@@QEAA@AEBV0123@@Z
	??1<lambda_1>@?1??_MakeVoidToUnitFunc@details@Concurrency@@YA?AV?$function@$$A6AEXZ@std@@AEBV?$function@$$A6AXXZ@5@@Z@QEAA@XZ
	??1<lambda_1>@?1??_RegisterCancellation@_Task_impl_base@details@Concurrency@@QEAAXV?$weak_ptr@U_Task_impl_base@details@Concurrency@@@std@@@Z@QEAA@XZ
	??1<lambda_1>@?7???R0?4??_ScheduleContinuationTask@_Task_impl_base@details@Concurrency@@QEAAXPEAU_ContinuationTaskHandleBase@34@@Z@QEBA@XZ@QEAA@XZ
	??1?$ColPivHouseholderQR@V?$Matrix@N$0?0$0?0$0A@$0?0$0?0@Eigen@@H@Eigen@@QEAA@XZ
	??1?$CompressedStorage@NH@internal@Eigen@@QEAA@XZ
	??1?$DenseStorage@N$0?0$0?0$00$0A@$00@Eigen@@QEAA@XZ
	??1?$DenseStorage@N$0?0$0?0$0?0$0A@$00@Eigen@@QEAA@XZ
	??1?$FullPivHouseholderQR@V?$Matrix@N$0?0$0?0$0A@$0?0$0?0@Eigen@@H@Eigen@@QEAA@XZ
	??1?$FullPivLU@V?$Matrix@N$0?0$0?0$0A@$0?0$0?0@Eigen@@H@Eigen@@QEAA@XZ
	??1?$LDLT@V?$Matrix@N$0?0$0?0$0A@$0?0$0?0@Eigen@@$00@Eigen@@QEAA@XZ
	??1?$Matrix@H$00$0?0$00$00$0?0@Eigen@@QEAA@XZ
	??1?$Matrix@H$0?0$00$0A@$0?0$00@Eigen@@QEAA@XZ
	??1?$Matrix@N$00$0?0$00$00$0?0@Eigen@@QEAA@XZ
	??1?$Matrix@N$0?0$00$0A@$0?0$00@Eigen@@QEAA@XZ
	??1?$Matrix@N$0?0$0?0$00$0?0$0?0@Eigen@@QEAA@XZ
	??1?$Matrix@N$0?0$0?0$0A@$0?0$00@Eigen@@QEAA@XZ
	??1?$Matrix@N$0?0$0?0$0A@$0?0$0?0@Eigen@@QEAA@XZ
	??1?$Matrix@_N$0?0$00$0A@$0?0$00@Eigen@@QEAA@XZ
	??1?$NCollection_Array1@VBnd_Box@@@@UEAA@XZ
	??1?$NCollection_DataMap@HVBisector_Bisec@@U?$NCollection_DefaultHasher@H@@@@UEAA@XZ
	??1?$NCollection_DataMap@HVgp_Pnt2d@@U?$NCollection_DefaultHasher@H@@@@UEAA@XZ
	??1?$NCollection_DataMap@HVgp_Vec2d@@U?$NCollection_DefaultHasher@H@@@@UEAA@XZ
	??1?$NCollection_DataMap@V?$handle@VMAT_BasicElt@@@opencascade@@VTopoDS_Shape@@U?$NCollection_DefaultHasher@V?$handle@VMAT_BasicElt@@@opencascade@@@@@@UEAA@XZ
	??1?$NCollection_DataMap@VMAT2d_BiInt@@HU?$NCollection_DefaultHasher@VMAT2d_BiInt@@@@@@UEAA@XZ
	??1?$NCollection_DataMap@VTCollection_AsciiString@@V?$handle@VSTEPCAFControl_ExternFile@@@opencascade@@U?$NCollection_DefaultHasher@VTCollection_AsciiString@@@@@@UEAA@XZ
	??1?$NCollection_DataMap@VTDF_Label@@V?$handle@VSTEPCAFControl_ExternFile@@@opencascade@@U?$NCollection_DefaultHasher@VTDF_Label@@@@@@UEAA@XZ
	??1?$NCollection_DataMap@VTDF_Label@@VTopoDS_Shape@@U?$NCollection_DefaultHasher@VTDF_Label@@@@@@UEAA@XZ
	??1?$NCollection_DataMap@VTopoDS_Edge@@UNewCurveInfo@BRepTools_Modifier@@VTopTools_ShapeMapHasher@@@@UEAA@XZ
	??1?$NCollection_DataMap@VTopoDS_Face@@UNewSurfaceInfo@BRepTools_Modifier@@VTopTools_ShapeMapHasher@@@@UEAA@XZ
	??1?$NCollection_DataMap@VTopoDS_Shape@@HVTopTools_ShapeMapHasher@@@@UEAA@XZ
	??1?$NCollection_DataMap@VTopoDS_Shape@@NVTopTools_ShapeMapHasher@@@@UEAA@XZ
	??1?$NCollection_DataMap@VTopoDS_Shape@@UTReplacement@BRepTools_ReShape@@VTopTools_ShapeMapHasher@@@@UEAA@XZ
	??1?$NCollection_DataMap@VTopoDS_Shape@@V1@VTopTools_ShapeMapHasher@@@@UEAA@XZ
	??1?$NCollection_DataMap@VTopoDS_Shape@@V?$NCollection_DataMap@VTopoDS_Shape@@V1@VTopTools_ShapeMapHasher@@@@VTopTools_ShapeMapHasher@@@@UEAA@XZ
	??1?$NCollection_DataMap@VTopoDS_Shape@@V?$NCollection_List@H@@VTopTools_ShapeMapHasher@@@@UEAA@XZ
	??1?$NCollection_DataMap@VTopoDS_Shape@@V?$NCollection_List@VBRepOffset_Interval@@@@VTopTools_ShapeMapHasher@@@@UEAA@XZ
	??1?$NCollection_DataMap@VTopoDS_Shape@@V?$NCollection_List@VTopoDS_Shape@@@@VTopTools_ShapeMapHasher@@@@UEAA@XZ
	??1?$NCollection_DataMap@VTopoDS_Shape@@V?$NCollection_Sequence@V?$handle@VMAT_BasicElt@@@opencascade@@@@VTopTools_ShapeMapHasher@@@@UEAA@XZ
	??1?$NCollection_DataMap@VTopoDS_Shape@@V?$handle@VStandard_Transient@@@opencascade@@VTopTools_ShapeMapHasher@@@@UEAA@XZ
	??1?$NCollection_DataMap@VTopoDS_Shape@@V?$handle@VTopTools_HArray2OfShape@@@opencascade@@VTopTools_ShapeMapHasher@@@@UEAA@XZ
	??1?$NCollection_DataMap@VTopoDS_Vertex@@VTopoDS_Edge@@U?$NCollection_DefaultHasher@VTopoDS_Vertex@@@@@@UEAA@XZ
	??1?$NCollection_IndexedDataMap@VTopoDS_Shape@@V?$NCollection_List@VTopoDS_Shape@@@@U?$NCollection_DefaultHasher@VTopoDS_Shape@@@@@@UEAA@XZ
	??1?$NCollection_IndexedDataMap@VTopoDS_Shape@@V?$NCollection_List@VTopoDS_Shape@@@@VTopTools_ShapeMapHasher@@@@UEAA@XZ
	??1?$NCollection_IndexedDataMap@VTopoDS_Shape@@V?$handle@VBRepCheck_Result@@@opencascade@@U?$NCollection_DefaultHasher@VTopoDS_Shape@@@@@@UEAA@XZ
	??1?$NCollection_IndexedMap@VTopoDS_Shape@@VTopTools_ShapeMapHasher@@@@UEAA@XZ
	??1?$NCollection_List@H@@UEAA@XZ
	??1?$NCollection_List@VBRepFill_OffsetWire@@@@UEAA@XZ
	??1?$NCollection_List@VBRepOffset_Interval@@@@UEAA@XZ
	??1?$NCollection_List@VTopoDS_Shape@@@@UEAA@XZ
	??1?$NCollection_Map@VTDF_Label@@U?$NCollection_DefaultHasher@VTDF_Label@@@@@@UEAA@XZ
	??1?$NCollection_Map@VTopoDS_Shape@@VTopTools_ShapeMapHasher@@@@UEAA@XZ
	??1?$NCollection_Sequence@H@@UEAA@XZ
	??1?$NCollection_Sequence@N@@UEAA@XZ
	??1?$NCollection_Sequence@V?$handle@VMAT_BasicElt@@@opencascade@@@@UEAA@XZ
	??1?$NCollection_Sequence@V?$handle@VStandard_Transient@@@opencascade@@@@UEAA@XZ
	??1?$NCollection_Sequence@VBRepExtrema_SolutionElem@@@@UEAA@XZ
	??1?$NCollection_Sequence@VExtrema_POnSurf@@@@UEAA@XZ
	??1?$NCollection_Sequence@VTDF_Label@@@@UEAA@XZ
	??1?$NCollection_Sequence@VTopoDS_Shape@@@@UEAA@XZ
	??1?$OperationResult@N@oreo@@QEAA@XZ
	??1?$OperationResult@UBBox@oreo@@@oreo@@QEAA@XZ
	??1?$OperationResult@UMassProperties@oreo@@@oreo@@QEAA@XZ
	??1?$OperationResult@USolveResult@oreo@@@oreo@@QEAA@XZ
	??1?$OperationResult@UStepImportResult@oreo@@@oreo@@QEAA@XZ
	??1?$OperationResult@V?$vector@EV?$allocator@E@std@@@std@@@oreo@@QEAA@XZ
	??1?$OperationResult@VNamedShape@oreo@@@oreo@@QEAA@XZ
	??1?$OperationResult@_N@oreo@@QEAA@XZ
	??1?$PermutationMatrix@$0?0$0?0H@Eigen@@QEAA@XZ
	??1?$PlainObjectBase@V?$Matrix@H$00$0?0$00$00$0?0@Eigen@@@Eigen@@QEAA@XZ
	??1?$PlainObjectBase@V?$Matrix@H$0?0$00$0A@$0?0$00@Eigen@@@Eigen@@QEAA@XZ
	??1?$PlainObjectBase@V?$Matrix@N$00$0?0$00$00$0?0@Eigen@@@Eigen@@QEAA@XZ
	??1?$PlainObjectBase@V?$Matrix@N$0?0$00$0A@$0?0$00@Eigen@@@Eigen@@QEAA@XZ
	??1?$PlainObjectBase@V?$Matrix@N$0?0$0?0$00$0?0$0?0@Eigen@@@Eigen@@QEAA@XZ
	??1?$PlainObjectBase@V?$Matrix@N$0?0$0?0$0A@$0?0$00@Eigen@@@Eigen@@QEAA@XZ
	??1?$PlainObjectBase@V?$Matrix@N$0?0$0?0$0A@$0?0$0?0@Eigen@@@Eigen@@QEAA@XZ
	??1?$PlainObjectBase@V?$Matrix@_N$0?0$00$0A@$0?0$00@Eigen@@@Eigen@@QEAA@XZ
	??1?$QArrayDataPointer@VStringIDRef@App@@@@QEAA@XZ
	??1?$QHash@VQByteArray@@UChildMapInfo@ElementMap@Data@@@@QEAA@XZ
	??1?$QList@VStringIDRef@App@@@@QEAA@XZ
	??1?$Reference@VStringHasher@App@@@Base@@QEAA@XZ
	??1?$Span@U?$Node@VQByteArray@@UChildMapInfo@ElementMap@Data@@@QHashPrivate@@@QHashPrivate@@QEAA@XZ
	??1?$SparseMatrix@N$0A@H@Eigen@@QEAA@XZ
	??1?$SparseQR@V?$SparseMatrix@N$0A@H@Eigen@@V?$COLAMDOrdering@H@2@@Eigen@@QEAA@XZ
	??1?$Transpositions@$0?0$0?0H@Eigen@@QEAA@XZ
	??1?$_Alloc_construct_ptr@V?$allocator@U?$_List_node@U?$list_edge@_KUno_property@boost@@@boost@@PEAX@std@@@std@@@std@@QEAA@XZ
	??1?$_Alloc_construct_ptr@V?$allocator@U?$_List_node@U?$pair@$$CBIV?$shared_ptr@VElementMap@Data@@@std@@@std@@PEAX@std@@@std@@@std@@QEAA@XZ
	??1?$_Alloc_construct_ptr@V?$allocator@U?$_List_node@U?$pair@$$CBV?$basic_string@DU?$char_traits@D@std@@V?$allocator@D@2@@std@@H@std@@PEAX@std@@@std@@@std@@QEAA@XZ
	??1?$_Alloc_construct_ptr@V?$allocator@U?$_List_node@U?$pair@QEBVElementMap@Data@@I@std@@PEAX@std@@@std@@@std@@QEAA@XZ
	??1?$_Alloc_construct_ptr@V?$allocator@U?$_List_node@UByteArray@Data@@PEAX@std@@@std@@@std@@QEAA@XZ
	??1?$_Alloc_construct_ptr@V?$allocator@U?$_Tree_node@HPEAX@std@@@std@@@std@@QEAA@XZ
	??1?$_Alloc_construct_ptr@V?$allocator@U?$_Tree_node@JPEAX@std@@@std@@@std@@QEAA@XZ
	??1?$_Alloc_construct_ptr@V?$allocator@U?$_Tree_node@PEANPEAX@std@@@std@@@std@@QEAA@XZ
	??1?$_Alloc_construct_ptr@V?$allocator@U?$_Tree_node@PEAVConstraint@GCS@@PEAX@std@@@std@@@std@@QEAA@XZ
	??1?$_Alloc_construct_ptr@V?$allocator@U?$_Tree_node@U?$pair@$$CBHH@std@@PEAX@std@@@std@@@std@@QEAA@XZ
	??1?$_Alloc_construct_ptr@V?$allocator@U?$_Tree_node@U?$pair@$$CBHUCachedFace@MeshCache@oreo@@@std@@PEAX@std@@@std@@@std@@QEAA@XZ
	??1?$_Alloc_construct_ptr@V?$allocator@U?$_Tree_node@U?$pair@$$CBHUMappedChildElements@ElementMap@Data@@@std@@PEAX@std@@@std@@@std@@QEAA@XZ
	??1?$_Alloc_construct_ptr@V?$allocator@U?$_Tree_node@U?$pair@$$CBJVStringIDRef@App@@@std@@PEAX@std@@@std@@@std@@QEAA@XZ
	??1?$_Alloc_construct_ptr@V?$allocator@U?$_Tree_node@U?$pair@$$CBUNameKey@oreo@@UNameInfo@2@@std@@PEAX@std@@@std@@@std@@QEAA@XZ
	??1?$_Alloc_construct_ptr@V?$allocator@U?$_Tree_node@U?$pair@$$CBV?$basic_string@DU?$char_traits@D@std@@V?$allocator@D@2@@std@@USchemaVersion@oreo@@@std@@PEAX@std@@@std@@@std@@QEAA@XZ
	??1?$_Alloc_construct_ptr@V?$allocator@U?$_Tree_node@U?$pair@$$CBV?$basic_string@DU?$char_traits@D@std@@V?$allocator@D@2@@std@@V?$basic_json@Vmap@std@@Vvector@2@V?$basic_string@DU?$char_traits@D@std@@V?$allocator@D@2@@2@_N_J_KNVallocator@2@Uadl_serializer@json_abi_v3_12_0@nlohmann@@V?$vector@EV?$allocator@E@std@@@2@X@json_abi_v3_12_0@nlohmann@@@std@@PEAX@std@@@std@@@std@@QEAA@XZ
	??1?$_Alloc_construct_ptr@V?$allocator@U?$_Tree_node@U?$pair@$$CBV?$basic_string@DU?$char_traits@D@std@@V?$allocator@D@2@@std@@V?$variant@NH_NV?$basic_string@DU?$char_traits@D@std@@V?$allocator@D@2@@std@@Vgp_Vec@@Vgp_Pnt@@Vgp_Dir@@Vgp_Ax1@@Vgp_Ax2@@Vgp_Pln@@UElementRef@oreo@@V?$vector@UElementRef@oreo@@V?$allocator@UElementRef@oreo@@@std@@@2@@2@@std@@PEAX@std@@@std@@@std@@QEAA@XZ
	??1?$_Alloc_construct_ptr@V?$allocator@U?$_Tree_node@U?$pair@$$CBV?$basic_string@DU?$char_traits@D@std@@V?$allocator@D@2@@std@@VNamedShape@oreo@@@std@@PEAX@std@@@std@@@std@@QEAA@XZ
	??1?$_Alloc_construct_ptr@V?$allocator@U?$_Tree_node@U?$pair@$$CBV?$basic_string@DU?$char_traits@D@std@@V?$allocator@D@2@@std@@_N@std@@PEAX@std@@@std@@@std@@QEAA@XZ
	??1?$_Alloc_construct_ptr@V?$allocator@U?$_Tree_node@U?$pair@$$CBVIndexedName@Data@@V?$map@UNameKey@oreo@@UNameInfo@2@U?$less@UNameKey@oreo@@@std@@V?$allocator@U?$pair@$$CBUNameKey@oreo@@UNameInfo@2@@std@@@5@@std@@@std@@PEAX@std@@@std@@@std@@QEAA@XZ
	??1?$_Alloc_construct_ptr@V?$allocator@U?$_Tree_node@U?$pair@$$CBVIndexedName@Data@@V?$map@VMappedName@Data@@UNameInfo@oreo@@UElementNameComparator@2@V?$allocator@U?$pair@$$CBVMappedName@Data@@UNameInfo@oreo@@@std@@@std@@@std@@@std@@PEAX@std@@@std@@@std@@QEAA@XZ
	??1?$_Alloc_construct_ptr@V?$allocator@U?$_Tree_node@U?$pair@$$CBVIndexedName@oreo@@VMappedName@2@@std@@PEAX@std@@@std@@@std@@QEAA@XZ
	??1?$_Alloc_construct_ptr@V?$allocator@U?$_Tree_node@U?$pair@$$CBVMappedName@Data@@UNameInfo@oreo@@@std@@PEAX@std@@@std@@@std@@QEAA@XZ
	??1?$_Alloc_construct_ptr@V?$allocator@U?$_Tree_node@U?$pair@$$CBVMappedName@Data@@VIndexedName@2@@std@@PEAX@std@@@std@@@std@@QEAA@XZ
	??1?$_Alloc_construct_ptr@V?$allocator@U?$_Tree_node@U?$pair@$$CBVMappedName@oreo@@VIndexedName@2@@std@@PEAX@std@@@std@@@std@@QEAA@XZ
	??1?$_Alloc_construct_ptr@V?$allocator@U?$_Tree_node@U?$pair@$$CBVQByteArray@@H@std@@PEAX@std@@@std@@@std@@QEAA@XZ
	??1?$_Alloc_construct_ptr@V?$allocator@U?$_Tree_node@U?$pair@QEANH@std@@PEAX@std@@@std@@@std@@QEAA@XZ
	??1?$_Alloc_construct_ptr@V?$allocator@U?$_Tree_node@U?$pair@QEANN@std@@PEAX@std@@@std@@@std@@QEAA@XZ
	??1?$_Alloc_construct_ptr@V?$allocator@U?$_Tree_node@U?$pair@QEANPEAN@std@@PEAX@std@@@std@@@std@@QEAA@XZ
	??1?$_Alloc_construct_ptr@V?$allocator@U?$_Tree_node@U?$pair@QEANV?$vector@PEAVConstraint@GCS@@V?$allocator@PEAVConstraint@GCS@@@std@@@std@@@std@@PEAX@std@@@std@@@std@@QEAA@XZ
	??1?$_Alloc_construct_ptr@V?$allocator@U?$_Tree_node@U?$pair@QEAVConstraint@GCS@@V?$set@HU?$less@H@std@@V?$allocator@H@2@@std@@@std@@PEAX@std@@@std@@@std@@QEAA@XZ
	??1?$_Alloc_construct_ptr@V?$allocator@U?$_Tree_node@U?$pair@QEAVConstraint@GCS@@V?$vector@PEANV?$allocator@PEAN@std@@@std@@@std@@PEAX@std@@@std@@@std@@QEAA@XZ
	??1?$_Alloc_construct_ptr@V?$allocator@U?$_Tree_node@U?$pair@QEAVElementMap@Data@@H@std@@PEAX@std@@@std@@@std@@QEAA@XZ
	??1?$_Alloc_construct_ptr@V?$allocator@U?$_Tree_node@U?$pair@QEBDUIndexedElements@ElementMap@Data@@@std@@PEAX@std@@@std@@@std@@QEAA@XZ
	??1?$_Alloc_construct_ptr@V?$allocator@U?$_Tree_node@U?$pair@QEBVElementMap@Data@@H@std@@PEAX@std@@@std@@@std@@QEAA@XZ
	??1?$_Alloc_construct_ptr@V?$allocator@U?$_Tree_node@V?$basic_string@DU?$char_traits@D@std@@V?$allocator@D@2@@std@@PEAX@std@@@std@@@std@@QEAA@XZ
	??1?$_Alloc_temporary2@V?$allocator@UFeature@oreo@@@std@@@std@@QEAA@XZ
	??1?$_Associated_state@H@std@@UEAA@XZ
	??1?$_Container_proxy_ptr12@V?$allocator@U_Container_proxy@std@@@std@@@std@@QEAA@XZ
	??1?$_Erase_tree_and_orphan_guard@V?$allocator@U?$_Tree_node@PEAVConstraint@GCS@@PEAX@std@@@std@@@?$_Tree_val@U?$_Tree_simple_types@PEAVConstraint@GCS@@@std@@@std@@QEAA@XZ
	??1?$_Erase_tree_and_orphan_guard@V?$allocator@U?$_Tree_node@U?$pair@$$CBHH@std@@PEAX@std@@@std@@@?$_Tree_val@U?$_Tree_simple_types@U?$pair@$$CBHH@std@@@std@@@std@@QEAA@XZ
	??1?$_Erase_tree_and_orphan_guard@V?$allocator@U?$_Tree_node@U?$pair@$$CBHUMappedChildElements@ElementMap@Data@@@std@@PEAX@std@@@std@@@?$_Tree_val@U?$_Tree_simple_types@U?$pair@$$CBHUMappedChildElements@ElementMap@Data@@@std@@@std@@@std@@QEAA@XZ
	??1?$_Erase_tree_and_orphan_guard@V?$allocator@U?$_Tree_node@U?$pair@$$CBV?$basic_string@DU?$char_traits@D@std@@V?$allocator@D@2@@std@@V?$basic_json@Vmap@std@@Vvector@2@V?$basic_string@DU?$char_traits@D@std@@V?$allocator@D@2@@2@_N_J_KNVallocator@2@Uadl_serializer@json_abi_v3_12_0@nlohmann@@V?$vector@EV?$allocator@E@std@@@2@X@json_abi_v3_12_0@nlohmann@@@std@@PEAX@std@@@std@@@?$_Tree_val@U?$_Tree_simple_types@U?$pair@$$CBV?$basic_string@DU?$char_traits@D@std@@V?$allocator@D@2@@std@@V?$basic_json@Vmap@std@@Vvector@2@V?$basic_string@DU?$char_traits@D@std@@V?$allocator@D@2@@2@_N_J_KNVallocator@2@Uadl_serializer@json_abi_v3_12_0@nlohmann@@V?$vector@EV?$allocator@E@std@@@2@X@json_abi_v3_12_0@nlohmann@@@std@@@std@@@std@@QEAA@XZ
	??1?$_Erase_tree_and_orphan_guard@V?$allocator@U?$_Tree_node@U?$pair@$$CBV?$basic_string@DU?$char_traits@D@std@@V?$allocator@D@2@@std@@V?$variant@NH_NV?$basic_string@DU?$char_traits@D@std@@V?$allocator@D@2@@std@@Vgp_Vec@@Vgp_Pnt@@Vgp_Dir@@Vgp_Ax1@@Vgp_Ax2@@Vgp_Pln@@UElementRef@oreo@@V?$vector@UElementRef@oreo@@V?$allocator@UElementRef@oreo@@@std@@@2@@2@@std@@PEAX@std@@@std@@@?$_Tree_val@U?$_Tree_simple_types@U?$pair@$$CBV?$basic_string@DU?$char_traits@D@std@@V?$allocator@D@2@@std@@V?$variant@NH_NV?$basic_string@DU?$char_traits@D@std@@V?$allocator@D@2@@std@@Vgp_Vec@@Vgp_Pnt@@Vgp_Dir@@Vgp_Ax1@@Vgp_Ax2@@Vgp_Pln@@UElementRef@oreo@@V?$vector@UElementRef@oreo@@V?$allocator@UElementRef@oreo@@@std@@@2@@2@@std@@@std@@@std@@QEAA@XZ
	??1?$_Erase_tree_and_orphan_guard@V?$allocator@U?$_Tree_node@U?$pair@$$CBVMappedName@Data@@VIndexedName@2@@std@@PEAX@std@@@std@@@?$_Tree_val@U?$_Tree_simple_types@U?$pair@$$CBVMappedName@Data@@VIndexedName@2@@std@@@std@@@std@@QEAA@XZ
	??1?$_Erase_tree_and_orphan_guard@V?$allocator@U?$_Tree_node@U?$pair@QEANH@std@@PEAX@std@@@std@@@?$_Tree_val@U?$_Tree_simple_types@U?$pair@QEANH@std@@@std@@@std@@QEAA@XZ
	??1?$_Erase_tree_and_orphan_guard@V?$allocator@U?$_Tree_node@U?$pair@QEANPEAN@std@@PEAX@std@@@std@@@?$_Tree_val@U?$_Tree_simple_types@U?$pair@QEANPEAN@std@@@std@@@std@@QEAA@XZ
	??1?$_Erase_tree_and_orphan_guard@V?$allocator@U?$_Tree_node@U?$pair@QEANV?$vector@PEAVConstraint@GCS@@V?$allocator@PEAVConstraint@GCS@@@std@@@std@@@std@@PEAX@std@@@std@@@?$_Tree_val@U?$_Tree_simple_types@U?$pair@QEANV?$vector@PEAVConstraint@GCS@@V?$allocator@PEAVConstraint@GCS@@@std@@@std@@@std@@@std@@@std@@QEAA@XZ
	??1?$_Erase_tree_and_orphan_guard@V?$allocator@U?$_Tree_node@U?$pair@QEAVConstraint@GCS@@V?$vector@PEANV?$allocator@PEAN@std@@@std@@@std@@PEAX@std@@@std@@@?$_Tree_val@U?$_Tree_simple_types@U?$pair@QEAVConstraint@GCS@@V?$vector@PEANV?$allocator@PEAN@std@@@std@@@std@@@std@@@std@@QEAA@XZ
	??1?$_Erase_tree_and_orphan_guard@V?$allocator@U?$_Tree_node@U?$pair@QEAVElementMap@Data@@H@std@@PEAX@std@@@std@@@?$_Tree_val@U?$_Tree_simple_types@U?$pair@QEAVElementMap@Data@@H@std@@@std@@@std@@QEAA@XZ
	??1?$_Erase_tree_and_orphan_guard@V?$allocator@U?$_Tree_node@U?$pair@QEBDUIndexedElements@ElementMap@Data@@@std@@PEAX@std@@@std@@@?$_Tree_val@U?$_Tree_simple_types@U?$pair@QEBDUIndexedElements@ElementMap@Data@@@std@@@std@@@std@@QEAA@XZ
	??1?$_Fake_no_copy_callable_adapter@P8System@GCS@@EAAXAEBV?$Matrix@N$0?0$0?0$0A@$0?0$0?0@Eigen@@AEBV?$map@HHU?$less@H@std@@V?$allocator@U?$pair@$$CBHH@std@@@2@@std@@AEBV?$vector@PEANV?$allocator@PEAN@std@@@6@_N@ZPEAV12@AEAV34@AEAV56@AEAV76@_N@std@@QEAA@XZ
	??1?$_Func_class@E$$V@std@@QEAA@XZ
	??1?$_Func_class@X$$V@std@@QEAA@XZ
	??1?$_Func_class@_NHW4parse_event_t@detail@json_abi_v3_12_0@nlohmann@@AEAV?$basic_json@Vmap@std@@Vvector@2@V?$basic_string@DU?$char_traits@D@std@@V?$allocator@D@2@@2@_N_J_KNVallocator@2@Uadl_serializer@json_abi_v3_12_0@nlohmann@@V?$vector@EV?$allocator@E@std@@@2@X@34@@std@@QEAA@XZ
	??1?$_Hash@V?$_Umap_traits@PEBVElementMap@Data@@IV?$_Uhash_compare@PEBVElementMap@Data@@U?$hash@PEBVElementMap@Data@@@std@@U?$equal_to@PEBVElementMap@Data@@@4@@std@@V?$allocator@U?$pair@QEBVElementMap@Data@@I@std@@@4@$0A@@std@@@std@@QEAA@XZ
	??1?$_Hash@V?$_Umap_traits@V?$basic_string@DU?$char_traits@D@std@@V?$allocator@D@2@@std@@HV?$_Uhash_compare@V?$basic_string@DU?$char_traits@D@std@@V?$allocator@D@2@@std@@U?$hash@V?$basic_string@DU?$char_traits@D@std@@V?$allocator@D@2@@std@@@2@U?$equal_to@V?$basic_string@DU?$char_traits@D@std@@V?$allocator@D@2@@std@@@2@@2@V?$allocator@U?$pair@$$CBV?$basic_string@DU?$char_traits@D@std@@V?$allocator@D@2@@std@@H@std@@@2@$0A@@std@@@std@@QEAA@XZ
	??1?$_Hash_vec@V?$allocator@V?$_List_unchecked_const_iterator@V?$_List_val@U?$_List_simple_types@UByteArray@Data@@@std@@@std@@U_Iterator_base0@2@@std@@@std@@@std@@QEAA@XZ
	??1?$_Hash_vec@V?$allocator@V?$_List_unchecked_iterator@V?$_List_val@U?$_List_simple_types@U?$pair@$$CBIV?$shared_ptr@VElementMap@Data@@@std@@@std@@@std@@@std@@@std@@@std@@@std@@QEAA@XZ
	??1?$_Hash_vec@V?$allocator@V?$_List_unchecked_iterator@V?$_List_val@U?$_List_simple_types@U?$pair@$$CBV?$basic_string@DU?$char_traits@D@std@@V?$allocator@D@2@@std@@H@std@@@std@@@std@@@std@@@std@@@std@@QEAA@XZ
	??1?$_Hash_vec@V?$allocator@V?$_List_unchecked_iterator@V?$_List_val@U?$_List_simple_types@U?$pair@QEBVElementMap@Data@@I@std@@@std@@@std@@@std@@@std@@@std@@QEAA@XZ
	??1?$_InitialTaskHandle@XV<lambda_1>@?1???$?0V?$_Fake_no_copy_callable_adapter@P8System@GCS@@EAAXAEBV?$Matrix@N$0?0$0?0$0A@$0?0$0?0@Eigen@@AEBV?$map@HHU?$less@H@std@@V?$allocator@U?$pair@$$CBHH@std@@@2@@std@@AEBV?$vector@PEANV?$allocator@PEAN@std@@@6@_N@ZPEAV12@AEAV34@AEAV56@AEAV76@_N@std@@@?$_Task_async_state@X@std@@QEAA@$$QEAV?$_Fake_no_copy_callable_adapter@P8System@GCS@@EAAXAEBV?$Matrix@N$0?0$0?0$0A@$0?0$0?0@Eigen@@AEBV?$map@HHU?$less@H@std@@V?$allocator@U?$pair@$$CBHH@std@@@2@@std@@AEBV?$vector@PEANV?$allocator@PEAN@std@@@6@_N@ZPEAV12@AEAV34@AEAV56@AEAV76@_N@3@@Z@U_TypeSelectorNoAsync@details@Concurrency@@@?$task@E@Concurrency@@UEAA@XZ
	??1?$_List_node_emplace_op2@V?$allocator@U?$_List_node@U?$pair@$$CBIV?$shared_ptr@VElementMap@Data@@@std@@@std@@PEAX@std@@@std@@@std@@QEAA@XZ
	??1?$_List_node_emplace_op2@V?$allocator@U?$_List_node@U?$pair@$$CBV?$basic_string@DU?$char_traits@D@std@@V?$allocator@D@2@@std@@H@std@@PEAX@std@@@std@@@std@@QEAA@XZ
	??1?$_List_node_emplace_op2@V?$allocator@U?$_List_node@U?$pair@QEBVElementMap@Data@@I@std@@PEAX@std@@@std@@@std@@QEAA@XZ
	??1?$_List_node_emplace_op2@V?$allocator@U?$_List_node@UByteArray@Data@@PEAX@std@@@std@@@std@@QEAA@XZ
	??1?$_Optional_destruct_base@VNamedShape@oreo@@$0A@@std@@QEAA@XZ
	??1?$_PPLTaskHandle@EU?$_InitialTaskHandle@XV<lambda_1>@?1???$?0V?$_Fake_no_copy_callable_adapter@P8System@GCS@@EAAXAEBV?$Matrix@N$0?0$0?0$0A@$0?0$0?0@Eigen@@AEBV?$map@HHU?$less@H@std@@V?$allocator@U?$pair@$$CBHH@std@@@2@@std@@AEBV?$vector@PEANV?$allocator@PEAN@std@@@6@_N@ZPEAV12@AEAV34@AEAV56@AEAV76@_N@std@@@?$_Task_async_state@X@std@@QEAA@$$QEAV?$_Fake_no_copy_callable_adapter@P8System@GCS@@EAAXAEBV?$Matrix@N$0?0$0?0$0A@$0?0$0?0@Eigen@@AEBV?$map@HHU?$less@H@std@@V?$allocator@U?$pair@$$CBHH@std@@@2@@std@@AEBV?$vector@PEANV?$allocator@PEAN@std@@@6@_N@ZPEAV12@AEAV34@AEAV56@AEAV76@_N@3@@Z@U_TypeSelectorNoAsync@details@Concurrency@@@?$task@E@Concurrency@@U_TaskProcHandle@details@3@@details@Concurrency@@UEAA@XZ
	??1?$_Packaged_state@$$A6AXXZ@std@@UEAA@XZ
	??1?$_Promise@H@std@@QEAA@XZ
	??1?$_Ref_count_obj2@U?$_Task_impl@E@details@Concurrency@@@std@@UEAA@XZ
	??1?$_Ref_count_obj2@U_ExceptionHolder@details@Concurrency@@@std@@UEAA@XZ
	??1?$_Ref_count_obj2@V?$output_string_adapter@DV?$basic_string@DU?$char_traits@D@std@@V?$allocator@D@2@@std@@@detail@json_abi_v3_12_0@nlohmann@@@std@@UEAA@XZ
	??1?$_Ref_count_obj2@VElementMap@Data@@@std@@UEAA@XZ
	??1?$_Ref_count_obj2@VElementMap@oreo@@@std@@UEAA@XZ
	??1?$_State_manager@H@std@@QEAA@XZ
	??1?$_Task_async_state@X@std@@UEAA@XZ
	??1?$_Task_impl@E@details@Concurrency@@UEAA@XZ
	??1?$_Temporary_owner@VKernelContext@oreo@@@std@@QEAA@XZ
	??1?$_Tidy_guard@V?$deque@UMappedNameRef@Data@@V?$allocator@UMappedNameRef@Data@@@std@@@std@@@std@@QEAA@XZ
	??1?$_Tidy_guard@V?$vector@UDiagnostic@oreo@@V?$allocator@UDiagnostic@oreo@@@std@@@std@@@std@@QEAA@XZ
	??1?$_Tidy_guard@V?$vector@UElementRef@oreo@@V?$allocator@UElementRef@oreo@@@std@@@std@@@std@@QEAA@XZ
	??1?$_Tidy_guard@V?$vector@V?$basic_json@Vmap@std@@Vvector@2@V?$basic_string@DU?$char_traits@D@std@@V?$allocator@D@2@@2@_N_J_KNVallocator@2@Uadl_serializer@json_abi_v3_12_0@nlohmann@@V?$vector@EV?$allocator@E@std@@@2@X@json_abi_v3_12_0@nlohmann@@V?$allocator@V?$basic_json@Vmap@std@@Vvector@2@V?$basic_string@DU?$char_traits@D@std@@V?$allocator@D@2@@2@_N_J_KNVallocator@2@Uadl_serializer@json_abi_v3_12_0@nlohmann@@V?$vector@EV?$allocator@E@std@@@2@X@json_abi_v3_12_0@nlohmann@@@std@@@std@@@std@@QEAA@XZ
	??1?$_Tidy_guard@V?$vector@V?$basic_string@DU?$char_traits@D@std@@V?$allocator@D@2@@std@@V?$allocator@V?$basic_string@DU?$char_traits@D@std@@V?$allocator@D@2@@std@@@2@@std@@@std@@QEAA@XZ
	??1?$_Tidy_guard@V?$vector@V?$map@PEANPEANU?$less@PEAN@std@@V?$allocator@U?$pair@QEANPEAN@std@@@2@@std@@V?$allocator@V?$map@PEANPEANU?$less@PEAN@std@@V?$allocator@U?$pair@QEANPEAN@std@@@2@@std@@@2@@std@@@std@@QEAA@XZ
	??1?$_Tidy_guard@V?$vector@V?$vector@PEANV?$allocator@PEAN@std@@@std@@V?$allocator@V?$vector@PEANV?$allocator@PEAN@std@@@std@@@2@@std@@@std@@QEAA@XZ
	??1?$_Tidy_guard@V?$vector@V?$vector@PEAVConstraint@GCS@@V?$allocator@PEAVConstraint@GCS@@@std@@@std@@V?$allocator@V?$vector@PEAVConstraint@GCS@@V?$allocator@PEAVConstraint@GCS@@@std@@@std@@@2@@std@@@std@@QEAA@XZ
	??1?$_Tidy_guard@V?$vector@VTopoShapeAdapter@oreo@@V?$allocator@VTopoShapeAdapter@oreo@@@std@@@std@@@std@@QEAA@XZ
	??1?$_Tree@V?$_Tset_traits@PEANU?$less@PEAN@std@@V?$allocator@PEAN@2@$0A@@std@@@std@@QEAA@XZ
	??1?$_Tree_head_scoped_ptr@V?$allocator@U?$_Tree_node@PEAVConstraint@GCS@@PEAX@std@@@std@@V?$_Tree_val@U?$_Tree_simple_types@PEAVConstraint@GCS@@@std@@@2@@std@@QEAA@XZ
	??1?$_Tree_head_scoped_ptr@V?$allocator@U?$_Tree_node@U?$pair@$$CBHH@std@@PEAX@std@@@std@@V?$_Tree_val@U?$_Tree_simple_types@U?$pair@$$CBHH@std@@@std@@@2@@std@@QEAA@XZ
	??1?$_Tree_head_scoped_ptr@V?$allocator@U?$_Tree_node@U?$pair@$$CBHUMappedChildElements@ElementMap@Data@@@std@@PEAX@std@@@std@@V?$_Tree_val@U?$_Tree_simple_types@U?$pair@$$CBHUMappedChildElements@ElementMap@Data@@@std@@@std@@@2@@std@@QEAA@XZ
	??1?$_Tree_head_scoped_ptr@V?$allocator@U?$_Tree_node@U?$pair@$$CBV?$basic_string@DU?$char_traits@D@std@@V?$allocator@D@2@@std@@V?$basic_json@Vmap@std@@Vvector@2@V?$basic_string@DU?$char_traits@D@std@@V?$allocator@D@2@@2@_N_J_KNVallocator@2@Uadl_serializer@json_abi_v3_12_0@nlohmann@@V?$vector@EV?$allocator@E@std@@@2@X@json_abi_v3_12_0@nlohmann@@@std@@PEAX@std@@@std@@V?$_Tree_val@U?$_Tree_simple_types@U?$pair@$$CBV?$basic_string@DU?$char_traits@D@std@@V?$allocator@D@2@@std@@V?$basic_json@Vmap@std@@Vvector@2@V?$basic_string@DU?$char_traits@D@std@@V?$allocator@D@2@@2@_N_J_KNVallocator@2@Uadl_serializer@json_abi_v3_12_0@nlohmann@@V?$vector@EV?$allocator@E@std@@@2@X@json_abi_v3_12_0@nlohmann@@@std@@@std@@@2@@std@@QEAA@XZ
	??1?$_Tree_head_scoped_ptr@V?$allocator@U?$_Tree_node@U?$pair@$$CBV?$basic_string@DU?$char_traits@D@std@@V?$allocator@D@2@@std@@V?$variant@NH_NV?$basic_string@DU?$char_traits@D@std@@V?$allocator@D@2@@std@@Vgp_Vec@@Vgp_Pnt@@Vgp_Dir@@Vgp_Ax1@@Vgp_Ax2@@Vgp_Pln@@UElementRef@oreo@@V?$vector@UElementRef@oreo@@V?$allocator@UElementRef@oreo@@@std@@@2@@2@@std@@PEAX@std@@@std@@V?$_Tree_val@U?$_Tree_simple_types@U?$pair@$$CBV?$basic_string@DU?$char_traits@D@std@@V?$allocator@D@2@@std@@V?$variant@NH_NV?$basic_string@DU?$char_traits@D@std@@V?$allocator@D@2@@std@@Vgp_Vec@@Vgp_Pnt@@Vgp_Dir@@Vgp_Ax1@@Vgp_Ax2@@Vgp_Pln@@UElementRef@oreo@@V?$vector@UElementRef@oreo@@V?$allocator@UElementRef@oreo@@@std@@@2@@2@@std@@@std@@@2@@std@@QEAA@XZ
	??1?$_Tree_head_scoped_ptr@V?$allocator@U?$_Tree_node@U?$pair@$$CBVMappedName@Data@@VIndexedName@2@@std@@PEAX@std@@@std@@V?$_Tree_val@U?$_Tree_simple_types@U?$pair@$$CBVMappedName@Data@@VIndexedName@2@@std@@@std@@@2@@std@@QEAA@XZ
	??1?$_Tree_head_scoped_ptr@V?$allocator@U?$_Tree_node@U?$pair@QEANH@std@@PEAX@std@@@std@@V?$_Tree_val@U?$_Tree_simple_types@U?$pair@QEANH@std@@@std@@@2@@std@@QEAA@XZ
	??1?$_Tree_head_scoped_ptr@V?$allocator@U?$_Tree_node@U?$pair@QEANPEAN@std@@PEAX@std@@@std@@V?$_Tree_val@U?$_Tree_simple_types@U?$pair@QEANPEAN@std@@@std@@@2@@std@@QEAA@XZ
	??1?$_Tree_head_scoped_ptr@V?$allocator@U?$_Tree_node@U?$pair@QEANV?$vector@PEAVConstraint@GCS@@V?$allocator@PEAVConstraint@GCS@@@std@@@std@@@std@@PEAX@std@@@std@@V?$_Tree_val@U?$_Tree_simple_types@U?$pair@QEANV?$vector@PEAVConstraint@GCS@@V?$allocator@PEAVConstraint@GCS@@@std@@@std@@@std@@@std@@@2@@std@@QEAA@XZ
	??1?$_Tree_head_scoped_ptr@V?$allocator@U?$_Tree_node@U?$pair@QEAVConstraint@GCS@@V?$vector@PEANV?$allocator@PEAN@std@@@std@@@std@@PEAX@std@@@std@@V?$_Tree_val@U?$_Tree_simple_types@U?$pair@QEAVConstraint@GCS@@V?$vector@PEANV?$allocator@PEAN@std@@@std@@@std@@@std@@@2@@std@@QEAA@XZ
	??1?$_Tree_head_scoped_ptr@V?$allocator@U?$_Tree_node@U?$pair@QEAVElementMap@Data@@H@std@@PEAX@std@@@std@@V?$_Tree_val@U?$_Tree_simple_types@U?$pair@QEAVElementMap@Data@@H@std@@@std@@@2@@std@@QEAA@XZ
	??1?$_Tree_head_scoped_ptr@V?$allocator@U?$_Tree_node@U?$pair@QEBDUIndexedElements@ElementMap@Data@@@std@@PEAX@std@@@std@@V?$_Tree_val@U?$_Tree_simple_types@U?$pair@QEBDUIndexedElements@ElementMap@Data@@@std@@@std@@@2@@std@@QEAA@XZ
	??1?$_Tree_temp_node_alloc@V?$allocator@U?$_Tree_node@U?$pair@$$CBHUMappedChildElements@ElementMap@Data@@@std@@PEAX@std@@@std@@@std@@QEAA@XZ
	??1?$_Tree_temp_node_alloc@V?$allocator@U?$_Tree_node@U?$pair@$$CBV?$basic_string@DU?$char_traits@D@std@@V?$allocator@D@2@@std@@V?$basic_json@Vmap@std@@Vvector@2@V?$basic_string@DU?$char_traits@D@std@@V?$allocator@D@2@@2@_N_J_KNVallocator@2@Uadl_serializer@json_abi_v3_12_0@nlohmann@@V?$vector@EV?$allocator@E@std@@@2@X@json_abi_v3_12_0@nlohmann@@@std@@PEAX@std@@@std@@@std@@QEAA@XZ
	??1?$_Tree_temp_node_alloc@V?$allocator@U?$_Tree_node@U?$pair@$$CBV?$basic_string@DU?$char_traits@D@std@@V?$allocator@D@2@@std@@V?$variant@NH_NV?$basic_string@DU?$char_traits@D@std@@V?$allocator@D@2@@std@@Vgp_Vec@@Vgp_Pnt@@Vgp_Dir@@Vgp_Ax1@@Vgp_Ax2@@Vgp_Pln@@UElementRef@oreo@@V?$vector@UElementRef@oreo@@V?$allocator@UElementRef@oreo@@@std@@@2@@2@@std@@PEAX@std@@@std@@@std@@QEAA@XZ
	??1?$_Tree_temp_node_alloc@V?$allocator@U?$_Tree_node@U?$pair@$$CBV?$basic_string@DU?$char_traits@D@std@@V?$allocator@D@2@@std@@VNamedShape@oreo@@@std@@PEAX@std@@@std@@@std@@QEAA@XZ
	??1?$_Tree_temp_node_alloc@V?$allocator@U?$_Tree_node@U?$pair@$$CBV?$basic_string@DU?$char_traits@D@std@@V?$allocator@D@2@@std@@_N@std@@PEAX@std@@@std@@@std@@QEAA@XZ
	??1?$_Tree_temp_node_alloc@V?$allocator@U?$_Tree_node@U?$pair@$$CBVIndexedName@Data@@V?$map@UNameKey@oreo@@UNameInfo@2@U?$less@UNameKey@oreo@@@std@@V?$allocator@U?$pair@$$CBUNameKey@oreo@@UNameInfo@2@@std@@@5@@std@@@std@@PEAX@std@@@std@@@std@@QEAA@XZ
	??1?$_Tree_temp_node_alloc@V?$allocator@U?$_Tree_node@U?$pair@$$CBVIndexedName@Data@@V?$map@VMappedName@Data@@UNameInfo@oreo@@UElementNameComparator@2@V?$allocator@U?$pair@$$CBVMappedName@Data@@UNameInfo@oreo@@@std@@@std@@@std@@@std@@PEAX@std@@@std@@@std@@QEAA@XZ
	??1?$_Tree_temp_node_alloc@V?$allocator@U?$_Tree_node@U?$pair@$$CBVIndexedName@oreo@@VMappedName@2@@std@@PEAX@std@@@std@@@std@@QEAA@XZ
	??1?$_Tree_temp_node_alloc@V?$allocator@U?$_Tree_node@U?$pair@$$CBVMappedName@oreo@@VIndexedName@2@@std@@PEAX@std@@@std@@@std@@QEAA@XZ
	??1?$_Tree_temp_node_alloc@V?$allocator@U?$_Tree_node@U?$pair@QEAVConstraint@GCS@@V?$set@HU?$less@H@std@@V?$allocator@H@2@@std@@@std@@PEAX@std@@@std@@@std@@QEAA@XZ
	??1?$_Tree_temp_node_alloc@V?$allocator@U?$_Tree_node@U?$pair@QEBDUIndexedElements@ElementMap@Data@@@std@@PEAX@std@@@std@@@std@@QEAA@XZ
	??1?$_Tree_temp_node_alloc@V?$allocator@U?$_Tree_node@V?$basic_string@DU?$char_traits@D@std@@V?$allocator@D@2@@std@@PEAX@std@@@std@@@std@@QEAA@XZ
	??1?$_Uninitialized_backout_al@V?$allocator@UDiagnostic@oreo@@@std@@@std@@QEAA@XZ
	??1?$_Uninitialized_backout_al@V?$allocator@UElementRef@oreo@@@std@@@std@@QEAA@XZ
	??1?$_Uninitialized_backout_al@V?$allocator@UFeature@oreo@@@std@@@std@@QEAA@XZ
	??1?$_Uninitialized_backout_al@V?$allocator@V?$basic_json@Vmap@std@@Vvector@2@V?$basic_string@DU?$char_traits@D@std@@V?$allocator@D@2@@2@_N_J_KNVallocator@2@Uadl_serializer@json_abi_v3_12_0@nlohmann@@V?$vector@EV?$allocator@E@std@@@2@X@json_abi_v3_12_0@nlohmann@@@std@@@std@@QEAA@XZ
	??1?$_Uninitialized_backout_al@V?$allocator@V?$map@PEANPEANU?$less@PEAN@std@@V?$allocator@U?$pair@QEANPEAN@std@@@2@@std@@@std@@@std@@QEAA@XZ
	??1?$_Uninitialized_backout_al@V?$allocator@V?$vector@PEANV?$allocator@PEAN@std@@@std@@@std@@@std@@QEAA@XZ
	??1?$_Uninitialized_backout_al@V?$allocator@V?$vector@PEAVConstraint@GCS@@V?$allocator@PEAVConstraint@GCS@@@std@@@std@@@std@@@std@@QEAA@XZ
	??1?$_Uninitialized_backout_al@V?$allocator@VTopoShapeAdapter@oreo@@@std@@@std@@QEAA@XZ
	??1?$_Variant_destroy_layer_@NH_NV?$basic_string@DU?$char_traits@D@std@@V?$allocator@D@2@@std@@Vgp_Vec@@Vgp_Pnt@@Vgp_Dir@@Vgp_Ax1@@Vgp_Ax2@@Vgp_Pln@@UElementRef@oreo@@V?$vector@UElementRef@oreo@@V?$allocator@UElementRef@oreo@@@std@@@2@@std@@QEAA@XZ
	??1?$adjacency_list@UvecS@boost@@U12@UundirectedS@2@Uno_property@2@U42@U42@UlistS@2@@boost@@QEAA@XZ
	??1?$aligned_stack_memory_handler@N@internal@Eigen@@QEAA@XZ
	??1?$auto_space@PEAU?$hashed_index_node_impl@V?$allocator@D@std@@@detail@multi_index@boost@@V?$allocator@V?$mutant_relation@U?$tagged@QEAVStringID@App@@Uleft@member_at@relation@bimaps@boost@@@tags@bimaps@boost@@U?$tagged@$$CBJUright@member_at@relation@bimaps@boost@@@234@Una@mpl@4@$00@relation@bimaps@boost@@@std@@@detail@multi_index@boost@@QEAA@XZ
	??1?$auto_space@_KV?$allocator@V?$mutant_relation@U?$tagged@QEAVStringID@App@@Uleft@member_at@relation@bimaps@boost@@@tags@bimaps@boost@@U?$tagged@$$CBJUright@member_at@relation@bimaps@boost@@@234@Una@mpl@4@$00@relation@bimaps@boost@@@std@@@detail@multi_index@boost@@QEAA@XZ
	??1?$base_from_member@V?$stream_buffer@U?$basic_array_source@D@iostreams@boost@@U?$char_traits@D@std@@V?$allocator@D@5@Uinput_seekable@23@@iostreams@boost@@$0A@@boost@@QEAA@XZ
	??1?$basic_filebuf@DU?$char_traits@D@std@@@std@@UEAA@XZ
	??1?$basic_ifstream@DU?$char_traits@D@std@@@std@@UEAA@XZ
	??1?$basic_istringstream@DU?$char_traits@D@std@@V?$allocator@D@2@@std@@UEAA@XZ
	??1?$basic_json@Vmap@std@@Vvector@2@V?$basic_string@DU?$char_traits@D@std@@V?$allocator@D@2@@2@_N_J_KNVallocator@2@Uadl_serializer@json_abi_v3_12_0@nlohmann@@V?$vector@EV?$allocator@E@std@@@2@X@json_abi_v3_12_0@nlohmann@@QEAA@XZ
	??1?$basic_ofstream@DU?$char_traits@D@std@@@std@@UEAA@XZ
	??1?$basic_ostringstream@DU?$char_traits@D@std@@V?$allocator@D@2@@std@@UEAA@XZ
	??1?$basic_string@DU?$char_traits@D@std@@V?$allocator@D@2@@std@@QEAA@XZ
	??1?$basic_string@_WU?$char_traits@_W@std@@V?$allocator@_W@2@@std@@QEAA@XZ
	??1?$basic_stringbuf@DU?$char_traits@D@std@@V?$allocator@D@2@@std@@UEAA@XZ
	??1?$basic_stringstream@DU?$char_traits@D@std@@V?$allocator@D@2@@std@@UEAA@XZ
	??1?$bucket_array@V?$allocator@V?$mutant_relation@U?$tagged@QEAVStringID@App@@Uleft@member_at@relation@bimaps@boost@@@tags@bimaps@boost@@U?$tagged@$$CBJUright@member_at@relation@bimaps@boost@@@234@Una@mpl@4@$00@relation@bimaps@boost@@@std@@@detail@multi_index@boost@@QEAA@XZ
	??1?$deque@UMappedNameRef@Data@@V?$allocator@UMappedNameRef@Data@@@std@@@std@@QEAA@XZ
	??1?$deque@VStringIDRef@App@@V?$allocator@VStringIDRef@App@@@std@@@std@@QEAA@XZ
	??1?$direct_streambuf@U?$basic_array_source@D@iostreams@boost@@U?$char_traits@D@std@@@detail@iostreams@boost@@UEAA@XZ
	??1?$enable_shared_from_this@VElementMap@Data@@@std@@IEAA@XZ
	??1?$evaluator@$$CBV?$Product@V?$Matrix@N$0?0$00$0A@$0?0$00@Eigen@@V?$Transpose@V?$Matrix@N$0?0$00$0A@$0?0$00@Eigen@@@2@$0A@@Eigen@@@internal@Eigen@@QEAA@XZ
	??1?$evaluator@V?$Block@$$CBV?$Product@V?$Transpose@V?$Matrix@N$0?0$0?0$0A@$0?0$0?0@Eigen@@@Eigen@@V?$Matrix@N$0?0$0?0$0A@$0?0$0?0@2@$0A@@Eigen@@$00$0?0$0A@@Eigen@@@internal@Eigen@@QEAA@XZ
	??1?$evaluator@V?$CwiseBinaryOp@U?$scalar_difference_op@NN@internal@Eigen@@$$CBV?$CwiseBinaryOp@U?$scalar_difference_op@NN@internal@Eigen@@$$CBV?$Matrix@N$0?0$00$0A@$0?0$00@3@$$CBV?$Product@V?$Transpose@V?$Matrix@N$0?0$0?0$0A@$0?0$0?0@Eigen@@@Eigen@@V?$Matrix@N$0?0$00$0A@$0?0$00@2@$0A@@3@@3@$$CBV?$Matrix@N$0?0$00$0A@$0?0$00@3@@Eigen@@@internal@Eigen@@QEAA@XZ
	??1?$evaluator@V?$CwiseBinaryOp@U?$scalar_difference_op@NN@internal@Eigen@@$$CBV?$Product@V?$Product@V?$Matrix@N$0?0$0?0$0A@$0?0$0?0@Eigen@@V12@$0A@@Eigen@@V?$Matrix@N$0?0$00$0A@$0?0$00@2@$0A@@3@$$CBV?$Matrix@N$0?0$00$0A@$0?0$00@3@@Eigen@@@internal@Eigen@@QEAA@XZ
	??1?$evaluator@V?$CwiseBinaryOp@U?$scalar_sum_op@NN@internal@Eigen@@$$CBV?$Product@V?$Matrix@N$0?0$0?0$0A@$0?0$0?0@Eigen@@V?$Matrix@N$0?0$00$0A@$0?0$00@2@$0A@@3@$$CBV?$Matrix@N$0?0$00$0A@$0?0$00@3@@Eigen@@@internal@Eigen@@QEAA@XZ
	??1?$evaluator@V?$Product@V?$CwiseBinaryOp@U?$scalar_product_op@NN@internal@Eigen@@$$CBV?$CwiseNullaryOp@U?$scalar_constant_op@N@internal@Eigen@@$$CBV?$Matrix@N$0?0$00$0A@$0?0$00@3@@3@$$CBV?$Block@$$CBV?$Matrix@N$0?0$0?0$0A@$0?0$0?0@Eigen@@$0?0$00$0A@@3@@Eigen@@V?$Map@V?$Matrix@N$00$0?0$00$00$00@Eigen@@$0A@V?$Stride@$0A@$0A@@2@@2@$00@Eigen@@@internal@Eigen@@QEAA@XZ
	??1?$evaluator@V?$Product@V?$Product@V?$Transpose@V?$Matrix@N$0?0$0?0$0A@$0?0$0?0@Eigen@@@Eigen@@V?$Matrix@N$0?0$0?0$0A@$0?0$0?0@2@$0A@@Eigen@@V?$Matrix@N$0?0$0?0$0A@$0?0$0?0@2@$00@Eigen@@@internal@Eigen@@QEAA@XZ
	??1?$find_iterator_base@V?$_String_iterator@V?$_String_val@U?$_Simple_types@D@std@@@std@@@std@@@detail@algorithm@boost@@IEAA@XZ
	??1?$function@$$A6A?AUResolvedRef@oreo@@AEBUElementRef@2@@Z@std@@QEAA@XZ
	??1?$function@$$A6A?AV?$basic_json@Vmap@std@@Vvector@2@V?$basic_string@DU?$char_traits@D@std@@V?$allocator@D@2@@2@_N_J_KNVallocator@2@Uadl_serializer@json_abi_v3_12_0@nlohmann@@V?$vector@EV?$allocator@E@std@@@2@X@json_abi_v3_12_0@nlohmann@@AEBV123@@Z@std@@QEAA@XZ
	??1?$function@$$A6AEXZ@std@@QEAA@XZ
	??1?$function@$$A6AXXZ@std@@QEAA@XZ
	??1?$function@$$A6A_NAEBVMappedName@Data@@HJJ@Z@std@@QEAA@XZ
	??1?$function@$$A6A_NHW4parse_event_t@detail@json_abi_v3_12_0@nlohmann@@AEAV?$basic_json@Vmap@std@@Vvector@2@V?$basic_string@DU?$char_traits@D@std@@V?$allocator@D@2@@2@_N_J_KNVallocator@2@Uadl_serializer@json_abi_v3_12_0@nlohmann@@V?$vector@EV?$allocator@E@std@@@2@X@34@@Z@std@@QEAA@XZ
	??1?$future@X@std@@QEAA@XZ
	??1?$gemm_blocking_space@$0A@NN$0?0$00$0?0$03$0A@@internal@Eigen@@QEAA@XZ
	??1?$gemm_blocking_space@$0A@NN$0?0$0?0$0?0$00$0A@@internal@Eigen@@QEAA@XZ
	??1?$gemm_blocking_space@$0A@NN$0?0$0?0$0?0$03$0A@@internal@Eigen@@QEAA@XZ
	??1?$handle@VGeom_Surface@@@opencascade@@QEAA@XZ
	??1?$handle@VNCollection_BaseAllocator@@@opencascade@@QEAA@XZ
	??1?$handle@VPoly_Polygon3D@@@opencascade@@QEAA@XZ
	??1?$handle@VPoly_PolygonOnTriangulation@@@opencascade@@QEAA@XZ
	??1?$handle@VPoly_Triangulation@@@opencascade@@QEAA@XZ
	??1?$handle@VShapeFix_Shape@@@opencascade@@QEAA@XZ
	??1?$handle@VTDF_Attribute@@@opencascade@@QEAA@XZ
	??1?$handle@VTDataStd_Name@@@opencascade@@QEAA@XZ
	??1?$handle@VTDocStd_Document@@@opencascade@@QEAA@XZ
	??1?$handle@VTopoDS_TCompound@@@opencascade@@QEAA@XZ
	??1?$handle@VTopoDS_TShape@@@opencascade@@QEAA@XZ
	??1?$handle@VXCAFApp_Application@@@opencascade@@QEAA@XZ
	??1?$handle@VXCAFDoc_ColorTool@@@opencascade@@QEAA@XZ
	??1?$handle@VXCAFDoc_LayerTool@@@opencascade@@QEAA@XZ
	??1?$handle@VXCAFDoc_ShapeTool@@@opencascade@@QEAA@XZ
	??1?$header_holder@PEAU?$ordered_index_node@Unull_augment_policy@detail@multi_index@boost@@U?$hashed_index_node@U?$index_node_base@V?$mutant_relation@U?$tagged@QEAVStringID@App@@Uleft@member_at@relation@bimaps@boost@@@tags@bimaps@boost@@U?$tagged@$$CBJUright@member_at@relation@bimaps@boost@@@234@Una@mpl@4@$00@relation@bimaps@boost@@V?$allocator@V?$mutant_relation@U?$tagged@QEAVStringID@App@@Uleft@member_at@relation@bimaps@boost@@@tags@bimaps@boost@@U?$tagged@$$CBJUright@member_at@relation@bimaps@boost@@@234@Una@mpl@4@$00@relation@bimaps@boost@@@std@@@detail@multi_index@boost@@@234@@detail@multi_index@boost@@V?$multi_index_container@V?$mutant_relation@U?$tagged@QEAVStringID@App@@Uleft@member_at@relation@bimaps@boost@@@tags@bimaps@boost@@U?$tagged@$$CBJUright@member_at@relation@bimaps@boost@@@234@Una@mpl@4@$00@relation@bimaps@boost@@Ucore_indices@?$bimap_core@U?$unordered_set_of@PEAVStringID@App@@UStringIDHasher@@U3@@bimaps@boost@@U?$set_of@JU?$less@J@std@@@23@Una@mpl@3@U563@U563@@detail@34@V?$allocator@V?$mutant_relation@U?$tagged@QEAVStringID@App@@Uleft@member_at@relation@bimaps@boost@@@tags@bimaps@boost@@U?$tagged@$$CBJUright@member_at@relation@bimaps@boost@@@234@Una@mpl@4@$00@relation@bimaps@boost@@@std@@@34@@detail@multi_index@boost@@QEAA@XZ
	??1?$is_any_ofF@D@detail@algorithm@boost@@QEAA@XZ
	??1?$iteration_proxy_value@V?$iter_impl@V?$basic_json@Vmap@std@@Vvector@2@V?$basic_string@DU?$char_traits@D@std@@V?$allocator@D@2@@2@_N_J_KNVallocator@2@Uadl_serializer@json_abi_v3_12_0@nlohmann@@V?$vector@EV?$allocator@E@std@@@2@X@json_abi_v3_12_0@nlohmann@@@detail@json_abi_v3_12_0@nlohmann@@@detail@json_abi_v3_12_0@nlohmann@@QEAA@XZ
	??1?$json_ref@V?$basic_json@Vmap@std@@Vvector@2@V?$basic_string@DU?$char_traits@D@std@@V?$allocator@D@2@@2@_N_J_KNVallocator@2@Uadl_serializer@json_abi_v3_12_0@nlohmann@@V?$vector@EV?$allocator@E@std@@@2@X@json_abi_v3_12_0@nlohmann@@@detail@json_abi_v3_12_0@nlohmann@@QEAA@XZ
	??1?$json_sax_dom_callback_parser@V?$basic_json@Vmap@std@@Vvector@2@V?$basic_string@DU?$char_traits@D@std@@V?$allocator@D@2@@2@_N_J_KNVallocator@2@Uadl_serializer@json_abi_v3_12_0@nlohmann@@V?$vector@EV?$allocator@E@std@@@2@X@json_abi_v3_12_0@nlohmann@@V?$iterator_input_adapter@V?$_String_const_iterator@V?$_String_val@U?$_Simple_types@D@std@@@std@@@std@@@detail@23@@detail@json_abi_v3_12_0@nlohmann@@QEAA@XZ
	??1?$json_sax_dom_parser@V?$basic_json@Vmap@std@@Vvector@2@V?$basic_string@DU?$char_traits@D@std@@V?$allocator@D@2@@2@_N_J_KNVallocator@2@Uadl_serializer@json_abi_v3_12_0@nlohmann@@V?$vector@EV?$allocator@E@std@@@2@X@json_abi_v3_12_0@nlohmann@@V?$iterator_input_adapter@V?$_String_const_iterator@V?$_String_val@U?$_Simple_types@D@std@@@std@@@std@@@detail@23@@detail@json_abi_v3_12_0@nlohmann@@QEAA@XZ
	??1?$lexer@V?$basic_json@Vmap@std@@Vvector@2@V?$basic_string@DU?$char_traits@D@std@@V?$allocator@D@2@@2@_N_J_KNVallocator@2@Uadl_serializer@json_abi_v3_12_0@nlohmann@@V?$vector@EV?$allocator@E@std@@@2@X@json_abi_v3_12_0@nlohmann@@V?$iterator_input_adapter@V?$_String_const_iterator@V?$_String_val@U?$_Simple_types@D@std@@@std@@@std@@@detail@23@@detail@json_abi_v3_12_0@nlohmann@@QEAA@XZ
	??1?$list@U?$pair@$$CBIV?$shared_ptr@VElementMap@Data@@@std@@@std@@V?$allocator@U?$pair@$$CBIV?$shared_ptr@VElementMap@Data@@@std@@@std@@@2@@std@@QEAA@XZ
	??1?$list@U?$pair@$$CBV?$basic_string@DU?$char_traits@D@std@@V?$allocator@D@2@@std@@H@std@@V?$allocator@U?$pair@$$CBV?$basic_string@DU?$char_traits@D@std@@V?$allocator@D@2@@std@@H@std@@@2@@std@@QEAA@XZ
	??1?$list@U?$pair@QEBVElementMap@Data@@I@std@@V?$allocator@U?$pair@QEBVElementMap@Data@@I@std@@@2@@std@@QEAA@XZ
	??1?$list@UByteArray@Data@@V?$allocator@UByteArray@Data@@@std@@@std@@QEAA@XZ
	??1?$lock_guard@Vmutex@std@@@std@@QEAA@XZ
	??1?$map@HHU?$less@H@std@@V?$allocator@U?$pair@$$CBHH@std@@@2@@std@@QEAA@XZ
	??1?$map@HUCachedFace@MeshCache@oreo@@U?$less@H@std@@V?$allocator@U?$pair@$$CBHUCachedFace@MeshCache@oreo@@@std@@@5@@std@@QEAA@XZ
	??1?$map@JVStringIDRef@App@@U?$less@J@std@@V?$allocator@U?$pair@$$CBJVStringIDRef@App@@@std@@@4@@std@@QEAA@XZ
	??1?$map@PEANHU?$less@PEAN@std@@V?$allocator@U?$pair@QEANH@std@@@2@@std@@QEAA@XZ
	??1?$map@PEANNU?$less@PEAN@std@@V?$allocator@U?$pair@QEANN@std@@@2@@std@@QEAA@XZ
	??1?$map@PEANPEANU?$less@PEAN@std@@V?$allocator@U?$pair@QEANPEAN@std@@@2@@std@@QEAA@XZ
	??1?$map@PEANV?$vector@PEAVConstraint@GCS@@V?$allocator@PEAVConstraint@GCS@@@std@@@std@@U?$less@PEAN@2@V?$allocator@U?$pair@QEANV?$vector@PEAVConstraint@GCS@@V?$allocator@PEAVConstraint@GCS@@@std@@@std@@@std@@@2@@std@@QEAA@XZ
	??1?$map@PEAVConstraint@GCS@@V?$set@HU?$less@H@std@@V?$allocator@H@2@@std@@U?$less@PEAVConstraint@GCS@@@4@V?$allocator@U?$pair@QEAVConstraint@GCS@@V?$set@HU?$less@H@std@@V?$allocator@H@2@@std@@@std@@@4@@std@@QEAA@XZ
	??1?$map@PEAVConstraint@GCS@@V?$vector@PEANV?$allocator@PEAN@std@@@std@@U?$less@PEAVConstraint@GCS@@@4@V?$allocator@U?$pair@QEAVConstraint@GCS@@V?$vector@PEANV?$allocator@PEAN@std@@@std@@@std@@@4@@std@@QEAA@XZ
	??1?$map@PEBDUIndexedElements@ElementMap@Data@@UCStringComp@23@V?$allocator@U?$pair@QEBDUIndexedElements@ElementMap@Data@@@std@@@std@@@std@@QEAA@XZ
	??1?$map@PEBVElementMap@Data@@HU?$less@PEBVElementMap@Data@@@std@@V?$allocator@U?$pair@QEBVElementMap@Data@@H@std@@@4@@std@@QEAA@XZ
	??1?$map@V?$basic_string@DU?$char_traits@D@std@@V?$allocator@D@2@@std@@USchemaVersion@oreo@@U?$less@V?$basic_string@DU?$char_traits@D@std@@V?$allocator@D@2@@std@@@2@V?$allocator@U?$pair@$$CBV?$basic_string@DU?$char_traits@D@std@@V?$allocator@D@2@@std@@USchemaVersion@oreo@@@std@@@2@@std@@QEAA@XZ
	??1?$map@V?$basic_string@DU?$char_traits@D@std@@V?$allocator@D@2@@std@@V?$variant@NH_NV?$basic_string@DU?$char_traits@D@std@@V?$allocator@D@2@@std@@Vgp_Vec@@Vgp_Pnt@@Vgp_Dir@@Vgp_Ax1@@Vgp_Ax2@@Vgp_Pln@@UElementRef@oreo@@V?$vector@UElementRef@oreo@@V?$allocator@UElementRef@oreo@@@std@@@2@@2@U?$less@V?$basic_string@DU?$char_traits@D@std@@V?$allocator@D@2@@std@@@2@V?$allocator@U?$pair@$$CBV?$basic_string@DU?$char_traits@D@std@@V?$allocator@D@2@@std@@V?$variant@NH_NV?$basic_string@DU?$char_traits@D@std@@V?$allocator@D@2@@std@@Vgp_Vec@@Vgp_Pnt@@Vgp_Dir@@Vgp_Ax1@@Vgp_Ax2@@Vgp_Pln@@UElementRef@oreo@@V?$vector@UElementRef@oreo@@V?$allocator@UElementRef@oreo@@@std@@@2@@2@@std@@@2@@std@@QEAA@XZ
	??1?$map@V?$basic_string@DU?$char_traits@D@std@@V?$allocator@D@2@@std@@VNamedShape@oreo@@U?$less@V?$basic_string@DU?$char_traits@D@std@@V?$allocator@D@2@@std@@@2@V?$allocator@U?$pair@$$CBV?$basic_string@DU?$char_traits@D@std@@V?$allocator@D@2@@std@@VNamedShape@oreo@@@std@@@2@@std@@QEAA@XZ
	??1?$map@VIndexedName@Data@@V?$map@UNameKey@oreo@@UNameInfo@2@U?$less@UNameKey@oreo@@@std@@V?$allocator@U?$pair@$$CBUNameKey@oreo@@UNameInfo@2@@std@@@5@@std@@U?$less@VIndexedName@Data@@@4@V?$allocator@U?$pair@$$CBVIndexedName@Data@@V?$map@UNameKey@oreo@@UNameInfo@2@U?$less@UNameKey@oreo@@@std@@V?$allocator@U?$pair@$$CBUNameKey@oreo@@UNameInfo@2@@std@@@5@@std@@@std@@@4@@std@@QEAA@XZ
	??1?$map@VIndexedName@Data@@V?$map@VMappedName@Data@@UNameInfo@oreo@@UElementNameComparator@2@V?$allocator@U?$pair@$$CBVMappedName@Data@@UNameInfo@oreo@@@std@@@std@@@std@@U?$less@VIndexedName@Data@@@4@V?$allocator@U?$pair@$$CBVIndexedName@Data@@V?$map@VMappedName@Data@@UNameInfo@oreo@@UElementNameComparator@2@V?$allocator@U?$pair@$$CBVMappedName@Data@@UNameInfo@oreo@@@std@@@std@@@std@@@std@@@4@@std@@QEAA@XZ
	??1?$map@VIndexedName@oreo@@VMappedName@2@U?$less@VIndexedName@oreo@@@std@@V?$allocator@U?$pair@$$CBVIndexedName@oreo@@VMappedName@2@@std@@@5@@std@@QEAA@XZ
	??1?$map@VMappedName@Data@@VIndexedName@2@UElementNameComparator@2@V?$allocator@U?$pair@$$CBVMappedName@Data@@VIndexedName@2@@std@@@std@@@std@@QEAA@XZ
	??1?$map@VMappedName@oreo@@VIndexedName@2@U?$less@VMappedName@oreo@@@std@@V?$allocator@U?$pair@$$CBVMappedName@oreo@@VIndexedName@2@@std@@@5@@std@@QEAA@XZ
	??1?$map@VQByteArray@@HU?$less@VQByteArray@@@std@@V?$allocator@U?$pair@$$CBVQByteArray@@H@std@@@3@@std@@QEAA@XZ
	??1?$multi_index_container@V?$mutant_relation@U?$tagged@QEAVStringID@App@@Uleft@member_at@relation@bimaps@boost@@@tags@bimaps@boost@@U?$tagged@$$CBJUright@member_at@relation@bimaps@boost@@@234@Una@mpl@4@$00@relation@bimaps@boost@@Ucore_indices@?$bimap_core@U?$unordered_set_of@PEAVStringID@App@@UStringIDHasher@@U3@@bimaps@boost@@U?$set_of@JU?$less@J@std@@@23@Una@mpl@3@U563@U563@@detail@34@V?$allocator@V?$mutant_relation@U?$tagged@QEAVStringID@App@@Uleft@member_at@relation@bimaps@boost@@@tags@bimaps@boost@@U?$tagged@$$CBJUright@member_at@relation@bimaps@boost@@@234@Una@mpl@4@$00@relation@bimaps@boost@@@std@@@multi_index@boost@@QEAA@XZ
	??1?$optional@V?$edge_desc_impl@Uundirected_tag@boost@@_K@detail@boost@@@boost@@QEAA@XZ
	??1?$output_adapter@DV?$basic_string@DU?$char_traits@D@std@@V?$allocator@D@2@@std@@@detail@json_abi_v3_12_0@nlohmann@@QEAA@XZ
	??1?$output_adapter_protocol@D@detail@json_abi_v3_12_0@nlohmann@@UEAA@XZ
	??1?$pair@$$CBV?$basic_string@DU?$char_traits@D@std@@V?$allocator@D@2@@std@@V?$basic_json@Vmap@std@@Vvector@2@V?$basic_string@DU?$char_traits@D@std@@V?$allocator@D@2@@2@_N_J_KNVallocator@2@Uadl_serializer@json_abi_v3_12_0@nlohmann@@V?$vector@EV?$allocator@E@std@@@2@X@json_abi_v3_12_0@nlohmann@@@std@@QEAA@XZ
	??1?$pair@$$CBV?$basic_string@DU?$char_traits@D@std@@V?$allocator@D@2@@std@@V?$variant@NH_NV?$basic_string@DU?$char_traits@D@std@@V?$allocator@D@2@@std@@Vgp_Vec@@Vgp_Pnt@@Vgp_Dir@@Vgp_Ax1@@Vgp_Ax2@@Vgp_Pln@@UElementRef@oreo@@V?$vector@UElementRef@oreo@@V?$allocator@UElementRef@oreo@@@std@@@2@@2@@std@@QEAA@XZ
	??1?$pair@$$CBV?$basic_string@DU?$char_traits@D@std@@V?$allocator@D@2@@std@@VNamedShape@oreo@@@std@@QEAA@XZ
	??1?$pair@$$CBVIndexedName@oreo@@VMappedName@2@@std@@QEAA@XZ
	??1?$pair@$$CBVMappedName@oreo@@VIndexedName@2@@std@@QEAA@XZ
	??1?$pair@V?$optional@V?$edge_desc_impl@Uundirected_tag@boost@@_K@detail@boost@@@boost@@U?$pair@U?$out_edge_iter@V?$_Vector_iterator@V?$_Vector_val@U?$_Simple_types@V?$stored_edge_iter@_KV?$_List_iterator@V?$_List_val@U?$_List_simple_types@U?$list_edge@_KUno_property@boost@@@boost@@@std@@@std@@@std@@Uno_property@boost@@@detail@boost@@@std@@@std@@@std@@_KV?$edge_desc_impl@Uundirected_tag@boost@@_K@detail@boost@@_J@detail@boost@@U123@@std@@@std@@QEAA@XZ
	??1?$pair@VMappedName@Data@@VIndexedName@2@@std@@QEAA@XZ
	??1?$pair@VQByteArray@@H@std@@QEAA@XZ
	??1?$pair@_KU?$pair@V?$optional@V?$edge_desc_impl@Uundirected_tag@boost@@_K@detail@boost@@@boost@@U?$pair@U?$out_edge_iter@V?$_Vector_iterator@V?$_Vector_val@U?$_Simple_types@V?$stored_edge_iter@_KV?$_List_iterator@V?$_List_val@U?$_List_simple_types@U?$list_edge@_KUno_property@boost@@@boost@@@std@@@std@@@std@@Uno_property@boost@@@detail@boost@@@std@@@std@@@std@@_KV?$edge_desc_impl@Uundirected_tag@boost@@_K@detail@boost@@_J@detail@boost@@U123@@std@@@std@@@std@@QEAA@XZ
	??1?$parser@V?$basic_json@Vmap@std@@Vvector@2@V?$basic_string@DU?$char_traits@D@std@@V?$allocator@D@2@@2@_N_J_KNVallocator@2@Uadl_serializer@json_abi_v3_12_0@nlohmann@@V?$vector@EV?$allocator@E@std@@@2@X@json_abi_v3_12_0@nlohmann@@V?$iterator_input_adapter@V?$_String_const_iterator@V?$_String_val@U?$_Simple_types@D@std@@@std@@@std@@@detail@23@@detail@json_abi_v3_12_0@nlohmann@@QEAA@XZ
	??1?$refcount_ptr@Uerror_info_container@exception_detail@boost@@@exception_detail@boost@@QEAA@XZ
	??1?$serializer@V?$basic_json@Vmap@std@@Vvector@2@V?$basic_string@DU?$char_traits@D@std@@V?$allocator@D@2@@2@_N_J_KNVallocator@2@Uadl_serializer@json_abi_v3_12_0@nlohmann@@V?$vector@EV?$allocator@E@std@@@2@X@json_abi_v3_12_0@nlohmann@@@detail@json_abi_v3_12_0@nlohmann@@QEAA@XZ
	??1?$set@HU?$less@H@std@@V?$allocator@H@2@@std@@QEAA@XZ
	??1?$set@JU?$less@J@std@@V?$allocator@J@2@@std@@QEAA@XZ
	??1?$set@PEANU?$less@PEAN@std@@V?$allocator@PEAN@2@@std@@QEAA@XZ
	??1?$set@PEAVConstraint@GCS@@U?$less@PEAVConstraint@GCS@@@std@@V?$allocator@PEAVConstraint@GCS@@@4@@std@@QEAA@XZ
	??1?$set@V?$basic_string@DU?$char_traits@D@std@@V?$allocator@D@2@@std@@U?$less@V?$basic_string@DU?$char_traits@D@std@@V?$allocator@D@2@@std@@@2@V?$allocator@V?$basic_string@DU?$char_traits@D@std@@V?$allocator@D@2@@std@@@2@@std@@QEAA@XZ
	??1?$shared_array_property_map@W4default_color_type@boost@@U?$vec_adj_list_vertex_id_map@Uno_property@boost@@_K@2@@boost@@QEAA@XZ
	??1?$shared_ptr@U?$output_adapter_protocol@D@detail@json_abi_v3_12_0@nlohmann@@@std@@QEAA@XZ
	??1?$shared_ptr@U_ExceptionHolder@details@Concurrency@@@std@@QEAA@XZ
	??1?$shared_ptr@U_Task_impl_base@details@Concurrency@@@std@@QEAA@XZ
	??1?$shared_ptr@Uscheduler_interface@Concurrency@@@std@@QEAA@XZ
	??1?$shared_ptr@VElementMap@Data@@@std@@QEAA@XZ
	??1?$shared_ptr@VElementMap@oreo@@@std@@QEAA@XZ
	??1?$shared_ptr@VKernelContext@oreo@@@std@@QEAA@XZ
	??1?$split_iterator@V?$_String_iterator@V?$_String_val@U?$_Simple_types@D@std@@@std@@@std@@@algorithm@boost@@QEAA@XZ
	??1?$stream_base@U?$basic_array_source@D@iostreams@boost@@U?$char_traits@D@std@@V?$allocator@D@5@V?$basic_istream@DU?$char_traits@D@std@@@5@@detail@iostreams@boost@@UEAA@XZ
	??1?$stream_buffer@U?$basic_array_source@D@iostreams@boost@@U?$char_traits@D@std@@V?$allocator@D@5@Uinput_seekable@23@@iostreams@boost@@UEAA@XZ
	??1?$task@E@Concurrency@@QEAA@XZ
	??1?$task@X@Concurrency@@QEAA@XZ
	??1?$token_finderF@U?$is_any_ofF@D@detail@algorithm@boost@@@detail@algorithm@boost@@QEAA@XZ
	??1?$transform_iterator@U?$copy_iterator_rangeF@V?$basic_string@DU?$char_traits@D@std@@V?$allocator@D@2@@std@@V?$_String_iterator@V?$_String_val@U?$_Simple_types@D@std@@@std@@@2@@detail@algorithm@boost@@V?$split_iterator@V?$_String_iterator@V?$_String_val@U?$_Simple_types@D@std@@@std@@@std@@@34@Uuse_default@4@U64@@iterators@boost@@QEAA@XZ
	??1?$tuple@V?$map@HHU?$less@H@std@@V?$allocator@U?$pair@$$CBHH@std@@@2@@std@@V?$vector@PEANV?$allocator@PEAN@std@@@2@_N@std@@QEAA@XZ
	??1?$tuple@V?$vector@PEANV?$allocator@PEAN@std@@@std@@_N@std@@QEAA@XZ
	??1?$unique_lock@Vmutex@std@@@std@@QEAA@XZ
	??1?$unique_ptr@NU?$default_delete@N@std@@@std@@QEAA@XZ
	??1?$unique_ptr@UMappedNameRef@Data@@U?$default_delete@UMappedNameRef@Data@@@std@@@std@@QEAA@XZ
	??1?$unique_ptr@U_TaskProcHandle@details@Concurrency@@U?$default_delete@U_TaskProcHandle@details@Concurrency@@@std@@@std@@QEAA@XZ
	??1?$unique_ptr@V?$basic_string@DU?$char_traits@D@std@@V?$allocator@D@2@@std@@V<lambda_1>@?1???$create@V?$basic_string@DU?$char_traits@D@std@@V?$allocator@D@2@@std@@AEAY00$$CBD@?$basic_json@Vmap@std@@Vvector@2@V?$basic_string@DU?$char_traits@D@std@@V?$allocator@D@2@@2@_N_J_KNVallocator@2@Uadl_serializer@json_abi_v3_12_0@nlohmann@@V?$vector@EV?$allocator@E@std@@@2@X@json_abi_v3_12_0@nlohmann@@CAPEAV12@AEAY00$$CBD@Z@@std@@QEAA@XZ
	??1?$unique_ptr@V?$basic_string@DU?$char_traits@D@std@@V?$allocator@D@2@@std@@V<lambda_1>@?1???$create@V?$basic_string@DU?$char_traits@D@std@@V?$allocator@D@2@@std@@AEAY01$$CBD@?$basic_json@Vmap@std@@Vvector@2@V?$basic_string@DU?$char_traits@D@std@@V?$allocator@D@2@@2@_N_J_KNVallocator@2@Uadl_serializer@json_abi_v3_12_0@nlohmann@@V?$vector@EV?$allocator@E@std@@@2@X@json_abi_v3_12_0@nlohmann@@CAPEAV12@AEAY01$$CBD@Z@@std@@QEAA@XZ
	??1?$unique_ptr@V?$basic_string@DU?$char_traits@D@std@@V?$allocator@D@2@@std@@V<lambda_1>@?1???$create@V?$basic_string@DU?$char_traits@D@std@@V?$allocator@D@2@@std@@AEAY02$$CBD@?$basic_json@Vmap@std@@Vvector@2@V?$basic_string@DU?$char_traits@D@std@@V?$allocator@D@2@@2@_N_J_KNVallocator@2@Uadl_serializer@json_abi_v3_12_0@nlohmann@@V?$vector@EV?$allocator@E@std@@@2@X@json_abi_v3_12_0@nlohmann@@CAPEAV12@AEAY02$$CBD@Z@@std@@QEAA@XZ
	??1?$unique_ptr@V?$basic_string@DU?$char_traits@D@std@@V?$allocator@D@2@@std@@V<lambda_1>@?1???$create@V?$basic_string@DU?$char_traits@D@std@@V?$allocator@D@2@@std@@AEAY03$$CBD@?$basic_json@Vmap@std@@Vvector@2@V?$basic_string@DU?$char_traits@D@std@@V?$allocator@D@2@@2@_N_J_KNVallocator@2@Uadl_serializer@json_abi_v3_12_0@nlohmann@@V?$vector@EV?$allocator@E@std@@@2@X@json_abi_v3_12_0@nlohmann@@CAPEAV12@AEAY03$$CBD@Z@@std@@QEAA@XZ
	??1?$unique_ptr@V?$basic_string@DU?$char_traits@D@std@@V?$allocator@D@2@@std@@V<lambda_1>@?1???$create@V?$basic_string@DU?$char_traits@D@std@@V?$allocator@D@2@@std@@AEAY04$$CBD@?$basic_json@Vmap@std@@Vvector@2@V?$basic_string@DU?$char_traits@D@std@@V?$allocator@D@2@@2@_N_J_KNVallocator@2@Uadl_serializer@json_abi_v3_12_0@nlohmann@@V?$vector@EV?$allocator@E@std@@@2@X@json_abi_v3_12_0@nlohmann@@CAPEAV12@AEAY04$$CBD@Z@@std@@QEAA@XZ
	??1?$unique_ptr@V?$basic_string@DU?$char_traits@D@std@@V?$allocator@D@2@@std@@V<lambda_1>@?1???$create@V?$basic_string@DU?$char_traits@D@std@@V?$allocator@D@2@@std@@AEAY05$$CBD@?$basic_json@Vmap@std@@Vvector@2@V?$basic_string@DU?$char_traits@D@std@@V?$allocator@D@2@@2@_N_J_KNVallocator@2@Uadl_serializer@json_abi_v3_12_0@nlohmann@@V?$vector@EV?$allocator@E@std@@@2@X@json_abi_v3_12_0@nlohmann@@CAPEAV12@AEAY05$$CBD@Z@@std@@QEAA@XZ
	??1?$unique_ptr@V?$basic_string@DU?$char_traits@D@std@@V?$allocator@D@2@@std@@V<lambda_1>@?1???$create@V?$basic_string@DU?$char_traits@D@std@@V?$allocator@D@2@@std@@AEAY06$$CBD@?$basic_json@Vmap@std@@Vvector@2@V?$basic_string@DU?$char_traits@D@std@@V?$allocator@D@2@@2@_N_J_KNVallocator@2@Uadl_serializer@json_abi_v3_12_0@nlohmann@@V?$vector@EV?$allocator@E@std@@@2@X@json_abi_v3_12_0@nlohmann@@CAPEAV12@AEAY06$$CBD@Z@@std@@QEAA@XZ
	??1?$unique_ptr@V?$basic_string@DU?$char_traits@D@std@@V?$allocator@D@2@@std@@V<lambda_1>@?1???$create@V?$basic_string@DU?$char_traits@D@std@@V?$allocator@D@2@@std@@AEAY09$$CBD@?$basic_json@Vmap@std@@Vvector@2@V?$basic_string@DU?$char_traits@D@std@@V?$allocator@D@2@@2@_N_J_KNVallocator@2@Uadl_serializer@json_abi_v3_12_0@nlohmann@@V?$vector@EV?$allocator@E@std@@@2@X@json_abi_v3_12_0@nlohmann@@CAPEAV12@AEAY09$$CBD@Z@@std@@QEAA@XZ
	??1?$unique_ptr@V?$basic_string@DU?$char_traits@D@std@@V?$allocator@D@2@@std@@V<lambda_1>@?1???$create@V?$basic_string@DU?$char_traits@D@std@@V?$allocator@D@2@@std@@AEAY0M@$$CBD@?$basic_json@Vmap@std@@Vvector@2@V?$basic_string@DU?$char_traits@D@std@@V?$allocator@D@2@@2@_N_J_KNVallocator@2@Uadl_serializer@json_abi_v3_12_0@nlohmann@@V?$vector@EV?$allocator@E@std@@@2@X@json_abi_v3_12_0@nlohmann@@CAPEAV12@AEAY0M@$$CBD@Z@@std@@QEAA@XZ
	??1?$unique_ptr@V?$basic_string@DU?$char_traits@D@std@@V?$allocator@D@2@@std@@V<lambda_1>@?1???$create@V?$basic_string@DU?$char_traits@D@std@@V?$allocator@D@2@@std@@AEBQEBD@?$basic_json@Vmap@std@@Vvector@2@V?$basic_string@DU?$char_traits@D@std@@V?$allocator@D@2@@2@_N_J_KNVallocator@2@Uadl_serializer@json_abi_v3_12_0@nlohmann@@V?$vector@EV?$allocator@E@std@@@2@X@json_abi_v3_12_0@nlohmann@@CAPEAV12@AEBQEBD@Z@@std@@QEAA@XZ
	??1?$unique_ptr@V?$basic_string@DU?$char_traits@D@std@@V?$allocator@D@2@@std@@V<lambda_1>@?1???$create@V?$basic_string@DU?$char_traits@D@std@@V?$allocator@D@2@@std@@AEBV12@@?$basic_json@Vmap@std@@Vvector@2@V?$basic_string@DU?$char_traits@D@std@@V?$allocator@D@2@@2@_N_J_KNVallocator@2@Uadl_serializer@json_abi_v3_12_0@nlohmann@@V?$vector@EV?$allocator@E@std@@@2@X@json_abi_v3_12_0@nlohmann@@CAPEAV12@AEBV12@@Z@@std@@QEAA@XZ
	??1?$unique_ptr@V?$byte_container_with_subtype@V?$vector@EV?$allocator@E@std@@@std@@@json_abi_v3_12_0@nlohmann@@V<lambda_1>@?1???$create@V?$byte_container_with_subtype@V?$vector@EV?$allocator@E@std@@@std@@@json_abi_v3_12_0@nlohmann@@AEBV123@@?$basic_json@Vmap@std@@Vvector@2@V?$basic_string@DU?$char_traits@D@std@@V?$allocator@D@2@@2@_N_J_KNVallocator@2@Uadl_serializer@json_abi_v3_12_0@nlohmann@@V?$vector@EV?$allocator@E@std@@@2@X@23@CAPEAV123@AEBV123@@Z@@std@@QEAA@XZ
	??1?$unique_ptr@V?$map@V?$basic_string@DU?$char_traits@D@std@@V?$allocator@D@2@@std@@V?$basic_json@Vmap@std@@Vvector@2@V?$basic_string@DU?$char_traits@D@std@@V?$allocator@D@2@@2@_N_J_KNVallocator@2@Uadl_serializer@json_abi_v3_12_0@nlohmann@@V?$vector@EV?$allocator@E@std@@@2@X@json_abi_v3_12_0@nlohmann@@U?$less@X@2@V?$allocator@U?$pair@$$CBV?$basic_string@DU?$char_traits@D@std@@V?$allocator@D@2@@std@@V?$basic_json@Vmap@std@@Vvector@2@V?$basic_string@DU?$char_traits@D@std@@V?$allocator@D@2@@2@_N_J_KNVallocator@2@Uadl_serializer@json_abi_v3_12_0@nlohmann@@V?$vector@EV?$allocator@E@std@@@2@X@json_abi_v3_12_0@nlohmann@@@std@@@2@@std@@V<lambda_1>@?1???$create@V?$map@V?$basic_string@DU?$char_traits@D@std@@V?$allocator@D@2@@std@@V?$basic_json@Vmap@std@@Vvector@2@V?$basic_string@DU?$char_traits@D@std@@V?$allocator@D@2@@2@_N_J_KNVallocator@2@Uadl_serializer@json_abi_v3_12_0@nlohmann@@V?$vector@EV?$allocator@E@std@@@2@X@json_abi_v3_12_0@nlohmann@@U?$less@X@2@V?$allocator@U?$pair@$$CBV?$basic_string@DU?$char_traits@D@std@@V?$allocator@D@2@@std@@V?$basic_json@Vmap@std@@Vvector@2@V?$basic_string@DU?$char_traits@D@std@@V?$allocator@D@2@@2@_N_J_KNVallocator@2@Uadl_serializer@json_abi_v3_12_0@nlohmann@@V?$vector@EV?$allocator@E@std@@@2@X@json_abi_v3_12_0@nlohmann@@@std@@@2@@std@@$$V@?$basic_json@Vmap@std@@Vvector@2@V?$basic_string@DU?$char_traits@D@std@@V?$allocator@D@2@@2@_N_J_KNVallocator@2@Uadl_serializer@json_abi_v3_12_0@nlohmann@@V?$vector@EV?$allocator@E@std@@@2@X@json_abi_v3_12_0@nlohmann@@CAPEAV12@XZ@@std@@QEAA@XZ
	??1?$unique_ptr@V?$map@V?$basic_string@DU?$char_traits@D@std@@V?$allocator@D@2@@std@@V?$basic_json@Vmap@std@@Vvector@2@V?$basic_string@DU?$char_traits@D@std@@V?$allocator@D@2@@2@_N_J_KNVallocator@2@Uadl_serializer@json_abi_v3_12_0@nlohmann@@V?$vector@EV?$allocator@E@std@@@2@X@json_abi_v3_12_0@nlohmann@@U?$less@X@2@V?$allocator@U?$pair@$$CBV?$basic_string@DU?$char_traits@D@std@@V?$allocator@D@2@@std@@V?$basic_json@Vmap@std@@Vvector@2@V?$basic_string@DU?$char_traits@D@std@@V?$allocator@D@2@@2@_N_J_KNVallocator@2@Uadl_serializer@json_abi_v3_12_0@nlohmann@@V?$vector@EV?$allocator@E@std@@@2@X@json_abi_v3_12_0@nlohmann@@@std@@@2@@std@@V<lambda_1>@?1???$create@V?$map@V?$basic_string@DU?$char_traits@D@std@@V?$allocator@D@2@@std@@V?$basic_json@Vmap@std@@Vvector@2@V?$basic_string@DU?$char_traits@D@std@@V?$allocator@D@2@@2@_N_J_KNVallocator@2@Uadl_serializer@json_abi_v3_12_0@nlohmann@@V?$vector@EV?$allocator@E@std@@@2@X@json_abi_v3_12_0@nlohmann@@U?$less@X@2@V?$allocator@U?$pair@$$CBV?$basic_string@DU?$char_traits@D@std@@V?$allocator@D@2@@std@@V?$basic_json@Vmap@std@@Vvector@2@V?$basic_string@DU?$char_traits@D@std@@V?$allocator@D@2@@2@_N_J_KNVallocator@2@Uadl_serializer@json_abi_v3_12_0@nlohmann@@V?$vector@EV?$allocator@E@std@@@2@X@json_abi_v3_12_0@nlohmann@@@std@@@2@@std@@AEBV12@@?$basic_json@Vmap@std@@Vvector@2@V?$basic_string@DU?$char_traits@D@std@@V?$allocator@D@2@@2@_N_J_KNVallocator@2@Uadl_serializer@json_abi_v3_12_0@nlohmann@@V?$vector@EV?$allocator@E@std@@@2@X@json_abi_v3_12_0@nlohmann@@CAPEAV12@AEBV12@@Z@@std@@QEAA@XZ
	??1?$unique_ptr@V?$vector@V?$basic_json@Vmap@std@@Vvector@2@V?$basic_string@DU?$char_traits@D@std@@V?$allocator@D@2@@2@_N_J_KNVallocator@2@Uadl_serializer@json_abi_v3_12_0@nlohmann@@V?$vector@EV?$allocator@E@std@@@2@X@json_abi_v3_12_0@nlohmann@@V?$allocator@V?$basic_json@Vmap@std@@Vvector@2@V?$basic_string@DU?$char_traits@D@std@@V?$allocator@D@2@@2@_N_J_KNVallocator@2@Uadl_serializer@json_abi_v3_12_0@nlohmann@@V?$vector@EV?$allocator@E@std@@@2@X@json_abi_v3_12_0@nlohmann@@@std@@@std@@V<lambda_1>@?1???$create@V?$vector@V?$basic_json@Vmap@std@@Vvector@2@V?$basic_string@DU?$char_traits@D@std@@V?$allocator@D@2@@2@_N_J_KNVallocator@2@Uadl_serializer@json_abi_v3_12_0@nlohmann@@V?$vector@EV?$allocator@E@std@@@2@X@json_abi_v3_12_0@nlohmann@@V?$allocator@V?$basic_json@Vmap@std@@Vvector@2@V?$basic_string@DU?$char_traits@D@std@@V?$allocator@D@2@@2@_N_J_KNVallocator@2@Uadl_serializer@json_abi_v3_12_0@nlohmann@@V?$vector@EV?$allocator@E@std@@@2@X@json_abi_v3_12_0@nlohmann@@@std@@@std@@AEBV12@@?$basic_json@Vmap@std@@Vvector@2@V?$basic_string@DU?$char_traits@D@std@@V?$allocator@D@2@@2@_N_J_KNVallocator@2@Uadl_serializer@json_abi_v3_12_0@nlohmann@@V?$vector@EV?$allocator@E@std@@@2@X@json_abi_v3_12_0@nlohmann@@CAPEAV12@AEBV12@@Z@@std@@QEAA@XZ
	??1?$unique_ptr@V?$vector@V?$basic_json@Vmap@std@@Vvector@2@V?$basic_string@DU?$char_traits@D@std@@V?$allocator@D@2@@2@_N_J_KNVallocator@2@Uadl_serializer@json_abi_v3_12_0@nlohmann@@V?$vector@EV?$allocator@E@std@@@2@X@json_abi_v3_12_0@nlohmann@@V?$allocator@V?$basic_json@Vmap@std@@Vvector@2@V?$basic_string@DU?$char_traits@D@std@@V?$allocator@D@2@@2@_N_J_KNVallocator@2@Uadl_serializer@json_abi_v3_12_0@nlohmann@@V?$vector@EV?$allocator@E@std@@@2@X@json_abi_v3_12_0@nlohmann@@@std@@@std@@V<lambda_1>@?1???$create@V?$vector@V?$basic_json@Vmap@std@@Vvector@2@V?$basic_string@DU?$char_traits@D@std@@V?$allocator@D@2@@2@_N_J_KNVallocator@2@Uadl_serializer@json_abi_v3_12_0@nlohmann@@V?$vector@EV?$allocator@E@std@@@2@X@json_abi_v3_12_0@nlohmann@@V?$allocator@V?$basic_json@Vmap@std@@Vvector@2@V?$basic_string@DU?$char_traits@D@std@@V?$allocator@D@2@@2@_N_J_KNVallocator@2@Uadl_serializer@json_abi_v3_12_0@nlohmann@@V?$vector@EV?$allocator@E@std@@@2@X@json_abi_v3_12_0@nlohmann@@@std@@@std@@PEBV?$json_ref@V?$basic_json@Vmap@std@@Vvector@2@V?$basic_string@DU?$char_traits@D@std@@V?$allocator@D@2@@2@_N_J_KNVallocator@2@Uadl_serializer@json_abi_v3_12_0@nlohmann@@V?$vector@EV?$allocator@E@std@@@2@X@json_abi_v3_12_0@nlohmann@@@detail@json_abi_v3_12_0@nlohmann@@PEBV3456@@?$basic_json@Vmap@std@@Vvector@2@V?$basic_string@DU?$char_traits@D@std@@V?$allocator@D@2@@2@_N_J_KNVallocator@2@Uadl_serializer@json_abi_v3_12_0@nlohmann@@V?$vector@EV?$allocator@E@std@@@2@X@json_abi_v3_12_0@nlohmann@@CAPEAV12@$$QEAPEBV?$json_ref@V?$basic_json@Vmap@std@@Vvector@2@V?$basic_string@DU?$char_traits@D@std@@V?$allocator@D@2@@2@_N_J_KNVallocator@2@Uadl_serializer@json_abi_v3_12_0@nlohmann@@V?$vector@EV?$allocator@E@std@@@2@X@json_abi_v3_12_0@nlohmann@@@detail@56@0@Z@@std@@QEAA@XZ
	??1?$unique_ptr@VBRepAlgoAPI_BooleanOperation@@U?$default_delete@VBRepAlgoAPI_BooleanOperation@@@std@@@std@@QEAA@XZ
	??1?$unique_ptr@V_Facet_base@std@@U?$default_delete@V_Facet_base@std@@@2@@std@@QEAA@XZ
	??1?$unique_ptr@V_PPLTaskChore@_DefaultPPLTaskScheduler@details@Concurrency@@U?$default_delete@V_PPLTaskChore@_DefaultPPLTaskScheduler@details@Concurrency@@@std@@@std@@QEAA@XZ
	??1?$variant@NH_NV?$basic_string@DU?$char_traits@D@std@@V?$allocator@D@2@@std@@Vgp_Vec@@Vgp_Pnt@@Vgp_Dir@@Vgp_Ax1@@Vgp_Ax2@@Vgp_Pln@@UElementRef@oreo@@V?$vector@UElementRef@oreo@@V?$allocator@UElementRef@oreo@@@std@@@2@@std@@QEAA@XZ
	??1?$vec_adj_list_impl@V?$adjacency_list@UvecS@boost@@U12@UundirectedS@2@Uno_property@2@U42@U42@UlistS@2@@boost@@Uconfig@?$adj_list_gen@V?$adjacency_list@UvecS@boost@@U12@UundirectedS@2@Uno_property@2@U42@U42@UlistS@2@@boost@@UvecS@2@U32@UundirectedS@2@Uno_property@2@U52@U52@UlistS@2@@detail@2@U?$undirected_graph_helper@Uconfig@?$adj_list_gen@V?$adjacency_list@UvecS@boost@@U12@UundirectedS@2@Uno_property@2@U42@U42@UlistS@2@@boost@@UvecS@2@U32@UundirectedS@2@Uno_property@2@U52@U52@UlistS@2@@detail@boost@@@2@@boost@@QEAA@XZ
	??1?$vector@EV?$allocator@E@std@@@std@@QEAA@XZ
	??1?$vector@HV?$allocator@H@std@@@std@@QEAA@XZ
	??1?$vector@NV?$allocator@N@std@@@std@@QEAA@XZ
	??1?$vector@PEANV?$allocator@PEAN@std@@@std@@QEAA@XZ
	??1?$vector@PEAV?$basic_json@Vmap@std@@Vvector@2@V?$basic_string@DU?$char_traits@D@std@@V?$allocator@D@2@@2@_N_J_KNVallocator@2@Uadl_serializer@json_abi_v3_12_0@nlohmann@@V?$vector@EV?$allocator@E@std@@@2@X@json_abi_v3_12_0@nlohmann@@V?$allocator@PEAV?$basic_json@Vmap@std@@Vvector@2@V?$basic_string@DU?$char_traits@D@std@@V?$allocator@D@2@@2@_N_J_KNVallocator@2@Uadl_serializer@json_abi_v3_12_0@nlohmann@@V?$vector@EV?$allocator@E@std@@@2@X@json_abi_v3_12_0@nlohmann@@@std@@@std@@QEAA@XZ
	??1?$vector@PEAVConstraint@GCS@@V?$allocator@PEAVConstraint@GCS@@@std@@@std@@QEAA@XZ
	??1?$vector@PEAVSubSystem@GCS@@V?$allocator@PEAVSubSystem@GCS@@@std@@@std@@QEAA@XZ
	??1?$vector@PEBDV?$allocator@PEBD@std@@@std@@QEAA@XZ
	??1?$vector@PEBUFeature@oreo@@V?$allocator@PEBUFeature@oreo@@@std@@@std@@QEAA@XZ
	??1?$vector@PEBVElementMap@Data@@V?$allocator@PEBVElementMap@Data@@@std@@@std@@QEAA@XZ
	??1?$vector@U?$pair@V?$basic_string@DU?$char_traits@D@std@@V?$allocator@D@2@@std@@V12@@std@@V?$allocator@U?$pair@V?$basic_string@DU?$char_traits@D@std@@V?$allocator@D@2@@std@@V12@@std@@@2@@std@@QEAA@XZ
	??1?$vector@U?$pair@VIndexedName@oreo@@VMappedName@2@@std@@V?$allocator@U?$pair@VIndexedName@oreo@@VMappedName@2@@std@@@2@@std@@QEAA@XZ
	??1?$vector@U?$pair@VMappedName@Data@@V?$QList@VStringIDRef@App@@@@@std@@V?$allocator@U?$pair@VMappedName@Data@@V?$QList@VStringIDRef@App@@@@@std@@@2@@std@@QEAA@XZ
	??1?$vector@U?$pair@_KU?$pair@V?$optional@V?$edge_desc_impl@Uundirected_tag@boost@@_K@detail@boost@@@boost@@U?$pair@U?$out_edge_iter@V?$_Vector_iterator@V?$_Vector_val@U?$_Simple_types@V?$stored_edge_iter@_KV?$_List_iterator@V?$_List_val@U?$_List_simple_types@U?$list_edge@_KUno_property@boost@@@boost@@@std@@@std@@@std@@Uno_property@boost@@@detail@boost@@@std@@@std@@@std@@_KV?$edge_desc_impl@Uundirected_tag@boost@@_K@detail@boost@@_J@detail@boost@@U123@@std@@@std@@@std@@V?$allocator@U?$pair@_KU?$pair@V?$optional@V?$edge_desc_impl@Uundirected_tag@boost@@_K@detail@boost@@@boost@@U?$pair@U?$out_edge_iter@V?$_Vector_iterator@V?$_Vector_val@U?$_Simple_types@V?$stored_edge_iter@_KV?$_List_iterator@V?$_List_val@U?$_List_simple_types@U?$list_edge@_KUno_property@boost@@@boost@@@std@@@std@@@std@@Uno_property@boost@@@detail@boost@@@std@@@std@@@std@@_KV?$edge_desc_impl@Uundirected_tag@boost@@_K@detail@boost@@_J@detail@boost@@U123@@std@@@std@@@std@@@2@@std@@QEAA@XZ
	??1?$vector@UChildElementMap@oreo@@V?$allocator@UChildElementMap@oreo@@@std@@@std@@QEAA@XZ
	??1?$vector@UDiagnostic@oreo@@V?$allocator@UDiagnostic@oreo@@@std@@@std@@QEAA@XZ
	??1?$vector@UEdgeSegment@oreo@@V?$allocator@UEdgeSegment@oreo@@@std@@@std@@QEAA@XZ
	??1?$vector@UElementRef@oreo@@V?$allocator@UElementRef@oreo@@@std@@@std@@QEAA@XZ
	??1?$vector@UFaceGroup@oreo@@V?$allocator@UFaceGroup@oreo@@@std@@@std@@QEAA@XZ
	??1?$vector@UFaceMeshDiagnostic@oreo@@V?$allocator@UFaceMeshDiagnostic@oreo@@@std@@@std@@QEAA@XZ
	??1?$vector@UFeature@oreo@@V?$allocator@UFeature@oreo@@@std@@@std@@QEAA@XZ
	??1?$vector@UHistoryTraceItem@oreo@@V?$allocator@UHistoryTraceItem@oreo@@@std@@@std@@QEAA@XZ
	??1?$vector@UMappedChildElements@ElementMap@Data@@V?$allocator@UMappedChildElements@ElementMap@Data@@@std@@@std@@QEAA@XZ
	??1?$vector@UMappedElement@Data@@V?$allocator@UMappedElement@Data@@@std@@@std@@QEAA@XZ
	??1?$vector@UMigration@oreo@@V?$allocator@UMigration@oreo@@@std@@@std@@QEAA@XZ
	??1?$vector@UNamedEdge@oreo@@V?$allocator@UNamedEdge@oreo@@@std@@@std@@QEAA@XZ
	??1?$vector@UNamedFace@oreo@@V?$allocator@UNamedFace@oreo@@@std@@@std@@QEAA@XZ
	??1?$vector@USketchArc@oreo@@V?$allocator@USketchArc@oreo@@@std@@@std@@QEAA@XZ
	??1?$vector@USketchCircle@oreo@@V?$allocator@USketchCircle@oreo@@@std@@@std@@QEAA@XZ
	??1?$vector@USketchConstraint@oreo@@V?$allocator@USketchConstraint@oreo@@@std@@@std@@QEAA@XZ
	??1?$vector@UStepShapeMetadata@oreo@@V?$allocator@UStepShapeMetadata@oreo@@@std@@@std@@QEAA@XZ
	??1?$vector@Ustored_vertex@config@?$adj_list_gen@V?$adjacency_list@UvecS@boost@@U12@UundirectedS@2@Uno_property@2@U42@U42@UlistS@2@@boost@@UvecS@2@U32@UundirectedS@2@Uno_property@2@U52@U52@UlistS@2@@detail@boost@@V?$allocator@Ustored_vertex@config@?$adj_list_gen@V?$adjacency_list@UvecS@boost@@U12@UundirectedS@2@Uno_property@2@U42@U42@UlistS@2@@boost@@UvecS@2@U32@UundirectedS@2@Uno_property@2@U52@U52@UlistS@2@@detail@boost@@@std@@@std@@QEAA@XZ
	??1?$vector@V?$basic_json@Vmap@std@@Vvector@2@V?$basic_string@DU?$char_traits@D@std@@V?$allocator@D@2@@2@_N_J_KNVallocator@2@Uadl_serializer@json_abi_v3_12_0@nlohmann@@V?$vector@EV?$allocator@E@std@@@2@X@json_abi_v3_12_0@nlohmann@@V?$allocator@V?$basic_json@Vmap@std@@Vvector@2@V?$basic_string@DU?$char_traits@D@std@@V?$allocator@D@2@@2@_N_J_KNVallocator@2@Uadl_serializer@json_abi_v3_12_0@nlohmann@@V?$vector@EV?$allocator@E@std@@@2@X@json_abi_v3_12_0@nlohmann@@@std@@@std@@QEAA@XZ
	??1?$vector@V?$basic_string@DU?$char_traits@D@std@@V?$allocator@D@2@@std@@V?$allocator@V?$basic_string@DU?$char_traits@D@std@@V?$allocator@D@2@@std@@@2@@std@@QEAA@XZ
	??1?$vector@V?$map@PEANPEANU?$less@PEAN@std@@V?$allocator@U?$pair@QEANPEAN@std@@@2@@std@@V?$allocator@V?$map@PEANPEANU?$less@PEAN@std@@V?$allocator@U?$pair@QEANPEAN@std@@@2@@std@@@2@@std@@QEAA@XZ
	??1?$vector@V?$shared_ptr@VElementMap@Data@@@std@@V?$allocator@V?$shared_ptr@VElementMap@Data@@@std@@@2@@std@@QEAA@XZ
	??1?$vector@V?$unique_ptr@NU?$default_delete@N@std@@@std@@V?$allocator@V?$unique_ptr@NU?$default_delete@N@std@@@std@@@2@@std@@QEAA@XZ
	??1?$vector@V?$vector@PEANV?$allocator@PEAN@std@@@std@@V?$allocator@V?$vector@PEANV?$allocator@PEAN@std@@@std@@@2@@std@@QEAA@XZ
	??1?$vector@V?$vector@PEAVConstraint@GCS@@V?$allocator@PEAVConstraint@GCS@@@std@@@std@@V?$allocator@V?$vector@PEAVConstraint@GCS@@V?$allocator@PEAVConstraint@GCS@@@std@@@std@@@2@@std@@QEAA@XZ
	??1?$vector@VArc@GCS@@V?$allocator@VArc@GCS@@@std@@@std@@QEAA@XZ
	??1?$vector@VCircle@GCS@@V?$allocator@VCircle@GCS@@@std@@@std@@QEAA@XZ
	??1?$vector@VLine@GCS@@V?$allocator@VLine@GCS@@@std@@@std@@QEAA@XZ
	??1?$vector@VMappedName@Data@@V?$allocator@VMappedName@Data@@@std@@@std@@QEAA@XZ
	??1?$vector@VNamedShape@oreo@@V?$allocator@VNamedShape@oreo@@@std@@@std@@QEAA@XZ
	??1?$vector@VPoint@GCS@@V?$allocator@VPoint@GCS@@@std@@@std@@QEAA@XZ
	??1?$vector@VPoly_Triangle@@V?$allocator@VPoly_Triangle@@@std@@@std@@QEAA@XZ
	??1?$vector@VQByteArray@@V?$allocator@VQByteArray@@@std@@@std@@QEAA@XZ
	??1?$vector@VTopoDS_Shape@@V?$allocator@VTopoDS_Shape@@@std@@@std@@QEAA@XZ
	??1?$vector@VTopoShapeAdapter@oreo@@V?$allocator@VTopoShapeAdapter@oreo@@@std@@@std@@QEAA@XZ
	??1?$vector@Vgp_Pnt@@V?$allocator@Vgp_Pnt@@@std@@@std@@QEAA@XZ
	??1?$vector@Vgp_Vec@@V?$allocator@Vgp_Vec@@@std@@@std@@QEAA@XZ
	??1?$vector@_NV?$allocator@_N@std@@@std@@QEAA@XZ
	??1?$weak_ptr@U_Task_impl_base@details@Concurrency@@@std@@QEAA@XZ
	??1?$wrapexcept@Vbad_function_call@boost@@@boost@@UEAA@XZ
	??1?$wrapexcept@Vfailure@ios_base@std@@@boost@@UEAA@XZ
	??1Arc@GCS@@UEAA@XZ
	??1ArcOfEllipse@GCS@@UEAA@XZ
	??1ArcOfHyperbola@GCS@@UEAA@XZ
	??1ArcOfParabola@GCS@@UEAA@XZ
	??1BRepAdaptor_Surface@@UEAA@XZ
	??1BRepAlgoAPI_Splitter@@UEAA@XZ
	??1BRepAlgo_Image@@QEAA@XZ
	??1BRepBuilderAPI_MakeEdge@@UEAA@XZ
	??1BRepBuilderAPI_MakeFace@@UEAA@XZ
	??1BRepBuilderAPI_MakeShape@@UEAA@XZ
	??1BRepBuilderAPI_MakeWire@@UEAA@XZ
	??1BRepBuilderAPI_Transform@@UEAA@XZ
	??1BRepCheck_Analyzer@@QEAA@XZ
	??1BRepExtrema_DistShapeShape@@QEAA@XZ
	??1BRepFill_OffsetWire@@QEAA@XZ
	??1BRepFill_Pipe@@QEAA@XZ
	??1BRepFilletAPI_LocalOperation@@UEAA@XZ
	??1BRepFilletAPI_MakeChamfer@@UEAA@XZ
	??1BRepFilletAPI_MakeFillet2d@@UEAA@XZ
	??1BRepFilletAPI_MakeFillet@@UEAA@XZ
	??1BRepLib_MakeShape@@UEAA@XZ
	??1BRepOffsetAPI_DraftAngle@@UEAA@XZ
	??1BRepOffsetAPI_MakeOffset@@UEAA@XZ
	??1BRepOffsetAPI_MakeOffsetShape@@UEAA@XZ
	??1BRepOffsetAPI_MakePipe@@UEAA@XZ
	??1BRepOffsetAPI_MakeThickSolid@@UEAA@XZ
	??1BRepOffsetAPI_ThruSections@@UEAA@XZ
	??1BRepOffset_Analyse@@QEAA@XZ
	??1BRepOffset_MakeOffset@@QEAA@XZ
	??1BRepPrimAPI_MakeBox@@UEAA@XZ
	??1BRepPrimAPI_MakeCone@@UEAA@XZ
	??1BRepPrimAPI_MakeCylinder@@UEAA@XZ
	??1BRepPrimAPI_MakePrism@@UEAA@XZ
	??1BRepPrimAPI_MakeRevol@@UEAA@XZ
	??1BRepPrimAPI_MakeSphere@@UEAA@XZ
	??1BRepPrimAPI_MakeTorus@@UEAA@XZ
	??1BRepPrimAPI_MakeWedge@@UEAA@XZ
	??1BRepPrim_GWedge@@QEAA@XZ
	??1BRepPrim_Revolution@@UEAA@XZ
	??1BRepTools_Modifier@@QEAA@XZ
	??1BSpline@GCS@@UEAA@XZ
	??1BaseClass@Base@@UEAA@XZ
	??1ByteArray@Data@@QEAA@XZ
	??1CachedFace@MeshCache@oreo@@QEAA@XZ
	??1ChFi2d_Builder@@QEAA@XZ
	??1ChildElementMap@oreo@@QEAA@XZ
	??1Circle@GCS@@UEAA@XZ
	??1Constraint@GCS@@UEAA@XZ
	??1ConstraintAngleViaPoint@GCS@@UEAA@XZ
	??1ConstraintAngleViaPointAndParam@GCS@@UEAA@XZ
	??1ConstraintAngleViaPointAndTwoParams@GCS@@UEAA@XZ
	??1ConstraintAngleViaTwoPoints@GCS@@UEAA@XZ
	??1ConstraintCurveValue@GCS@@UEAA@XZ
	??1ConstraintPointOnParabola@GCS@@UEAA@XZ
	??1ConstraintSnell@GCS@@UEAA@XZ
	??1Curve@GCS@@UEAA@XZ
	??1Diagnostic@oreo@@QEAA@XZ
	??1DiagnosticCollector@oreo@@QEAA@XZ
	??1EdgeSegment@oreo@@QEAA@XZ
	??1ElementMap@Data@@QEAA@XZ
	??1ElementRef@oreo@@QEAA@XZ
	??1Ellipse@GCS@@UEAA@XZ
	??1Extrema_ExtPS@@QEAA@XZ
	??1FaceGroup@oreo@@QEAA@XZ
	??1FaceMeshDiagnostic@oreo@@QEAA@XZ
	??1Feature@oreo@@QEAA@XZ
	??1FeatureTree@oreo@@QEAA@XZ
	??1GC_MakeArcOfCircle@@QEAA@XZ
	??1GeomAPI_ProjectPointOnSurf@@QEAA@XZ
	??1GeomAdaptor_Surface@@UEAA@XZ
	??1GeomLProp_SLProps@@QEAA@XZ
	??1Handled@Base@@UEAA@XZ
	??1HeaderInfo@SchemaRegistry@oreo@@QEAA@XZ
	??1HistoryItem@Data@@QEAA@XZ
	??1HistoryTraceItem@oreo@@QEAA@XZ
	??1Hyperbola@GCS@@UEAA@XZ
	??1IOFormat@Eigen@@QEAA@XZ
	??1IndexedName@oreo@@QEAA@XZ
	??1KernelConfig@oreo@@QEAA@XZ
	??1Line@GCS@@UEAA@XZ
	??1MAT2d_Tool2d@@QEAA@XZ
	??1MajorRadiusConic@GCS@@UEAA@XZ
	??1MappedChildElements@ElementMap@Data@@QEAA@XZ
	??1MappedElement@Data@@QEAA@XZ
	??1MappedName@Data@@QEAA@XZ
	??1MappedName@oreo@@QEAA@XZ
	??1MeshResult@oreo@@QEAA@XZ
	??1Message_ProgressRange@@QEAA@XZ
	??1Migration@oreo@@QEAA@XZ
	??1NCollection_BaseList@@UEAA@XZ
	??1NCollection_BaseMap@@MEAA@XZ
	??1NCollection_BaseSequence@@MEAA@XZ
	??1NameKey@oreo@@QEAA@XZ
	??1NamedEdge@oreo@@QEAA@XZ
	??1NamedFace@oreo@@QEAA@XZ
	??1NamedShape@oreo@@QEAA@XZ
	??1OcctStaticGuard@oreo@@QEAA@XZ
	??1Parabola@GCS@@UEAA@XZ
	??1ResolvedRef@oreo@@QEAA@XZ
	??1STEPCAFControl_Writer@@QEAA@XZ
	??1STEPControl_Reader@@UEAA@XZ
	??1STEPControl_Writer@@QEAA@XZ
	??1SchemaRegistry@oreo@@QEAA@XZ
	??1Sentry@Standard_Mutex@@QEAA@XZ
	??1ShapeAncestryCache@oreo@@QEAA@XZ
	??1ShapeMapper@oreo@@UEAA@XZ
	??1ShapeUpgrade_ShellSewing@@QEAA@XZ
	??1SolveResult@oreo@@QEAA@XZ
	??1SolverReportingManager@GCS@@AEAA@XZ
	??1Standard_ConstructionError@@UEAA@XZ
	??1Standard_DomainError@@UEAA@XZ
	??1Standard_OutOfRange@@UEAA@XZ
	??1Standard_RangeError@@UEAA@XZ
	??1Standard_Transient@@UEAA@XZ
	??1Standard_TypeMismatch@@UEAA@XZ
	??1StepImportResult@oreo@@QEAA@XZ
	??1StepShapeMetadata@oreo@@QEAA@XZ
	??1StringHasher@App@@UEAA@XZ
	??1StringID@App@@UEAA@XZ
	??1StringIDRef@App@@QEAA@XZ
	??1SubSystem@GCS@@QEAA@XZ
	??1System@GCS@@QEAA@XZ
	??1TopLoc_Location@@QEAA@XZ
	??1TopoDS_Compound@@QEAA@XZ
	??1TopoDS_Edge@@QEAA@XZ
	??1TopoDS_Face@@QEAA@XZ
	??1TopoDS_Shape@@QEAA@XZ
	??1TopoDS_TShape@@UEAA@XZ
	??1TopoDS_Vertex@@QEAA@XZ
	??1TopoDS_Wire@@QEAA@XZ
	??1TopoShapeAdapter@oreo@@QEAA@XZ
	??1ValueError@Base@@UEAA@XZ
	??1XSControl_Reader@@UEAA@XZ
	??1_CancellationTokenRegistration@details@Concurrency@@MEAA@XZ
	??1_ContextCallback@details@Concurrency@@QEAA@XZ
	??1_ExceptionHolder@details@Concurrency@@QEAA@XZ
	??1_FC_StreamThrow@@QEAA@XZ
	??1_Guard_type@?1???$_Global_new@V?$_Func_impl_no_alloc@V<lambda_1>@?1??_MakeVoidToUnitFunc@details@Concurrency@@YA?AV?$function@$$A6AEXZ@std@@AEBV?$function@$$A6AXXZ@6@@Z@E$$V@std@@AEBV<lambda_1>@?1??_MakeVoidToUnitFunc@details@Concurrency@@YA?AV?$function@$$A6AEXZ@2@AEBV?$function@$$A6AXXZ@2@@Z@@std@@YAPEAV?$_Func_impl_no_alloc@V<lambda_1>@?1??_MakeVoidToUnitFunc@details@Concurrency@@YA?AV?$function@$$A6AEXZ@std@@AEBV?$function@$$A6AXXZ@6@@Z@E$$V@1@AEBV<lambda_1>@?1??_MakeVoidToUnitFunc@details@Concurrency@@YA?AV?$function@$$A6AEXZ@1@AEBV?$function@$$A6AXXZ@1@@Z@@Z@QEAA@XZ
	??1_Guard_type@?1???$_Global_new@V?$_Func_impl_no_alloc@V<lambda_1>@?1??_MakeVoidToUnitFunc@details@Concurrency@@YA?AV?$function@$$A6AEXZ@std@@AEBV?$function@$$A6AXXZ@6@@Z@E$$V@std@@V<lambda_1>@?1??_MakeVoidToUnitFunc@details@Concurrency@@YA?AV?$function@$$A6AEXZ@2@AEBV?$function@$$A6AXXZ@2@@Z@@std@@YAPEAV?$_Func_impl_no_alloc@V<lambda_1>@?1??_MakeVoidToUnitFunc@details@Concurrency@@YA?AV?$function@$$A6AEXZ@std@@AEBV?$function@$$A6AXXZ@6@@Z@E$$V@1@$$QEAV<lambda_1>@?1??_MakeVoidToUnitFunc@details@Concurrency@@YA?AV?$function@$$A6AEXZ@1@AEBV?$function@$$A6AXXZ@1@@Z@@Z@QEAA@XZ
	??1_Guard_type@?1???$_Global_new@V?$_Func_impl_no_alloc@V?$_Fake_no_copy_callable_adapter@P8System@GCS@@EAAXAEBV?$Matrix@N$0?0$0?0$0A@$0?0$0?0@Eigen@@AEBV?$map@HHU?$less@H@std@@V?$allocator@U?$pair@$$CBHH@std@@@2@@std@@AEBV?$vector@PEANV?$allocator@PEAN@std@@@6@_N@ZPEAV12@AEAV34@AEAV56@AEAV76@_N@std@@X$$V@std@@AEBV?$_Fake_no_copy_callable_adapter@P8System@GCS@@EAAXAEBV?$Matrix@N$0?0$0?0$0A@$0?0$0?0@Eigen@@AEBV?$map@HHU?$less@H@std@@V?$allocator@U?$pair@$$CBHH@std@@@2@@std@@AEBV?$vector@PEANV?$allocator@PEAN@std@@@6@_N@ZPEAV12@AEAV34@AEAV56@AEAV76@_N@2@@std@@YAPEAV?$_Func_impl_no_alloc@V?$_Fake_no_copy_callable_adapter@P8System@GCS@@EAAXAEBV?$Matrix@N$0?0$0?0$0A@$0?0$0?0@Eigen@@AEBV?$map@HHU?$less@H@std@@V?$allocator@U?$pair@$$CBHH@std@@@2@@std@@AEBV?$vector@PEANV?$allocator@PEAN@std@@@6@_N@ZPEAV12@AEAV34@AEAV56@AEAV76@_N@std@@X$$V@1@AEBV?$_Fake_no_copy_callable_adapter@P8System@GCS@@EAAXAEBV?$Matrix@N$0?0$0?0$0A@$0?0$0?0@Eigen@@AEBV?$map@HHU?$less@H@std@@V?$allocator@U?$pair@$$CBHH@std@@@2@@std@@AEBV?$vector@PEANV?$allocator@PEAN@std@@@6@_N@ZPEAV12@AEAV34@AEAV56@AEAV76@_N@1@@Z@QEAA@XZ
	??1_Guard_type@?1???$_Global_new@V?$_Func_impl_no_alloc@V?$_Fake_no_copy_callable_adapter@P8System@GCS@@EAAXAEBV?$Matrix@N$0?0$0?0$0A@$0?0$0?0@Eigen@@AEBV?$map@HHU?$less@H@std@@V?$allocator@U?$pair@$$CBHH@std@@@2@@std@@AEBV?$vector@PEANV?$allocator@PEAN@std@@@6@_N@ZPEAV12@AEAV34@AEAV56@AEAV76@_N@std@@X$$V@std@@V?$_Fake_no_copy_callable_adapter@P8System@GCS@@EAAXAEBV?$Matrix@N$0?0$0?0$0A@$0?0$0?0@Eigen@@AEBV?$map@HHU?$less@H@std@@V?$allocator@U?$pair@$$CBHH@std@@@2@@std@@AEBV?$vector@PEANV?$allocator@PEAN@std@@@6@_N@ZPEAV12@AEAV34@AEAV56@AEAV76@_N@2@@std@@YAPEAV?$_Func_impl_no_alloc@V?$_Fake_no_copy_callable_adapter@P8System@GCS@@EAAXAEBV?$Matrix@N$0?0$0?0$0A@$0?0$0?0@Eigen@@AEBV?$map@HHU?$less@H@std@@V?$allocator@U?$pair@$$CBHH@std@@@2@@std@@AEBV?$vector@PEANV?$allocator@PEAN@std@@@6@_N@ZPEAV12@AEAV34@AEAV56@AEAV76@_N@std@@X$$V@1@$$QEAV?$_Fake_no_copy_callable_adapter@P8System@GCS@@EAAXAEBV?$Matrix@N$0?0$0?0$0A@$0?0$0?0@Eigen@@AEBV?$map@HHU?$less@H@std@@V?$allocator@U?$pair@$$CBHH@std@@@2@@std@@AEBV?$vector@PEANV?$allocator@PEAN@std@@@6@_N@ZPEAV12@AEAV34@AEAV56@AEAV76@_N@1@@Z@QEAA@XZ
	??1_Holder@_TaskProcThunk@details@Concurrency@@QEAA@XZ
	??1_Init_once_completer@std@@QEAA@XZ
	??1_Reallocation_guard@?$vector@U?$pair@V?$basic_string@DU?$char_traits@D@std@@V?$allocator@D@2@@std@@V12@@std@@V?$allocator@U?$pair@V?$basic_string@DU?$char_traits@D@std@@V?$allocator@D@2@@std@@V12@@std@@@2@@std@@QEAA@XZ
	??1_Reallocation_guard@?$vector@U?$pair@VIndexedName@oreo@@VMappedName@2@@std@@V?$allocator@U?$pair@VIndexedName@oreo@@VMappedName@2@@std@@@2@@std@@QEAA@XZ
	??1_Reallocation_guard@?$vector@U?$pair@VMappedName@Data@@V?$QList@VStringIDRef@App@@@@@std@@V?$allocator@U?$pair@VMappedName@Data@@V?$QList@VStringIDRef@App@@@@@std@@@2@@std@@QEAA@XZ
	??1_Reallocation_guard@?$vector@UChildElementMap@oreo@@V?$allocator@UChildElementMap@oreo@@@std@@@std@@QEAA@XZ
	??1_Reallocation_guard@?$vector@UDiagnostic@oreo@@V?$allocator@UDiagnostic@oreo@@@std@@@std@@QEAA@XZ
	??1_Reallocation_guard@?$vector@UElementRef@oreo@@V?$allocator@UElementRef@oreo@@@std@@@std@@QEAA@XZ
	??1_Reallocation_guard@?$vector@UFaceGroup@oreo@@V?$allocator@UFaceGroup@oreo@@@std@@@std@@QEAA@XZ
	??1_Reallocation_guard@?$vector@UFaceMeshDiagnostic@oreo@@V?$allocator@UFaceMeshDiagnostic@oreo@@@std@@@std@@QEAA@XZ
	??1_Reallocation_guard@?$vector@UFeature@oreo@@V?$allocator@UFeature@oreo@@@std@@@std@@QEAA@XZ
	??1_Reallocation_guard@?$vector@UHistoryTraceItem@oreo@@V?$allocator@UHistoryTraceItem@oreo@@@std@@@std@@QEAA@XZ
	??1_Reallocation_guard@?$vector@UMappedChildElements@ElementMap@Data@@V?$allocator@UMappedChildElements@ElementMap@Data@@@std@@@std@@QEAA@XZ
	??1_Reallocation_guard@?$vector@UMappedElement@Data@@V?$allocator@UMappedElement@Data@@@std@@@std@@QEAA@XZ
	??1_Reallocation_guard@?$vector@V?$basic_json@Vmap@std@@Vvector@2@V?$basic_string@DU?$char_traits@D@std@@V?$allocator@D@2@@2@_N_J_KNVallocator@2@Uadl_serializer@json_abi_v3_12_0@nlohmann@@V?$vector@EV?$allocator@E@std@@@2@X@json_abi_v3_12_0@nlohmann@@V?$allocator@V?$basic_json@Vmap@std@@Vvector@2@V?$basic_string@DU?$char_traits@D@std@@V?$allocator@D@2@@2@_N_J_KNVallocator@2@Uadl_serializer@json_abi_v3_12_0@nlohmann@@V?$vector@EV?$allocator@E@std@@@2@X@json_abi_v3_12_0@nlohmann@@@std@@@std@@QEAA@XZ
	??1_Reallocation_guard@?$vector@V?$map@PEANPEANU?$less@PEAN@std@@V?$allocator@U?$pair@QEANPEAN@std@@@2@@std@@V?$allocator@V?$map@PEANPEANU?$less@PEAN@std@@V?$allocator@U?$pair@QEANPEAN@std@@@2@@std@@@2@@std@@QEAA@XZ
	??1_Reallocation_guard@?$vector@V?$vector@PEAVConstraint@GCS@@V?$allocator@PEAVConstraint@GCS@@@std@@@std@@V?$allocator@V?$vector@PEAVConstraint@GCS@@V?$allocator@PEAVConstraint@GCS@@@std@@@std@@@2@@std@@QEAA@XZ
	??1_Reallocation_guard@?$vector@VMappedName@Data@@V?$allocator@VMappedName@Data@@@std@@@std@@QEAA@XZ
	??1_Reallocation_guard@?$vector@VNamedShape@oreo@@V?$allocator@VNamedShape@oreo@@@std@@@std@@QEAA@XZ
	??1_RefCounter@details@Concurrency@@UEAA@XZ
	??1_Ref_count_base@std@@UEAA@XZ
	??1_Sentry_base@?$basic_istream@DU?$char_traits@D@std@@@std@@QEAA@XZ
	??1_Sentry_base@?$basic_ostream@DU?$char_traits@D@std@@@std@@QEAA@XZ
	??1_System_error_message@std@@QEAA@XZ
	??1_TaskCreationCallstack@details@Concurrency@@QEAA@XZ
	??1_TaskProcHandle@details@Concurrency@@UEAA@XZ
	??1_TaskWorkItemRAIILogger@details@Concurrency@@QEAA@XZ
	??1_Task_impl_base@details@Concurrency@@UEAA@XZ
	??1_Vaporization_guard@?$vector@EV?$allocator@E@std@@@std@@QEAA@XZ
	??1_Vaporization_guard@?$vector@MV?$allocator@M@std@@@std@@QEAA@XZ
	??1_Vaporization_guard@?$vector@NV?$allocator@N@std@@@std@@QEAA@XZ
	??1_Vaporization_guard@?$vector@PEANV?$allocator@PEAN@std@@@std@@QEAA@XZ
	??1_Vaporization_guard@?$vector@UMappedChildElements@ElementMap@Data@@V?$allocator@UMappedChildElements@ElementMap@Data@@@std@@@std@@QEAA@XZ
	??1bad_alloc@std@@UEAA@XZ
	??1bad_array_new_length@std@@UEAA@XZ
	??1bad_cast@std@@UEAA@XZ
	??1bad_function_call@boost@@UEAA@XZ
	??1bad_variant_access@std@@UEAA@XZ
	??1bad_weak_ptr@std@@UEAA@XZ
	??1cancellation_token@Concurrency@@QEAA@XZ
	??1clone_base@exception_detail@boost@@UEAA@XZ
	??1data@?$basic_json@Vmap@std@@Vvector@2@V?$basic_string@DU?$char_traits@D@std@@V?$allocator@D@2@@2@_N_J_KNVallocator@2@Uadl_serializer@json_abi_v3_12_0@nlohmann@@V?$vector@EV?$allocator@E@std@@@2@X@json_abi_v3_12_0@nlohmann@@QEAA@XZ
	??1deleter@?$wrapexcept@Vbad_function_call@boost@@@boost@@QEAA@XZ
	??1deleter@?$wrapexcept@Vfailure@ios_base@std@@@boost@@QEAA@XZ
	??1error_category@std@@UEAA@XZ
	??1exception@boost@@MEAA@XZ
	??1exception@std@@UEAA@XZ
	??1exception_ptr@std@@QEAA@XZ
	??1failure@ios_base@std@@UEAA@XZ
	??1filesystem_error@filesystem@std@@UEAA@XZ
	??1future_error@std@@UEAA@XZ
	??1invalid_argument@std@@UEAA@XZ
	??1invalid_iterator@detail@json_abi_v3_12_0@nlohmann@@UEAA@XZ
	??1invalid_operation@Concurrency@@UEAA@XZ
	??1ios_flags_saver@io@boost@@QEAA@XZ
	??1locale@std@@QEAA@XZ
	??1other_error@detail@json_abi_v3_12_0@nlohmann@@UEAA@XZ
	??1out_of_range@detail@json_abi_v3_12_0@nlohmann@@UEAA@XZ
	??1overflow_error@std@@UEAA@XZ
	??1parse_error@detail@json_abi_v3_12_0@nlohmann@@UEAA@XZ
	??1path@filesystem@std@@QEAA@XZ
	??1runtime_error@std@@UEAA@XZ
	??1scheduler_ptr@Concurrency@@QEAA@XZ
	??1sentry@?$basic_istream@DU?$char_traits@D@std@@@std@@QEAA@XZ
	??1sentry@?$basic_ostream@DU?$char_traits@D@std@@@std@@QEAA@XZ
	??1sp_counted_base@detail@boost@@UEAA@XZ
	??1system_error@std@@UEAA@XZ
	??1task_options@Concurrency@@QEAA@XZ
	??1type_error@detail@json_abi_v3_12_0@nlohmann@@UEAA@XZ
	??2@YAPEAX_KPEAX@Z
	??3BRepAlgoAPI_Common@@SAXPEAX@Z
	??3BRepAlgoAPI_Cut@@SAXPEAX@Z
	??3BRepAlgoAPI_Fuse@@SAXPEAX@Z
	??3Standard_Transient@@SAXPEAX@Z
	??4?$NCollection_List@VTopoDS_Shape@@@@QEAAAEAV0@AEBV0@@Z
	??4?$QList@VStringIDRef@App@@@@QEAAAEAV0@$$QEAV0@@Z
	??4?$QList@VStringIDRef@App@@@@QEAAAEAV0@AEBV0@@Z
	??4?$SparseMatrix@N$0A@H@Eigen@@QEAAAEAV01@AEBV01@@Z
	??4?$basic_json@Vmap@std@@Vvector@2@V?$basic_string@DU?$char_traits@D@std@@V?$allocator@D@2@@2@_N_J_KNVallocator@2@Uadl_serializer@json_abi_v3_12_0@nlohmann@@V?$vector@EV?$allocator@E@std@@@2@X@json_abi_v3_12_0@nlohmann@@QEAAAEAV012@V012@@Z
	??4?$basic_string@DU?$char_traits@D@std@@V?$allocator@D@2@@std@@QEAAAEAV01@$$QEAV01@@Z
	??4?$basic_string@DU?$char_traits@D@std@@V?$allocator@D@2@@std@@QEAAAEAV01@QEBD@Z
	??4?$enable_shared_from_this@VElementMap@Data@@@std@@IEAAAEAV01@AEBV01@@Z
	??4?$handle@VNCollection_BaseAllocator@@@opencascade@@QEAAAEAV01@AEBV01@@Z
	??4?$map@PEANPEANU?$less@PEAN@std@@V?$allocator@U?$pair@QEANPEAN@std@@@2@@std@@QEAAAEAV01@AEBV01@@Z
	??4?$shared_ptr@U?$_Task_impl@E@details@Concurrency@@@std@@QEAAAEAV01@$$QEAV01@@Z
	??4?$shared_ptr@VElementMap@Data@@@std@@QEAAAEAV01@$$QEAV01@@Z
	??4?$shared_ptr@VElementMap@Data@@@std@@QEAAAEAV01@AEBV01@@Z
	??4?$shared_ptr@VElementMap@oreo@@@std@@QEAAAEAV01@$$QEAV01@@Z
	??4?$vector@EV?$allocator@E@std@@@std@@QEAAAEAV01@$$QEAV01@@Z
	??4?$vector@HV?$allocator@H@std@@@std@@QEAAAEAV01@$$QEAV01@@Z
	??4?$vector@IV?$allocator@I@std@@@std@@QEAAAEAV01@$$QEAV01@@Z
	??4?$vector@MV?$allocator@M@std@@@std@@QEAAAEAV01@$$QEAV01@@Z
	??4Arc@GCS@@QEAAAEAV01@AEBV01@@Z
	??4ArcOfEllipse@GCS@@QEAAAEAV01@AEBV01@@Z
	??4ArcOfHyperbola@GCS@@QEAAAEAV01@AEBV01@@Z
	??4ArcOfParabola@GCS@@QEAAAEAV01@AEBV01@@Z
	??4BSpline@GCS@@QEAAAEAV01@AEBV01@@Z
	??4CachedFace@MeshCache@oreo@@QEAAAEAU012@$$QEAU012@@Z
	??4CachedFace@MeshCache@oreo@@QEAAAEAU012@AEBU012@@Z
	??4Circle@GCS@@QEAAAEAV01@AEBV01@@Z
	??4Constraint@GCS@@QEAAAEAV01@AEBV01@@Z
	??4Curve@GCS@@QEAAAEAV01@AEBV01@@Z
	??4DeriVector2@GCS@@QEAAAEAV01@$$QEAV01@@Z
	??4DeriVector2@GCS@@QEAAAEAV01@AEBV01@@Z
	??4ElementMap@Data@@QEAAAEAV01@$$QEAV01@@Z
	??4ElementMap@Data@@QEAAAEAV01@AEBV01@@Z
	??4ElementNameComparator@Data@@QEAAAEAU01@$$QEAU01@@Z
	??4ElementNameComparator@Data@@QEAAAEAU01@AEBU01@@Z
	??4ElementRef@oreo@@QEAAAEAU01@AEBU01@@Z
	??4Ellipse@GCS@@QEAAAEAV01@AEBV01@@Z
	??4Feature@oreo@@QEAAAEAU01@$$QEAU01@@Z
	??4HistoryItem@Data@@QEAAAEAU01@$$QEAU01@@Z
	??4HistoryItem@Data@@QEAAAEAU01@AEBU01@@Z
	??4Hyperbola@GCS@@QEAAAEAV01@AEBV01@@Z
	??4IndexedName@Data@@QEAAAEAV01@$$QEAV01@@Z
	??4IndexedName@Data@@QEAAAEAV01@AEBV01@@Z
	??4Line@GCS@@QEAAAEAV01@AEBV01@@Z
	??4MajorRadiusConic@GCS@@QEAAAEAV01@AEBV01@@Z
	??4MappedChildElements@ElementMap@Data@@QEAAAEAU012@$$QEAU012@@Z
	??4MappedChildElements@ElementMap@Data@@QEAAAEAU012@AEBU012@@Z
	??4MappedElement@Data@@QEAAAEAU01@$$QEAU01@@Z
	??4MappedElement@Data@@QEAAAEAU01@AEBU01@@Z
	??4MappedName@Data@@QEAAAEAV01@$$QEAV01@@Z
	??4MappedName@Data@@QEAAAEAV01@AEBV01@@Z
	??4MappedName@Data@@QEAAAEAV01@AEBV?$basic_string@DU?$char_traits@D@std@@V?$allocator@D@2@@std@@@Z
	??4MappedName@Data@@QEAAAEAV01@PEBD@Z
	??4MeshResult@oreo@@QEAAAEAU01@$$QEAU01@@Z
	??4NamedShape@oreo@@QEAAAEAV01@$$QEAV01@@Z
	??4NamedShape@oreo@@QEAAAEAV01@AEBV01@@Z
	??4Parabola@GCS@@QEAAAEAV01@AEBV01@@Z
	??4Point@GCS@@QEAAAEAV01@$$QEAV01@@Z
	??4Point@GCS@@QEAAAEAV01@AEBV01@@Z
	??4StepShapeMetadata@oreo@@QEAAAEAU01@$$QEAU01@@Z
	??4StringIDRef@App@@QEAAAEAV01@$$QEAV01@@Z
	??4System@GCS@@QEAAAEAV01@AEBV01@@Z
	??4TopoDS_Shape@@QEAAAEAV0@AEBV0@@Z
	??6Data@@YAAEAV?$basic_ostream@DU?$char_traits@D@std@@@std@@AEAV12@AEBVMappedName@0@@Z
	??8@YA_NAEBVQByteArray@@0@Z
	??8IndexedName@Data@@QEBA_NAEBV01@@Z
	??8MappedElement@Data@@QEBA_NAEBU01@@Z
	??8MappedName@Data@@QEBA_NAEBV01@@Z
	??9IndexedName@Data@@QEBA_NAEBV01@@Z
	??9MappedElement@Data@@QEBA_NAEBU01@@Z
	??9MappedName@Data@@QEBA_NAEBV01@@Z
	??@868f04cdec8a71a2d528b05252229df7@
	??A?$QHash@VQByteArray@@UChildMapInfo@ElementMap@Data@@@@QEAAAEAUChildMapInfo@ElementMap@Data@@AEBVQByteArray@@@Z
	??A?$basic_json@Vmap@std@@Vvector@2@V?$basic_string@DU?$char_traits@D@std@@V?$allocator@D@2@@2@_N_J_KNVallocator@2@Uadl_serializer@json_abi_v3_12_0@nlohmann@@V?$vector@EV?$allocator@E@std@@@2@X@json_abi_v3_12_0@nlohmann@@QEAAAEAV012@V?$basic_string@DU?$char_traits@D@std@@V?$allocator@D@2@@std@@@Z
	??A?$basic_json@Vmap@std@@Vvector@2@V?$basic_string@DU?$char_traits@D@std@@V?$allocator@D@2@@2@_N_J_KNVallocator@2@Uadl_serializer@json_abi_v3_12_0@nlohmann@@V?$vector@EV?$allocator@E@std@@@2@X@json_abi_v3_12_0@nlohmann@@QEBAAEBV012@_K@Z
	??A?$map@HUCachedFace@MeshCache@oreo@@U?$less@H@std@@V?$allocator@U?$pair@$$CBHUCachedFace@MeshCache@oreo@@@std@@@5@@std@@QEAAAEAUCachedFace@MeshCache@oreo@@AEBH@Z
	??A?$map@PEAVConstraint@GCS@@V?$vector@PEANV?$allocator@PEAN@std@@@std@@U?$less@PEAVConstraint@GCS@@@4@V?$allocator@U?$pair@QEAVConstraint@GCS@@V?$vector@PEANV?$allocator@PEAN@std@@@std@@@std@@@4@@std@@QEAAAEAV?$vector@PEANV?$allocator@PEAN@std@@@1@AEBQEAVConstraint@GCS@@@Z
	??A?$map@UNameKey@oreo@@UNameInfo@2@U?$less@UNameKey@oreo@@@std@@V?$allocator@U?$pair@$$CBUNameKey@oreo@@UNameInfo@2@@std@@@5@@std@@QEAAAEAUNameInfo@oreo@@AEBUNameKey@3@@Z
	??A?$map@V?$basic_string@DU?$char_traits@D@std@@V?$allocator@D@2@@std@@USchemaVersion@oreo@@U?$less@V?$basic_string@DU?$char_traits@D@std@@V?$allocator@D@2@@std@@@2@V?$allocator@U?$pair@$$CBV?$basic_string@DU?$char_traits@D@std@@V?$allocator@D@2@@std@@USchemaVersion@oreo@@@std@@@2@@std@@QEAAAEAUSchemaVersion@oreo@@$$QEAV?$basic_string@DU?$char_traits@D@std@@V?$allocator@D@2@@1@@Z
	??A?$map@V?$basic_string@DU?$char_traits@D@std@@V?$allocator@D@2@@std@@V?$basic_json@Vmap@std@@Vvector@2@V?$basic_string@DU?$char_traits@D@std@@V?$allocator@D@2@@2@_N_J_KNVallocator@2@Uadl_serializer@json_abi_v3_12_0@nlohmann@@V?$vector@EV?$allocator@E@std@@@2@X@json_abi_v3_12_0@nlohmann@@U?$less@X@2@V?$allocator@U?$pair@$$CBV?$basic_string@DU?$char_traits@D@std@@V?$allocator@D@2@@std@@V?$basic_json@Vmap@std@@Vvector@2@V?$basic_string@DU?$char_traits@D@std@@V?$allocator@D@2@@2@_N_J_KNVallocator@2@Uadl_serializer@json_abi_v3_12_0@nlohmann@@V?$vector@EV?$allocator@E@std@@@2@X@json_abi_v3_12_0@nlohmann@@@std@@@2@@std@@QEAAAEAV?$basic_json@Vmap@std@@Vvector@2@V?$basic_string@DU?$char_traits@D@std@@V?$allocator@D@2@@2@_N_J_KNVallocator@2@Uadl_serializer@json_abi_v3_12_0@nlohmann@@V?$vector@EV?$allocator@E@std@@@2@X@json_abi_v3_12_0@nlohmann@@AEBV?$basic_string@DU?$char_traits@D@std@@V?$allocator@D@2@@1@@Z
	??A?$map@V?$basic_string@DU?$char_traits@D@std@@V?$allocator@D@2@@std@@V?$variant@NH_NV?$basic_string@DU?$char_traits@D@std@@V?$allocator@D@2@@std@@Vgp_Vec@@Vgp_Pnt@@Vgp_Dir@@Vgp_Ax1@@Vgp_Ax2@@Vgp_Pln@@UElementRef@oreo@@V?$vector@UElementRef@oreo@@V?$allocator@UElementRef@oreo@@@std@@@2@@2@U?$less@V?$basic_string@DU?$char_traits@D@std@@V?$allocator@D@2@@std@@@2@V?$allocator@U?$pair@$$CBV?$basic_string@DU?$char_traits@D@std@@V?$allocator@D@2@@std@@V?$variant@NH_NV?$basic_string@DU?$char_traits@D@std@@V?$allocator@D@2@@std@@Vgp_Vec@@Vgp_Pnt@@Vgp_Dir@@Vgp_Ax1@@Vgp_Ax2@@Vgp_Pln@@UElementRef@oreo@@V?$vector@UElementRef@oreo@@V?$allocator@UElementRef@oreo@@@std@@@2@@2@@std@@@2@@std@@QEAAAEAV?$variant@NH_NV?$basic_string@DU?$char_traits@D@std@@V?$allocator@D@2@@std@@Vgp_Vec@@Vgp_Pnt@@Vgp_Dir@@Vgp_Ax1@@Vgp_Ax2@@Vgp_Pln@@UElementRef@oreo@@V?$vector@UElementRef@oreo@@V?$allocator@UElementRef@oreo@@@std@@@2@@1@AEBV?$basic_string@DU?$char_traits@D@std@@V?$allocator@D@2@@1@@Z
	??A?$map@V?$basic_string@DU?$char_traits@D@std@@V?$allocator@D@2@@std@@VNamedShape@oreo@@U?$less@V?$basic_string@DU?$char_traits@D@std@@V?$allocator@D@2@@std@@@2@V?$allocator@U?$pair@$$CBV?$basic_string@DU?$char_traits@D@std@@V?$allocator@D@2@@std@@VNamedShape@oreo@@@std@@@2@@std@@QEAAAEAVNamedShape@oreo@@AEBV?$basic_string@DU?$char_traits@D@std@@V?$allocator@D@2@@1@@Z
	??A?$map@V?$basic_string@DU?$char_traits@D@std@@V?$allocator@D@2@@std@@_NU?$less@V?$basic_string@DU?$char_traits@D@std@@V?$allocator@D@2@@std@@@2@V?$allocator@U?$pair@$$CBV?$basic_string@DU?$char_traits@D@std@@V?$allocator@D@2@@std@@_N@std@@@2@@std@@QEAAAEA_NAEBV?$basic_string@DU?$char_traits@D@std@@V?$allocator@D@2@@1@@Z
	??A?$map@VIndexedName@Data@@V?$map@UNameKey@oreo@@UNameInfo@2@U?$less@UNameKey@oreo@@@std@@V?$allocator@U?$pair@$$CBUNameKey@oreo@@UNameInfo@2@@std@@@5@@std@@U?$less@VIndexedName@Data@@@4@V?$allocator@U?$pair@$$CBVIndexedName@Data@@V?$map@UNameKey@oreo@@UNameInfo@2@U?$less@UNameKey@oreo@@@std@@V?$allocator@U?$pair@$$CBUNameKey@oreo@@UNameInfo@2@@std@@@5@@std@@@std@@@4@@std@@QEAAAEAV?$map@UNameKey@oreo@@UNameInfo@2@U?$less@UNameKey@oreo@@@std@@V?$allocator@U?$pair@$$CBUNameKey@oreo@@UNameInfo@2@@std@@@5@@1@AEBVIndexedName@Data@@@Z
	??A?$vector@V?$vector@PEAVConstraint@GCS@@V?$allocator@PEAVConstraint@GCS@@@std@@@std@@V?$allocator@V?$vector@PEAVConstraint@GCS@@V?$allocator@PEAVConstraint@GCS@@@std@@@std@@@2@@std@@QEAAAEAV?$vector@PEAVConstraint@GCS@@V?$allocator@PEAVConstraint@GCS@@@std@@@1@_K@Z
	??AIndexedName@Data@@QEBADH@Z
	??AMappedName@Data@@QEBADH@Z
	??B?$atomic@J@std@@QEBAJXZ
	??BIndexedName@Data@@QEBA_NXZ
	??BMappedName@Data@@QEBA_NXZ
	??C?$iter_impl@$$CBV?$basic_json@Vmap@std@@Vvector@2@V?$basic_string@DU?$char_traits@D@std@@V?$allocator@D@2@@2@_N_J_KNVallocator@2@Uadl_serializer@json_abi_v3_12_0@nlohmann@@V?$vector@EV?$allocator@E@std@@@2@X@json_abi_v3_12_0@nlohmann@@@detail@json_abi_v3_12_0@nlohmann@@QEBAPEBV?$basic_json@Vmap@std@@Vvector@2@V?$basic_string@DU?$char_traits@D@std@@V?$allocator@D@2@@2@_N_J_KNVallocator@2@Uadl_serializer@json_abi_v3_12_0@nlohmann@@V?$vector@EV?$allocator@E@std@@@2@X@23@XZ
	??C?$iter_impl@V?$basic_json@Vmap@std@@Vvector@2@V?$basic_string@DU?$char_traits@D@std@@V?$allocator@D@2@@2@_N_J_KNVallocator@2@Uadl_serializer@json_abi_v3_12_0@nlohmann@@V?$vector@EV?$allocator@E@std@@@2@X@json_abi_v3_12_0@nlohmann@@@detail@json_abi_v3_12_0@nlohmann@@QEBAPEAV?$basic_json@Vmap@std@@Vvector@2@V?$basic_string@DU?$char_traits@D@std@@V?$allocator@D@2@@2@_N_J_KNVallocator@2@Uadl_serializer@json_abi_v3_12_0@nlohmann@@V?$vector@EV?$allocator@E@std@@@2@X@23@XZ
	??D?$iter_impl@$$CBV?$basic_json@Vmap@std@@Vvector@2@V?$basic_string@DU?$char_traits@D@std@@V?$allocator@D@2@@2@_N_J_KNVallocator@2@Uadl_serializer@json_abi_v3_12_0@nlohmann@@V?$vector@EV?$allocator@E@std@@@2@X@json_abi_v3_12_0@nlohmann@@@detail@json_abi_v3_12_0@nlohmann@@QEBAAEBV?$basic_json@Vmap@std@@Vvector@2@V?$basic_string@DU?$char_traits@D@std@@V?$allocator@D@2@@2@_N_J_KNVallocator@2@Uadl_serializer@json_abi_v3_12_0@nlohmann@@V?$vector@EV?$allocator@E@std@@@2@X@23@XZ
	??D?$iter_impl@V?$basic_json@Vmap@std@@Vvector@2@V?$basic_string@DU?$char_traits@D@std@@V?$allocator@D@2@@2@_N_J_KNVallocator@2@Uadl_serializer@json_abi_v3_12_0@nlohmann@@V?$vector@EV?$allocator@E@std@@@2@X@json_abi_v3_12_0@nlohmann@@@detail@json_abi_v3_12_0@nlohmann@@QEBAAEAV?$basic_json@Vmap@std@@Vvector@2@V?$basic_string@DU?$char_traits@D@std@@V?$allocator@D@2@@2@_N_J_KNVallocator@2@Uadl_serializer@json_abi_v3_12_0@nlohmann@@V?$vector@EV?$allocator@E@std@@@2@X@23@XZ
	??E?$_Tree_iterator@V?$_Tree_val@U?$_Tree_simple_types@U?$pair@$$CBUNameKey@oreo@@UNameInfo@2@@std@@@std@@@std@@@std@@QEAAAEAV01@XZ
	??E?$_Tree_unchecked_const_iterator@V?$_Tree_val@U?$_Tree_simple_types@H@std@@@std@@U_Iterator_base0@2@@std@@QEAAAEAV01@XZ
	??E?$_Tree_unchecked_const_iterator@V?$_Tree_val@U?$_Tree_simple_types@PEAN@std@@@std@@U_Iterator_base0@2@@std@@QEAAAEAV01@XZ
	??E?$_Tree_unchecked_const_iterator@V?$_Tree_val@U?$_Tree_simple_types@PEAVConstraint@GCS@@@std@@@std@@U_Iterator_base0@2@@std@@QEAAAEAV01@XZ
	??E?$_Tree_unchecked_const_iterator@V?$_Tree_val@U?$_Tree_simple_types@U?$pair@$$CBHUMappedChildElements@ElementMap@Data@@@std@@@std@@@std@@U_Iterator_base0@2@@std@@QEAAAEAV01@XZ
	??E?$_Tree_unchecked_const_iterator@V?$_Tree_val@U?$_Tree_simple_types@U?$pair@$$CBVIndexedName@Data@@V?$map@UNameKey@oreo@@UNameInfo@2@U?$less@UNameKey@oreo@@@std@@V?$allocator@U?$pair@$$CBUNameKey@oreo@@UNameInfo@2@@std@@@5@@std@@@std@@@std@@@std@@U_Iterator_base0@2@@std@@QEAAAEAV01@XZ
	??E?$_Tree_unchecked_const_iterator@V?$_Tree_val@U?$_Tree_simple_types@U?$pair@QEAVConstraint@GCS@@V?$set@HU?$less@H@std@@V?$allocator@H@2@@std@@@std@@@std@@@std@@U_Iterator_base0@2@@std@@QEAAAEAV01@XZ
	??E?$bidir_node_iterator@U?$ordered_index_node@Unull_augment_policy@detail@multi_index@boost@@U?$hashed_index_node@U?$index_node_base@V?$mutant_relation@U?$tagged@QEAVStringID@App@@Uleft@member_at@relation@bimaps@boost@@@tags@bimaps@boost@@U?$tagged@$$CBJUright@member_at@relation@bimaps@boost@@@234@Una@mpl@4@$00@relation@bimaps@boost@@V?$allocator@V?$mutant_relation@U?$tagged@QEAVStringID@App@@Uleft@member_at@relation@bimaps@boost@@@tags@bimaps@boost@@U?$tagged@$$CBJUright@member_at@relation@bimaps@boost@@@234@Una@mpl@4@$00@relation@bimaps@boost@@@std@@@detail@multi_index@boost@@@234@@detail@multi_index@boost@@@detail@multi_index@boost@@QEAAAEAV0123@XZ
	??E?$iter_impl@$$CBV?$basic_json@Vmap@std@@Vvector@2@V?$basic_string@DU?$char_traits@D@std@@V?$allocator@D@2@@2@_N_J_KNVallocator@2@Uadl_serializer@json_abi_v3_12_0@nlohmann@@V?$vector@EV?$allocator@E@std@@@2@X@json_abi_v3_12_0@nlohmann@@@detail@json_abi_v3_12_0@nlohmann@@QEAAAEAV0123@XZ
	??E?$iter_impl@V?$basic_json@Vmap@std@@Vvector@2@V?$basic_string@DU?$char_traits@D@std@@V?$allocator@D@2@@2@_N_J_KNVallocator@2@Uadl_serializer@json_abi_v3_12_0@nlohmann@@V?$vector@EV?$allocator@E@std@@@2@X@json_abi_v3_12_0@nlohmann@@@detail@json_abi_v3_12_0@nlohmann@@QEAAAEAV0123@XZ
	??EIndexedName@Data@@QEAAAEAV01@XZ
	??FIndexedName@Data@@QEAAAEAV01@XZ
	??H?$_Vb_iterator@U?$_Wrap_alloc@V?$allocator@I@std@@@std@@@std@@QEBA?AV01@_J@Z
	??HMappedName@Data@@QEBA?AV01@AEBV01@@Z
	??HMappedName@Data@@QEBA?AV01@AEBV?$basic_string@DU?$char_traits@D@std@@V?$allocator@D@2@@std@@@Z
	??HMappedName@Data@@QEBA?AV01@AEBVQByteArray@@@Z
	??HMappedName@Data@@QEBA?AV01@PEBD@Z
	??MIndexedName@Data@@QEBA_NAEBV01@@Z
	??MMappedElement@Data@@QEBA_NAEBU01@@Z
	??MMappedName@Data@@QEBA_NAEBV01@@Z
	??MStringID@App@@QEBA_NAEBV01@@Z
	??R<lambda_1>@?4??_ScheduleContinuationTask@_Task_impl_base@details@Concurrency@@QEAAXPEAU_ContinuationTaskHandleBase@34@@Z@QEBA@XZ
	??R?$NCollection_IndexedMap@VTopoDS_Shape@@VTopTools_ShapeMapHasher@@@@QEBAAEBVTopoDS_Shape@@H@Z
	??R?$checked_array_deleter@W4default_color_type@boost@@@checked_deleters@boost@@QEBAXPEAW4default_color_type@2@@Z
	??R?$default_delete@UMappedNameRef@Data@@@std@@QEBAXPEAUMappedNameRef@Data@@@Z
	??R?$gebp_kernel@NN_JV?$blas_data_mapper@N_J$0A@$0A@$00@internal@Eigen@@$03$03$0A@$0A@@internal@Eigen@@QEAAXAEBV?$blas_data_mapper@N_J$0A@$0A@$00@12@PEBN1_J22N2222@Z
	??R?$gemm_functor@N_JU?$general_matrix_matrix_product@_JN$00$0A@N$0A@$0A@$0A@$00@internal@Eigen@@V?$Transpose@$$CBV?$Matrix@N$0?0$0?0$0A@$0?0$0?0@Eigen@@@3@V?$Matrix@N$0?0$0?0$0A@$0?0$0?0@3@V53@V?$gemm_blocking_space@$0A@NN$0?0$0?0$0?0$00$0A@@23@@internal@Eigen@@QEBAX_J000PEAU?$GemmParallelInfo@_J@12@@Z
	??R?$gemm_functor@N_JU?$general_matrix_matrix_product@_JN$0A@$0A@N$00$0A@$0A@$00@internal@Eigen@@V?$Matrix@N$0?0$0?0$0A@$0?0$0?0@3@V?$Transpose@$$CBV?$Matrix@N$0?0$0?0$0A@$0?0$0?0@Eigen@@@3@V43@V?$gemm_blocking_space@$0A@NN$0?0$0?0$0?0$00$0A@@23@@internal@Eigen@@QEBAX_J000PEAU?$GemmParallelInfo@_J@12@@Z
	??R?$gemm_functor@N_JU?$general_matrix_matrix_product@_JN$0A@$0A@N$0A@$0A@$0A@$00@internal@Eigen@@V?$Matrix@N$0?0$0?0$0A@$0?0$0?0@3@V43@V43@V?$gemm_blocking_space@$0A@NN$0?0$0?0$0?0$00$0A@@23@@internal@Eigen@@QEBAX_J000PEAU?$GemmParallelInfo@_J@12@@Z
	??R?$gemm_pack_lhs@N_JV?$blas_data_mapper@N_J$0A@$0A@$00@internal@Eigen@@$03$01U__m128d@@$0A@$0A@$00@internal@Eigen@@QEAAXPEANAEBV?$blas_data_mapper@N_J$0A@$0A@$00@12@_J222@Z
	??R?$gemm_pack_lhs@N_JV?$const_blas_data_mapper@N_J$00@internal@Eigen@@$03$01U__m128d@@$00$0A@$0A@@internal@Eigen@@QEAAXPEANAEBV?$const_blas_data_mapper@N_J$00@12@_J222@Z
	??R?$gemm_pack_lhs@N_JV?$const_blas_data_mapper@N_J$0A@@internal@Eigen@@$03$01U__m128d@@$0A@$0A@$0A@@internal@Eigen@@QEAAXPEANAEBV?$const_blas_data_mapper@N_J$0A@@12@_J222@Z
	??R?$gemm_pack_rhs@N_JV?$const_blas_data_mapper@N_J$00@internal@Eigen@@$03$00$0A@$00@internal@Eigen@@QEAAXPEANAEBV?$const_blas_data_mapper@N_J$00@12@_J222@Z
	??R?$gemm_pack_rhs@N_JV?$const_blas_data_mapper@N_J$00@internal@Eigen@@$03$00$0A@$0A@@internal@Eigen@@QEAAXPEANAEBV?$const_blas_data_mapper@N_J$00@12@_J222@Z
	??R?$gemm_pack_rhs@N_JV?$const_blas_data_mapper@N_J$0A@@internal@Eigen@@$03$0A@$0A@$0A@@internal@Eigen@@QEAAXPEANAEBV?$const_blas_data_mapper@N_J$0A@@12@_J222@Z
	??R?$hash@VTopoDS_Shape@@@std@@QEBA_KAEBVTopoDS_Shape@@@Z
	??R?$less@V?$basic_string@DU?$char_traits@D@std@@V?$allocator@D@2@@std@@@std@@QEBA_NAEBV?$basic_string@DU?$char_traits@D@std@@V?$allocator@D@2@@1@0@Z
	??R?$less@VIndexedName@oreo@@@std@@QEBA_NAEBVIndexedName@oreo@@0@Z
	??R?$less@VMappedName@oreo@@@std@@QEBA_NAEBVMappedName@oreo@@0@Z
	??R?$less@VQByteArray@@@std@@QEBA_NAEBVQByteArray@@0@Z
	??R?$member_close_operation@V?$linked_streambuf@DU?$char_traits@D@std@@@detail@iostreams@boost@@@detail@iostreams@boost@@QEBAXXZ
	??R?$mersenne_twister@I$0CA@$0CHA@$0BIN@$0BP@$0JJAILANP@$0L@$06$0JNCMFGIA@$0P@$0OPMGAAAA@$0BC@@std@@QEAAIXZ
	??R?$reset_operation@V?$optional@U?$basic_array_source@D@iostreams@boost@@@detail@iostreams@boost@@@detail@iostreams@boost@@QEBAXXZ
	??RElementNameComparator@Data@@QEBA_NAEBVMappedName@1@0@Z
	??RStringIDHasher@@QEBA_KPEBVStringID@App@@@Z
	??Y?$QList@VStringIDRef@App@@@@QEAAAEAV0@AEBV0@@Z
	??Y?$basic_string@DU?$char_traits@D@std@@V?$allocator@D@2@@std@@QEAAAEAV01@D@Z
	??YIndexedName@Data@@QEAAAEAV01@H@Z
	??YMappedName@Data@@QEAAAEAV01@AEBV01@@Z
	??YMappedName@Data@@QEAAAEAV01@AEBV?$basic_string@DU?$char_traits@D@std@@V?$allocator@D@2@@std@@@Z
	??YMappedName@Data@@QEAAAEAV01@AEBVQByteArray@@@Z
	??YMappedName@Data@@QEAAAEAV01@PEBD@Z
	??_0path@filesystem@std@@QEAAAEAV012@AEBV012@@Z
	??_7?$NCollection_Array1@VBnd_Box@@@@6B@
	??_7?$NCollection_DataMap@HVBisector_Bisec@@U?$NCollection_DefaultHasher@H@@@@6B@
	??_7?$NCollection_DataMap@HVgp_Pnt2d@@U?$NCollection_DefaultHasher@H@@@@6B@
	??_7?$NCollection_DataMap@HVgp_Vec2d@@U?$NCollection_DefaultHasher@H@@@@6B@
	??_7?$NCollection_DataMap@V?$handle@VMAT_BasicElt@@@opencascade@@VTopoDS_Shape@@U?$NCollection_DefaultHasher@V?$handle@VMAT_BasicElt@@@opencascade@@@@@@6B@
	??_7?$NCollection_DataMap@VMAT2d_BiInt@@HU?$NCollection_DefaultHasher@VMAT2d_BiInt@@@@@@6B@
	??_7?$NCollection_DataMap@VTCollection_AsciiString@@V?$handle@VSTEPCAFControl_ExternFile@@@opencascade@@U?$NCollection_DefaultHasher@VTCollection_AsciiString@@@@@@6B@
	??_7?$NCollection_DataMap@VTDF_Label@@V?$handle@VSTEPCAFControl_ExternFile@@@opencascade@@U?$NCollection_DefaultHasher@VTDF_Label@@@@@@6B@
	??_7?$NCollection_DataMap@VTDF_Label@@VTopoDS_Shape@@U?$NCollection_DefaultHasher@VTDF_Label@@@@@@6B@
	??_7?$NCollection_DataMap@VTopoDS_Edge@@UNewCurveInfo@BRepTools_Modifier@@VTopTools_ShapeMapHasher@@@@6B@
	??_7?$NCollection_DataMap@VTopoDS_Face@@UNewSurfaceInfo@BRepTools_Modifier@@VTopTools_ShapeMapHasher@@@@6B@
	??_7?$NCollection_DataMap@VTopoDS_Shape@@HVTopTools_ShapeMapHasher@@@@6B@
	??_7?$NCollection_DataMap@VTopoDS_Shape@@NVTopTools_ShapeMapHasher@@@@6B@
	??_7?$NCollection_DataMap@VTopoDS_Shape@@UTReplacement@BRepTools_ReShape@@VTopTools_ShapeMapHasher@@@@6B@
	??_7?$NCollection_DataMap@VTopoDS_Shape@@V1@VTopTools_ShapeMapHasher@@@@6B@
	??_7?$NCollection_DataMap@VTopoDS_Shape@@V?$NCollection_DataMap@VTopoDS_Shape@@V1@VTopTools_ShapeMapHasher@@@@VTopTools_ShapeMapHasher@@@@6B@
	??_7?$NCollection_DataMap@VTopoDS_Shape@@V?$NCollection_List@H@@VTopTools_ShapeMapHasher@@@@6B@
	??_7?$NCollection_DataMap@VTopoDS_Shape@@V?$NCollection_List@VBRepOffset_Interval@@@@VTopTools_ShapeMapHasher@@@@6B@
	??_7?$NCollection_DataMap@VTopoDS_Shape@@V?$NCollection_List@VTopoDS_Shape@@@@VTopTools_ShapeMapHasher@@@@6B@
	??_7?$NCollection_DataMap@VTopoDS_Shape@@V?$NCollection_Sequence@V?$handle@VMAT_BasicElt@@@opencascade@@@@VTopTools_ShapeMapHasher@@@@6B@
	??_7?$NCollection_DataMap@VTopoDS_Shape@@V?$handle@VStandard_Transient@@@opencascade@@VTopTools_ShapeMapHasher@@@@6B@
	??_7?$NCollection_DataMap@VTopoDS_Shape@@V?$handle@VTopTools_HArray2OfShape@@@opencascade@@VTopTools_ShapeMapHasher@@@@6B@
	??_7?$NCollection_DataMap@VTopoDS_Vertex@@VTopoDS_Edge@@U?$NCollection_DefaultHasher@VTopoDS_Vertex@@@@@@6B@
	??_7?$NCollection_IndexedDataMap@VTopoDS_Shape@@V?$NCollection_List@VTopoDS_Shape@@@@U?$NCollection_DefaultHasher@VTopoDS_Shape@@@@@@6B@
	??_7?$NCollection_IndexedDataMap@VTopoDS_Shape@@V?$NCollection_List@VTopoDS_Shape@@@@VTopTools_ShapeMapHasher@@@@6B@
	??_7?$NCollection_IndexedDataMap@VTopoDS_Shape@@V?$handle@VBRepCheck_Result@@@opencascade@@U?$NCollection_DefaultHasher@VTopoDS_Shape@@@@@@6B@
	??_7?$NCollection_IndexedMap@VTopoDS_Shape@@VTopTools_ShapeMapHasher@@@@6B@
	??_7?$NCollection_List@H@@6B@
	??_7?$NCollection_List@VBRepFill_OffsetWire@@@@6B@
	??_7?$NCollection_List@VBRepOffset_Interval@@@@6B@
	??_7?$NCollection_List@VTopoDS_Shape@@@@6B@
	??_7?$NCollection_Map@VTDF_Label@@U?$NCollection_DefaultHasher@VTDF_Label@@@@@@6B@
	??_7?$NCollection_Map@VTopoDS_Shape@@VTopTools_ShapeMapHasher@@@@6B@
	??_7?$NCollection_Sequence@H@@6B@
	??_7?$NCollection_Sequence@N@@6B@
	??_7?$NCollection_Sequence@V?$handle@VMAT_BasicElt@@@opencascade@@@@6B@
	??_7?$NCollection_Sequence@V?$handle@VStandard_Transient@@@opencascade@@@@6B@
	??_7?$NCollection_Sequence@VBRepExtrema_SolutionElem@@@@6B@
	??_7?$NCollection_Sequence@VExtrema_POnSurf@@@@6B@
	??_7?$NCollection_Sequence@VTDF_Label@@@@6B@
	??_7?$NCollection_Sequence@VTopoDS_Shape@@@@6B@
	??_7?$_Associated_state@H@std@@6B@
	??_7?$_CancellationTokenCallback@V<lambda_1>@?1??_RegisterCancellation@_Task_impl_base@details@Concurrency@@QEAAXV?$weak_ptr@U_Task_impl_base@details@Concurrency@@@std@@@Z@@details@Concurrency@@6B@
	??_7?$_Deferred_async_state@X@std@@6B@
	??_7?$_Func_impl_no_alloc@V<lambda_1>@?1???$?0V?$_Fake_no_copy_callable_adapter@P8System@GCS@@EAAXAEBV?$Matrix@N$0?0$0?0$0A@$0?0$0?0@Eigen@@AEBV?$map@HHU?$less@H@std@@V?$allocator@U?$pair@$$CBHH@std@@@2@@std@@AEBV?$vector@PEANV?$allocator@PEAN@std@@@6@_N@ZPEAV12@AEAV34@AEAV56@AEAV76@_N@std@@@?$_Task_async_state@X@std@@QEAA@$$QEAV?$_Fake_no_copy_callable_adapter@P8System@GCS@@EAAXAEBV?$Matrix@N$0?0$0?0$0A@$0?0$0?0@Eigen@@AEBV?$map@HHU?$less@H@std@@V?$allocator@U?$pair@$$CBHH@std@@@2@@std@@AEBV?$vector@PEANV?$allocator@PEAN@std@@@6@_N@ZPEAV12@AEAV34@AEAV56@AEAV76@_N@3@@Z@X$$V@std@@6B@
	??_7?$_Func_impl_no_alloc@V<lambda_1>@?1??_MakeVoidToUnitFunc@details@Concurrency@@YA?AV?$function@$$A6AEXZ@std@@AEBV?$function@$$A6AXXZ@6@@Z@E$$V@std@@6B@
	??_7?$_Func_impl_no_alloc@V<lambda_1>@?4??_ScheduleContinuationTask@_Task_impl_base@details@Concurrency@@QEAAXPEAU_ContinuationTaskHandleBase@45@@Z@X$$V@std@@6B@
	??_7?$_Func_impl_no_alloc@V<lambda_1>@?7???R1?4??_ScheduleContinuationTask@_Task_impl_base@details@Concurrency@@QEAAXPEAU_ContinuationTaskHandleBase@45@@Z@QEBA@XZ@X$$V@std@@6B@
	??_7?$_Func_impl_no_alloc@V<lambda_1>@?CC@??_CancelAndRunContinuations@?$_Task_impl@E@details@Concurrency@@UEAA_N_N00AEBV?$shared_ptr@U_ExceptionHolder@details@Concurrency@@@std@@@Z@X$$V@std@@6B@
	??_7?$_Func_impl_no_alloc@V?$_Fake_no_copy_callable_adapter@P8System@GCS@@EAAXAEBV?$Matrix@N$0?0$0?0$0A@$0?0$0?0@Eigen@@AEBV?$map@HHU?$less@H@std@@V?$allocator@U?$pair@$$CBHH@std@@@2@@std@@AEBV?$vector@PEANV?$allocator@PEAN@std@@@6@_N@ZPEAV12@AEAV34@AEAV56@AEAV76@_N@std@@X$$V@std@@6B@
	??_7?$_InitialTaskHandle@XV<lambda_1>@?1???$?0V?$_Fake_no_copy_callable_adapter@P8System@GCS@@EAAXAEBV?$Matrix@N$0?0$0?0$0A@$0?0$0?0@Eigen@@AEBV?$map@HHU?$less@H@std@@V?$allocator@U?$pair@$$CBHH@std@@@2@@std@@AEBV?$vector@PEANV?$allocator@PEAN@std@@@6@_N@ZPEAV12@AEAV34@AEAV56@AEAV76@_N@std@@@?$_Task_async_state@X@std@@QEAA@$$QEAV?$_Fake_no_copy_callable_adapter@P8System@GCS@@EAAXAEBV?$Matrix@N$0?0$0?0$0A@$0?0$0?0@Eigen@@AEBV?$map@HHU?$less@H@std@@V?$allocator@U?$pair@$$CBHH@std@@@2@@std@@AEBV?$vector@PEANV?$allocator@PEAN@std@@@6@_N@ZPEAV12@AEAV34@AEAV56@AEAV76@_N@3@@Z@U_TypeSelectorNoAsync@details@Concurrency@@@?$task@E@Concurrency@@6B@
	??_7?$_PPLTaskHandle@EU?$_InitialTaskHandle@XV<lambda_1>@?1???$?0V?$_Fake_no_copy_callable_adapter@P8System@GCS@@EAAXAEBV?$Matrix@N$0?0$0?0$0A@$0?0$0?0@Eigen@@AEBV?$map@HHU?$less@H@std@@V?$allocator@U?$pair@$$CBHH@std@@@2@@std@@AEBV?$vector@PEANV?$allocator@PEAN@std@@@6@_N@ZPEAV12@AEAV34@AEAV56@AEAV76@_N@std@@@?$_Task_async_state@X@std@@QEAA@$$QEAV?$_Fake_no_copy_callable_adapter@P8System@GCS@@EAAXAEBV?$Matrix@N$0?0$0?0$0A@$0?0$0?0@Eigen@@AEBV?$map@HHU?$less@H@std@@V?$allocator@U?$pair@$$CBHH@std@@@2@@std@@AEBV?$vector@PEANV?$allocator@PEAN@std@@@6@_N@ZPEAV12@AEAV34@AEAV56@AEAV76@_N@3@@Z@U_TypeSelectorNoAsync@details@Concurrency@@@?$task@E@Concurrency@@U_TaskProcHandle@details@3@@details@Concurrency@@6B@
	??_7?$_Packaged_state@$$A6AXXZ@std@@6B@
	??_7?$_Ref_count@VKernelContext@oreo@@@std@@6B@
	??_7?$_Ref_count_obj2@U?$_Task_impl@E@details@Concurrency@@@std@@6B@
	??_7?$_Ref_count_obj2@U_ExceptionHolder@details@Concurrency@@@std@@6B@
	??_7?$_Ref_count_obj2@V?$output_string_adapter@DV?$basic_string@DU?$char_traits@D@std@@V?$allocator@D@2@@std@@@detail@json_abi_v3_12_0@nlohmann@@@std@@6B@
	??_7?$_Ref_count_obj2@VElementMap@Data@@@std@@6B@
	??_7?$_Ref_count_obj2@VElementMap@oreo@@@std@@6B@
	??_7?$_Task_async_state@X@std@@6B@
	??_7?$_Task_impl@E@details@Concurrency@@6B@
	??_7?$basic_filebuf@DU?$char_traits@D@std@@@std@@6B@
	??_7?$basic_ifstream@DU?$char_traits@D@std@@@std@@6B@
	??_7?$basic_istringstream@DU?$char_traits@D@std@@V?$allocator@D@2@@std@@6B@
	??_7?$basic_ofstream@DU?$char_traits@D@std@@@std@@6B@
	??_7?$basic_ostringstream@DU?$char_traits@D@std@@V?$allocator@D@2@@std@@6B@
	??_7?$basic_stringbuf@DU?$char_traits@D@std@@V?$allocator@D@2@@std@@6B@
	??_7?$basic_stringstream@DU?$char_traits@D@std@@V?$allocator@D@2@@std@@6B@
	??_7?$direct_streambuf@U?$basic_array_source@D@iostreams@boost@@U?$char_traits@D@std@@@detail@iostreams@boost@@6B@
	??_7?$linked_streambuf@DU?$char_traits@D@std@@@detail@iostreams@boost@@6B@
	??_7?$output_adapter_protocol@D@detail@json_abi_v3_12_0@nlohmann@@6B@
	??_7?$output_string_adapter@DV?$basic_string@DU?$char_traits@D@std@@V?$allocator@D@2@@std@@@detail@json_abi_v3_12_0@nlohmann@@6B@
	??_7?$sp_counted_impl_pd@PEAW4default_color_type@boost@@U?$checked_array_deleter@W4default_color_type@boost@@@checked_deleters@2@@detail@boost@@6B@
	??_7?$stream@U?$basic_array_source@D@iostreams@boost@@U?$char_traits@D@std@@V?$allocator@D@5@@iostreams@boost@@6B@
	??_7?$stream_base@U?$basic_array_source@D@iostreams@boost@@U?$char_traits@D@std@@V?$allocator@D@5@V?$basic_istream@DU?$char_traits@D@std@@@5@@detail@iostreams@boost@@6B@
	??_7?$stream_buffer@U?$basic_array_source@D@iostreams@boost@@U?$char_traits@D@std@@V?$allocator@D@5@Uinput_seekable@23@@iostreams@boost@@6B@
	??_7?$wrapexcept@Vbad_function_call@boost@@@boost@@6Bbad_function_call@1@@
	??_7?$wrapexcept@Vbad_function_call@boost@@@boost@@6Bclone_base@exception_detail@1@@
	??_7?$wrapexcept@Vbad_function_call@boost@@@boost@@6Bexception@1@@
	??_7?$wrapexcept@Vfailure@ios_base@std@@@boost@@6Bclone_base@exception_detail@1@@
	??_7?$wrapexcept@Vfailure@ios_base@std@@@boost@@6Bexception@1@@
	??_7?$wrapexcept@Vfailure@ios_base@std@@@boost@@6Bfailure@ios_base@std@@@
	??_7Arc@GCS@@6B@
	??_7ArcOfEllipse@GCS@@6B@
	??_7ArcOfHyperbola@GCS@@6B@
	??_7ArcOfParabola@GCS@@6B@
	??_7BSpline@GCS@@6B@
	??_7BaseClass@Base@@6B@
	??_7Circle@GCS@@6B@
	??_7Constraint@GCS@@6B@
	??_7ConstraintAngleViaPoint@GCS@@6B@
	??_7ConstraintAngleViaPointAndParam@GCS@@6B@
	??_7ConstraintAngleViaPointAndTwoParams@GCS@@6B@
	??_7ConstraintAngleViaTwoPoints@GCS@@6B@
	??_7ConstraintArcLength@GCS@@6B@
	??_7ConstraintC2CDistance@GCS@@6B@
	??_7ConstraintC2LDistance@GCS@@6B@
	??_7ConstraintCenterOfGravity@GCS@@6B@
	??_7ConstraintCurveValue@GCS@@6B@
	??_7ConstraintDifference@GCS@@6B@
	??_7ConstraintEllipseTangentLine@GCS@@6B@
	??_7ConstraintEqual@GCS@@6B@
	??_7ConstraintEqualFocalDistance@GCS@@6B@
	??_7ConstraintEqualLineLength@GCS@@6B@
	??_7ConstraintEqualMajorAxesConic@GCS@@6B@
	??_7ConstraintInternalAlignmentPoint2Ellipse@GCS@@6B@
	??_7ConstraintInternalAlignmentPoint2Hyperbola@GCS@@6B@
	??_7ConstraintL2LAngle@GCS@@6B@
	??_7ConstraintMidpointOnLine@GCS@@6B@
	??_7ConstraintP2CDistance@GCS@@6B@
	??_7ConstraintP2LDistance@GCS@@6B@
	??_7ConstraintP2PAngle@GCS@@6B@
	??_7ConstraintP2PDistance@GCS@@6B@
	??_7ConstraintParallel@GCS@@6B@
	??_7ConstraintPerpendicular@GCS@@6B@
	??_7ConstraintPointOnBSpline@GCS@@6B@
	??_7ConstraintPointOnEllipse@GCS@@6B@
	??_7ConstraintPointOnHyperbola@GCS@@6B@
	??_7ConstraintPointOnLine@GCS@@6B@
	??_7ConstraintPointOnParabola@GCS@@6B@
	??_7ConstraintPointOnPerpBisector@GCS@@6B@
	??_7ConstraintSlopeAtBSplineKnot@GCS@@6B@
	??_7ConstraintSnell@GCS@@6B@
	??_7ConstraintTangentCircumf@GCS@@6B@
	??_7ConstraintWeightedLinearCombination@GCS@@6B@
	??_7Curve@GCS@@6B@
	??_7Ellipse@GCS@@6B@
	??_7Handled@Base@@6B@
	??_7Hyperbola@GCS@@6B@
	??_7Line@GCS@@6B@
	??_7MajorRadiusConic@GCS@@6B@
	??_7MakerMapper@oreo@@6B@
	??_7NCollection_BaseList@@6B@
	??_7NCollection_BaseMap@@6B@
	??_7NCollection_BaseSequence@@6B@
	??_7NullMapper@oreo@@6B@
	??_7Parabola@GCS@@6B@
	??_7Persistence@Base@@6B@
	??_7ShapeMapper@oreo@@6B@
	??_7Standard_ConstructionError@@6B@
	??_7Standard_DomainError@@6B@
	??_7Standard_OutOfRange@@6B@
	??_7Standard_RangeError@@6B@
	??_7Standard_Transient@@6B@
	??_7Standard_TypeMismatch@@6B@
	??_7StringHasher@App@@6BHandled@Base@@@
	??_7StringHasher@App@@6BPersistence@Base@@@
	??_7StringID@App@@6BBaseClass@Base@@@
	??_7StringID@App@@6BHandled@Base@@@
	??_7TopoDS_TCompound@@6B@
	??_7TopoDS_TShape@@6B@
	??_7ValueError@Base@@6B@
	??_7XSControl_Reader@@6B@
	??_7_CancellationTokenRegistration@details@Concurrency@@6B@
	??_7_DefaultPPLTaskScheduler@details@Concurrency@@6B@
	??_7_Future_error_category2@std@@6B@
	??_7_Generic_error_category@std@@6B@
	??_7_Iostream_error_category2@std@@6B@
	??_7_RefCounter@details@Concurrency@@6B@
	??_7_System_error@std@@6B@
	??_7_System_error_category@std@@6B@
	??_7_TaskProcHandle@details@Concurrency@@6B@
	??_7_Task_impl_base@details@Concurrency@@6B@
	??_7bad_alloc@std@@6B@
	??_7bad_array_new_length@std@@6B@
	??_7bad_cast@std@@6B@
	??_7bad_function_call@boost@@6B@
	??_7bad_variant_access@std@@6B@
	??_7bad_weak_ptr@std@@6B@
	??_7clone_base@exception_detail@boost@@6B@
	??_7exception@boost@@6B@
	??_7exception@detail@json_abi_v3_12_0@nlohmann@@6B@
	??_7exception@std@@6B@
	??_7failure@ios_base@std@@6B@
	??_7filesystem_error@filesystem@std@@6B@
	??_7future_error@std@@6B@
	??_7invalid_argument@std@@6B@
	??_7invalid_iterator@detail@json_abi_v3_12_0@nlohmann@@6B@
	??_7invalid_operation@Concurrency@@6B@
	??_7logic_error@std@@6B@
	??_7other_error@detail@json_abi_v3_12_0@nlohmann@@6B@
	??_7out_of_range@detail@json_abi_v3_12_0@nlohmann@@6B@
	??_7overflow_error@std@@6B@
	??_7parse_error@detail@json_abi_v3_12_0@nlohmann@@6B@
	??_7runtime_error@std@@6B@
	??_7sp_counted_base@detail@boost@@6B@
	??_7system_error@std@@6B@
	??_7type_error@detail@json_abi_v3_12_0@nlohmann@@6B@
	??_D?$basic_ifstream@DU?$char_traits@D@std@@@std@@QEAAXXZ
	??_D?$basic_istringstream@DU?$char_traits@D@std@@V?$allocator@D@2@@std@@QEAAXXZ
	??_D?$basic_ofstream@DU?$char_traits@D@std@@@std@@QEAAXXZ
	??_D?$basic_ostringstream@DU?$char_traits@D@std@@V?$allocator@D@2@@std@@QEAAXXZ
	??_D?$basic_stringstream@DU?$char_traits@D@std@@V?$allocator@D@2@@std@@QEAAXXZ
	??_D?$stream@U?$basic_array_source@D@iostreams@boost@@U?$char_traits@D@std@@V?$allocator@D@5@@iostreams@boost@@QEAAXXZ
	??_FBRepOffsetAPI_ThruSections@@QEAAXXZ
	??_FBRepTools_Modifier@@QEAAXXZ
	??_FIndexedName@Data@@QEAAXXZ
	??_FMessage_Level@@QEAAXXZ
	??_FNCollection_IncAllocator@@QEAAXXZ
	??_FOSD_MemInfo@@QEAAXXZ
	??_FStandard_OutOfMemory@@QEAAXXZ
	??_FTDF_Transaction@@QEAAXXZ
	??__FTHE_TYPE_INSTANCE@?1??get_type_descriptor@Standard_ConstructionError@@SAAEBV?$handle@VStandard_Type@@@opencascade@@XZ@YAXXZ
	??__FTHE_TYPE_INSTANCE@?1??get_type_descriptor@Standard_DomainError@@SAAEBV?$handle@VStandard_Type@@@opencascade@@XZ@YAXXZ
	??__FTHE_TYPE_INSTANCE@?1??get_type_descriptor@Standard_OutOfRange@@SAAEBV?$handle@VStandard_Type@@@opencascade@@XZ@YAXXZ
	??__FTHE_TYPE_INSTANCE@?1??get_type_descriptor@Standard_RangeError@@SAAEBV?$handle@VStandard_Type@@@opencascade@@XZ@YAXXZ
	??__FTHE_TYPE_INSTANCE@?1??get_type_descriptor@Standard_TypeMismatch@@SAAEBV?$handle@VStandard_Type@@@opencascade@@XZ@YAXXZ
	??__F_S_scheduler@?1??_GetStaticAmbientSchedulerStorage@details@Concurrency@@YAPEAV?$shared_ptr@Uscheduler_interface@Concurrency@@@std@@XZ@YAXXZ
	?Assign@?$NCollection_IndexedMap@VTopoDS_Shape@@VTopTools_ShapeMapHasher@@@@QEAAAEAV1@AEBV1@@Z
	?CalculateNormal@BSpline@GCS@@UEBA?AVDeriVector2@2@AEBVPoint@2@PEBN@Z
	?CalculateNormal@BSpline@GCS@@UEBA?AVDeriVector2@2@PEBN0@Z
	?CalculateNormal@Circle@GCS@@UEBA?AVDeriVector2@2@AEBVPoint@2@PEBN@Z
	?CalculateNormal@Curve@GCS@@UEBA?AVDeriVector2@2@PEBN0@Z
	?CalculateNormal@Ellipse@GCS@@UEBA?AVDeriVector2@2@AEBVPoint@2@PEBN@Z
	?CalculateNormal@Hyperbola@GCS@@UEBA?AVDeriVector2@2@AEBVPoint@2@PEBN@Z
	?CalculateNormal@Line@GCS@@UEBA?AVDeriVector2@2@AEBVPoint@2@PEBN@Z
	?CalculateNormal@Parabola@GCS@@UEBA?AVDeriVector2@2@AEBVPoint@2@PEBN@Z
	?Copy@Arc@GCS@@UEAAPEAV12@XZ
	?Copy@ArcOfEllipse@GCS@@UEAAPEAV12@XZ
	?Copy@ArcOfHyperbola@GCS@@UEAAPEAV12@XZ
	?Copy@ArcOfParabola@GCS@@UEAAPEAV12@XZ
	?Copy@BSpline@GCS@@UEAAPEAV12@XZ
	?Copy@Circle@GCS@@UEAAPEAV12@XZ
	?Copy@Ellipse@GCS@@UEAAPEAV12@XZ
	?Copy@Hyperbola@GCS@@UEAAPEAV12@XZ
	?Copy@Line@GCS@@UEAAPEAV12@XZ
	?Copy@Parabola@GCS@@UEAAPEAV12@XZ
	?CrossCross@gp_XYZ@@QEAAXAEBV1@0@Z
	?Delete@Standard_Transient@@UEBAXXZ
	?DynamicType@Standard_ConstructionError@@UEBAAEBV?$handle@VStandard_Type@@@opencascade@@XZ
	?DynamicType@Standard_DomainError@@UEBAAEBV?$handle@VStandard_Type@@@opencascade@@XZ
	?DynamicType@Standard_OutOfRange@@UEBAAEBV?$handle@VStandard_Type@@@opencascade@@XZ
	?DynamicType@Standard_RangeError@@UEBAAEBV?$handle@VStandard_Type@@@opencascade@@XZ
	?DynamicType@Standard_TypeMismatch@@UEBAAEBV?$handle@VStandard_Type@@@opencascade@@XZ
	?Edge@TopoDS@@YAAEBVTopoDS_Edge@@AEBVTopoDS_Shape@@@Z
	?Face@TopoDS@@YAAEBVTopoDS_Face@@AEBVTopoDS_Shape@@@Z
	?FindIndex@?$NCollection_IndexedMap@VTopoDS_Shape@@VTopTools_ShapeMapHasher@@@@QEBAHAEBVTopoDS_Shape@@@Z
	?FirstUParameter@BRepAdaptor_Surface@@UEBANXZ
	?FirstVParameter@BRepAdaptor_Surface@@UEBANXZ
	?GetDefaultShapeFixParameters@XSControl_Reader@@MEBA?AUDE_ShapeFixParameters@@XZ
	?GetDefaultShapeProcessFlags@XSControl_Reader@@MEBA?AV?$bitset@$0BC@@std@@XZ
	?GetString@DESTEP_Parameters@@QEAA?AVTCollection_AsciiString@@W4ReadMode_ProductContext@1@@Z
	?GetType@BRepAdaptor_Surface@@UEBA?AW4GeomAbs_SurfaceType@@XZ
	?HasCachedMinMax@Poly_Triangulation@@QEBA_NXZ
	?Increment@Message_ProgressIndicator@@AEAAXNAEBVMessage_ProgressScope@@@Z
	?LastUParameter@BRepAdaptor_Surface@@UEBANXZ
	?LastVParameter@BRepAdaptor_Surface@@UEBANXZ
	?Log@ConsoleStub@Base@@QEAAXPEBDZZ
	?LogGroupOfConstraints@SolverReportingManager@GCS@@QEAAXAEBV?$basic_string@DU?$char_traits@D@std@@V?$allocator@D@2@@std@@V?$vector@V?$vector@PEAVConstraint@GCS@@V?$allocator@PEAVConstraint@GCS@@@std@@@std@@V?$allocator@V?$vector@PEAVConstraint@GCS@@V?$allocator@PEAVConstraint@GCS@@@std@@@std@@@2@@4@@Z
	?LogGroupOfParameters@SolverReportingManager@GCS@@QEAAXAEBV?$basic_string@DU?$char_traits@D@std@@V?$allocator@D@2@@std@@V?$vector@V?$vector@PEANV?$allocator@PEAN@std@@@std@@V?$allocator@V?$vector@PEANV?$allocator@PEAN@std@@@std@@@2@@4@@Z
	?LogQRSystemInformation@SolverReportingManager@GCS@@QEAAXAEBVSystem@2@HHH@Z
	?LogSetOfConstraints@SolverReportingManager@GCS@@QEAAXAEBV?$basic_string@DU?$char_traits@D@std@@V?$allocator@D@2@@std@@V?$set@PEAVConstraint@GCS@@U?$less@PEAVConstraint@GCS@@@std@@V?$allocator@PEAVConstraint@GCS@@@4@@4@@Z
	?Manager@SolverReportingManager@GCS@@SAAEAV12@XZ
	?MurmurHash64A@MurmurHash@opencascade@@YA_KPEBXH_K@Z
	?Paste@TDataStd_GenericEmpty@@UEBAXAEBV?$handle@VTDF_Attribute@@@opencascade@@AEBV?$handle@VTDF_RelocationTable@@@3@@Z
	?PushOwnParams@Arc@GCS@@UEAAHAEAV?$vector@PEANV?$allocator@PEAN@std@@@std@@@Z
	?PushOwnParams@ArcOfEllipse@GCS@@UEAAHAEAV?$vector@PEANV?$allocator@PEAN@std@@@std@@@Z
	?PushOwnParams@ArcOfHyperbola@GCS@@UEAAHAEAV?$vector@PEANV?$allocator@PEAN@std@@@std@@@Z
	?PushOwnParams@ArcOfParabola@GCS@@UEAAHAEAV?$vector@PEANV?$allocator@PEAN@std@@@std@@@Z
	?PushOwnParams@BSpline@GCS@@UEAAHAEAV?$vector@PEANV?$allocator@PEAN@std@@@std@@@Z
	?PushOwnParams@Circle@GCS@@UEAAHAEAV?$vector@PEANV?$allocator@PEAN@std@@@std@@@Z
	?PushOwnParams@Ellipse@GCS@@UEAAHAEAV?$vector@PEANV?$allocator@PEAN@std@@@std@@@Z
	?PushOwnParams@Hyperbola@GCS@@UEAAHAEAV?$vector@PEANV?$allocator@PEAN@std@@@std@@@Z
	?PushOwnParams@Line@GCS@@UEAAHAEAV?$vector@PEANV?$allocator@PEAN@std@@@std@@@Z
	?PushOwnParams@Parabola@GCS@@UEAAHAEAV?$vector@PEANV?$allocator@PEAN@std@@@std@@@Z
	?PushOwnParams@Point@GCS@@QEAAHAEAV?$vector@PEANV?$allocator@PEAN@std@@@std@@@Z
	?ReconstructGeomPointers@ConstraintAngleViaPoint@GCS@@AEAAXXZ
	?ReconstructGeomPointers@ConstraintAngleViaPointAndParam@GCS@@AEAAXXZ
	?ReconstructGeomPointers@ConstraintAngleViaPointAndTwoParams@GCS@@AEAAXXZ
	?ReconstructGeomPointers@ConstraintAngleViaTwoPoints@GCS@@AEAAXXZ
	?ReconstructGeomPointers@ConstraintArcLength@GCS@@AEAAXXZ
	?ReconstructGeomPointers@ConstraintC2CDistance@GCS@@AEAAXXZ
	?ReconstructGeomPointers@ConstraintC2LDistance@GCS@@AEAAXXZ
	?ReconstructGeomPointers@ConstraintCurveValue@GCS@@AEAAXXZ
	?ReconstructGeomPointers@ConstraintEllipseTangentLine@GCS@@AEAAXXZ
	?ReconstructGeomPointers@ConstraintEqualFocalDistance@GCS@@AEAAXXZ
	?ReconstructGeomPointers@ConstraintEqualLineLength@GCS@@AEAAXXZ
	?ReconstructGeomPointers@ConstraintEqualMajorAxesConic@GCS@@AEAAXXZ
	?ReconstructGeomPointers@ConstraintInternalAlignmentPoint2Ellipse@GCS@@AEAAXXZ
	?ReconstructGeomPointers@ConstraintInternalAlignmentPoint2Hyperbola@GCS@@AEAAXXZ
	?ReconstructGeomPointers@ConstraintP2CDistance@GCS@@AEAAXXZ
	?ReconstructGeomPointers@ConstraintPointOnParabola@GCS@@AEAAXXZ
	?ReconstructGeomPointers@ConstraintSnell@GCS@@AEAAXXZ
	?ReconstructOnNewPvec@Arc@GCS@@UEAAXAEAV?$vector@PEANV?$allocator@PEAN@std@@@std@@AEAH@Z
	?ReconstructOnNewPvec@ArcOfEllipse@GCS@@UEAAXAEAV?$vector@PEANV?$allocator@PEAN@std@@@std@@AEAH@Z
	?ReconstructOnNewPvec@ArcOfHyperbola@GCS@@UEAAXAEAV?$vector@PEANV?$allocator@PEAN@std@@@std@@AEAH@Z
	?ReconstructOnNewPvec@ArcOfParabola@GCS@@UEAAXAEAV?$vector@PEANV?$allocator@PEAN@std@@@std@@AEAH@Z
	?ReconstructOnNewPvec@BSpline@GCS@@UEAAXAEAV?$vector@PEANV?$allocator@PEAN@std@@@std@@AEAH@Z
	?ReconstructOnNewPvec@Circle@GCS@@UEAAXAEAV?$vector@PEANV?$allocator@PEAN@std@@@std@@AEAH@Z
	?ReconstructOnNewPvec@Ellipse@GCS@@UEAAXAEAV?$vector@PEANV?$allocator@PEAN@std@@@std@@AEAH@Z
	?ReconstructOnNewPvec@Hyperbola@GCS@@UEAAXAEAV?$vector@PEANV?$allocator@PEAN@std@@@std@@AEAH@Z
	?ReconstructOnNewPvec@Line@GCS@@UEAAXAEAV?$vector@PEANV?$allocator@PEAN@std@@@std@@AEAH@Z
	?ReconstructOnNewPvec@Parabola@GCS@@UEAAXAEAV?$vector@PEANV?$allocator@PEAN@std@@@std@@AEAH@Z
	?ReconstructOnNewPvec@Point@GCS@@QEAAXAEAV?$vector@PEANV?$allocator@PEAN@std@@@std@@AEAH@Z
	?Restore@Persistence@Base@@UEAAXAEAVXMLReader@2@@Z
	?Restore@StringHasher@App@@UEAAXAEAVXMLReader@Base@@@Z
	?Restore@TDataStd_GenericEmpty@@UEAAXAEBV?$handle@VTDF_Attribute@@@opencascade@@@Z
	?RestoreDocFile@Persistence@Base@@UEAAXAEAVReader@2@@Z
	?RestoreDocFile@StringHasher@App@@UEAAXAEAVReader@Base@@@Z
	?Save@Persistence@Base@@UEBAXAEAVWriter@2@@Z
	?Save@StringHasher@App@@UEBAXAEAVWriter@Base@@@Z
	?SaveDocFile@Persistence@Base@@UEBAXAEAVWriter@2@@Z
	?SaveDocFile@StringHasher@App@@UEBAXAEAVWriter@Base@@@Z
	?ShapeType@TopoDS_Shape@@QEBA?AW4TopAbs_ShapeEnum@@XZ
	?Throw@Standard_ConstructionError@@EEBAXXZ
	?Throw@Standard_DomainError@@EEBAXXZ
	?Throw@Standard_OutOfRange@@EEBAXXZ
	?Throw@Standard_RangeError@@EEBAXXZ
	?Throw@Standard_TypeMismatch@@EEBAXXZ
	?Value@BSpline@GCS@@UEBA?AVDeriVector2@2@NNPEBN@Z
	?Value@Circle@GCS@@UEBA?AVDeriVector2@2@NNPEBN@Z
	?Value@Curve@GCS@@UEBA?AVDeriVector2@2@NNPEBN@Z
	?Value@Ellipse@GCS@@UEBA?AVDeriVector2@2@NNPEBN@Z
	?Value@Hyperbola@GCS@@UEBA?AVDeriVector2@2@NNPEBN@Z
	?Value@Line@GCS@@UEBA?AVDeriVector2@2@NNPEBN@Z
	?Value@Parabola@GCS@@UEBA?AVDeriVector2@2@NNPEBN@Z
	?Wire@TopoDS@@YAAEBVTopoDS_Wire@@AEBVTopoDS_Shape@@@Z
	?_Alloc_sentinel_and_proxy@?$_Tree@V?$_Tset_traits@PEANU?$less@PEAN@std@@V?$allocator@PEAN@2@$0A@@std@@@std@@IEAAXXZ
	?_Assign_grow@?$_Hash_vec@V?$allocator@V?$_List_unchecked_const_iterator@V?$_List_val@U?$_List_simple_types@UByteArray@Data@@@std@@@std@@U_Iterator_base0@2@@std@@@std@@@std@@QEAAX_KV?$_List_unchecked_const_iterator@V?$_List_val@U?$_List_simple_types@UByteArray@Data@@@std@@@std@@U_Iterator_base0@2@@2@@Z
	?_Assign_grow@?$_Hash_vec@V?$allocator@V?$_List_unchecked_iterator@V?$_List_val@U?$_List_simple_types@U?$pair@$$CBIV?$shared_ptr@VElementMap@Data@@@std@@@std@@@std@@@std@@@std@@@std@@@std@@QEAAX_KV?$_List_unchecked_iterator@V?$_List_val@U?$_List_simple_types@U?$pair@$$CBIV?$shared_ptr@VElementMap@Data@@@std@@@std@@@std@@@std@@@2@@Z
	?_Assign_grow@?$_Hash_vec@V?$allocator@V?$_List_unchecked_iterator@V?$_List_val@U?$_List_simple_types@U?$pair@$$CBV?$basic_string@DU?$char_traits@D@std@@V?$allocator@D@2@@std@@H@std@@@std@@@std@@@std@@@std@@@std@@QEAAX_KV?$_List_unchecked_iterator@V?$_List_val@U?$_List_simple_types@U?$pair@$$CBV?$basic_string@DU?$char_traits@D@std@@V?$allocator@D@2@@std@@H@std@@@std@@@std@@@2@@Z
	?_Assign_grow@?$_Hash_vec@V?$allocator@V?$_List_unchecked_iterator@V?$_List_val@U?$_List_simple_types@U?$pair@QEBVElementMap@Data@@I@std@@@std@@@std@@@std@@@std@@@std@@QEAAX_KV?$_List_unchecked_iterator@V?$_List_val@U?$_List_simple_types@U?$pair@QEBVElementMap@Data@@I@std@@@std@@@std@@@2@@Z
	?_Bridge@_TaskProcThunk@details@Concurrency@@SAXPEAX@Z
	?_Buy_nonzero@?$vector@V?$basic_json@Vmap@std@@Vvector@2@V?$basic_string@DU?$char_traits@D@std@@V?$allocator@D@2@@2@_N_J_KNVallocator@2@Uadl_serializer@json_abi_v3_12_0@nlohmann@@V?$vector@EV?$allocator@E@std@@@2@X@json_abi_v3_12_0@nlohmann@@V?$allocator@V?$basic_json@Vmap@std@@Vvector@2@V?$basic_string@DU?$char_traits@D@std@@V?$allocator@D@2@@2@_N_J_KNVallocator@2@Uadl_serializer@json_abi_v3_12_0@nlohmann@@V?$vector@EV?$allocator@E@std@@@2@X@json_abi_v3_12_0@nlohmann@@@std@@@std@@AEAAX_K@Z
	?_Buy_raw@?$vector@HV?$allocator@H@std@@@std@@AEAAX_K@Z
	?_Buy_raw@?$vector@NV?$allocator@N@std@@@std@@AEAAX_K@Z
	?_Buy_raw@?$vector@PEANV?$allocator@PEAN@std@@@std@@AEAAX_K@Z
	?_Buy_raw@?$vector@PEAVConstraint@GCS@@V?$allocator@PEAVConstraint@GCS@@@std@@@std@@AEAAX_K@Z
	?_Buy_raw@?$vector@PEAVSubSystem@GCS@@V?$allocator@PEAVSubSystem@GCS@@@std@@@std@@AEAAX_K@Z
	?_Buy_raw@?$vector@PEAXV?$allocator@PEAX@std@@@std@@AEAAX_K@Z
	?_Buy_raw@?$vector@UElementRef@oreo@@V?$allocator@UElementRef@oreo@@@std@@@std@@AEAAX_K@Z
	?_Buy_raw@?$vector@V?$map@PEANPEANU?$less@PEAN@std@@V?$allocator@U?$pair@QEANPEAN@std@@@2@@std@@V?$allocator@V?$map@PEANPEANU?$less@PEAN@std@@V?$allocator@U?$pair@QEANPEAN@std@@@2@@std@@@2@@std@@AEAAX_K@Z
	?_Buy_raw@?$vector@V?$vector@PEANV?$allocator@PEAN@std@@@std@@V?$allocator@V?$vector@PEANV?$allocator@PEAN@std@@@std@@@2@@std@@AEAAX_K@Z
	?_Buy_raw@?$vector@V?$vector@PEAVConstraint@GCS@@V?$allocator@PEAVConstraint@GCS@@@std@@@std@@V?$allocator@V?$vector@PEAVConstraint@GCS@@V?$allocator@PEAVConstraint@GCS@@@std@@@std@@@2@@std@@AEAAX_K@Z
	?_Buy_raw@?$vector@VMappedName@Data@@V?$allocator@VMappedName@Data@@@std@@@std@@AEAAX_K@Z
	?_Buy_raw@?$vector@VPoint@GCS@@V?$allocator@VPoint@GCS@@@std@@@std@@AEAAX_K@Z
	?_Call_immediate@?$_Packaged_state@$$A6AXXZ@std@@QEAAXXZ
	?_Callback@_PPLTaskChore@_DefaultPPLTaskScheduler@details@Concurrency@@CAXPEAX@Z
	?_CancelAndRunContinuations@?$_Task_impl@E@details@Concurrency@@UEAA_N_N00AEBV?$shared_ptr@U_ExceptionHolder@details@Concurrency@@@std@@@Z
	?_CancelWithException@_Task_impl_base@details@Concurrency@@QEAA_NAEBVexception_ptr@std@@@Z
	?_Change_array@?$vector@EV?$allocator@E@std@@@std@@AEAAXQEAE_K1@Z
	?_Change_array@?$vector@IV?$allocator@I@std@@@std@@AEAAXQEAI_K1@Z
	?_Change_array@?$vector@MV?$allocator@M@std@@@std@@AEAAXQEAM_K1@Z
	?_Change_array@?$vector@NV?$allocator@N@std@@@std@@AEAAXQEAN_K1@Z
	?_Change_array@?$vector@PEANV?$allocator@PEAN@std@@@std@@AEAAXQEAPEAN_K1@Z
	?_Change_array@?$vector@PEAV?$basic_json@Vmap@std@@Vvector@2@V?$basic_string@DU?$char_traits@D@std@@V?$allocator@D@2@@2@_N_J_KNVallocator@2@Uadl_serializer@json_abi_v3_12_0@nlohmann@@V?$vector@EV?$allocator@E@std@@@2@X@json_abi_v3_12_0@nlohmann@@V?$allocator@PEAV?$basic_json@Vmap@std@@Vvector@2@V?$basic_string@DU?$char_traits@D@std@@V?$allocator@D@2@@2@_N_J_KNVallocator@2@Uadl_serializer@json_abi_v3_12_0@nlohmann@@V?$vector@EV?$allocator@E@std@@@2@X@json_abi_v3_12_0@nlohmann@@@std@@@std@@AEAAXQEAPEAV?$basic_json@Vmap@std@@Vvector@2@V?$basic_string@DU?$char_traits@D@std@@V?$allocator@D@2@@2@_N_J_KNVallocator@2@Uadl_serializer@json_abi_v3_12_0@nlohmann@@V?$vector@EV?$allocator@E@std@@@2@X@json_abi_v3_12_0@nlohmann@@_K1@Z
	?_Change_array@?$vector@PEAVConstraint@GCS@@V?$allocator@PEAVConstraint@GCS@@@std@@@std@@AEAAXQEAPEAVConstraint@GCS@@_K1@Z
	?_Change_array@?$vector@U?$pair@V?$basic_string@DU?$char_traits@D@std@@V?$allocator@D@2@@std@@V12@@std@@V?$allocator@U?$pair@V?$basic_string@DU?$char_traits@D@std@@V?$allocator@D@2@@std@@V12@@std@@@2@@std@@AEAAXQEAU?$pair@V?$basic_string@DU?$char_traits@D@std@@V?$allocator@D@2@@std@@V12@@2@_K1@Z
	?_Change_array@?$vector@U?$pair@VIndexedName@oreo@@VMappedName@2@@std@@V?$allocator@U?$pair@VIndexedName@oreo@@VMappedName@2@@std@@@2@@std@@AEAAXQEAU?$pair@VIndexedName@oreo@@VMappedName@2@@2@_K1@Z
	?_Change_array@?$vector@U?$pair@VMappedName@Data@@V?$QList@VStringIDRef@App@@@@@std@@V?$allocator@U?$pair@VMappedName@Data@@V?$QList@VStringIDRef@App@@@@@std@@@2@@std@@AEAAXQEAU?$pair@VMappedName@Data@@V?$QList@VStringIDRef@App@@@@@2@_K1@Z
	?_Change_array@?$vector@UDiagnostic@oreo@@V?$allocator@UDiagnostic@oreo@@@std@@@std@@AEAAXQEAUDiagnostic@oreo@@_K1@Z
	?_Change_array@?$vector@UMappedChildElements@ElementMap@Data@@V?$allocator@UMappedChildElements@ElementMap@Data@@@std@@@std@@AEAAXQEAUMappedChildElements@ElementMap@Data@@_K1@Z
	?_Change_array@?$vector@UMappedElement@Data@@V?$allocator@UMappedElement@Data@@@std@@@std@@AEAAXQEAUMappedElement@Data@@_K1@Z
	?_Change_array@?$vector@Ustored_vertex@config@?$adj_list_gen@V?$adjacency_list@UvecS@boost@@U12@UundirectedS@2@Uno_property@2@U42@U42@UlistS@2@@boost@@UvecS@2@U32@UundirectedS@2@Uno_property@2@U52@U52@UlistS@2@@detail@boost@@V?$allocator@Ustored_vertex@config@?$adj_list_gen@V?$adjacency_list@UvecS@boost@@U12@UundirectedS@2@Uno_property@2@U42@U42@UlistS@2@@boost@@UvecS@2@U32@UundirectedS@2@Uno_property@2@U52@U52@UlistS@2@@detail@boost@@@std@@@std@@AEAAXQEAUstored_vertex@config@?$adj_list_gen@V?$adjacency_list@UvecS@boost@@U12@UundirectedS@2@Uno_property@2@U42@U42@UlistS@2@@boost@@UvecS@2@U32@UundirectedS@2@Uno_property@2@U52@U52@UlistS@2@@detail@boost@@_K1@Z
	?_Change_array@?$vector@V?$basic_json@Vmap@std@@Vvector@2@V?$basic_string@DU?$char_traits@D@std@@V?$allocator@D@2@@2@_N_J_KNVallocator@2@Uadl_serializer@json_abi_v3_12_0@nlohmann@@V?$vector@EV?$allocator@E@std@@@2@X@json_abi_v3_12_0@nlohmann@@V?$allocator@V?$basic_json@Vmap@std@@Vvector@2@V?$basic_string@DU?$char_traits@D@std@@V?$allocator@D@2@@2@_N_J_KNVallocator@2@Uadl_serializer@json_abi_v3_12_0@nlohmann@@V?$vector@EV?$allocator@E@std@@@2@X@json_abi_v3_12_0@nlohmann@@@std@@@std@@AEAAXQEAV?$basic_json@Vmap@std@@Vvector@2@V?$basic_string@DU?$char_traits@D@std@@V?$allocator@D@2@@2@_N_J_KNVallocator@2@Uadl_serializer@json_abi_v3_12_0@nlohmann@@V?$vector@EV?$allocator@E@std@@@2@X@json_abi_v3_12_0@nlohmann@@_K1@Z
	?_Change_array@?$vector@V?$basic_string@DU?$char_traits@D@std@@V?$allocator@D@2@@std@@V?$allocator@V?$basic_string@DU?$char_traits@D@std@@V?$allocator@D@2@@std@@@2@@std@@AEAAXQEAV?$basic_string@DU?$char_traits@D@std@@V?$allocator@D@2@@2@_K1@Z
	?_Change_array@?$vector@V?$shared_ptr@VElementMap@Data@@@std@@V?$allocator@V?$shared_ptr@VElementMap@Data@@@std@@@2@@std@@AEAAXQEAV?$shared_ptr@VElementMap@Data@@@2@_K1@Z
	?_Change_array@?$vector@V?$vector@PEAVConstraint@GCS@@V?$allocator@PEAVConstraint@GCS@@@std@@@std@@V?$allocator@V?$vector@PEAVConstraint@GCS@@V?$allocator@PEAVConstraint@GCS@@@std@@@std@@@2@@std@@AEAAXQEAV?$vector@PEAVConstraint@GCS@@V?$allocator@PEAVConstraint@GCS@@@std@@@2@_K1@Z
	?_Change_array@?$vector@VArc@GCS@@V?$allocator@VArc@GCS@@@std@@@std@@AEAAXQEAVArc@GCS@@_K1@Z
	?_Change_array@?$vector@VCircle@GCS@@V?$allocator@VCircle@GCS@@@std@@@std@@AEAAXQEAVCircle@GCS@@_K1@Z
	?_Change_array@?$vector@VLine@GCS@@V?$allocator@VLine@GCS@@@std@@@std@@AEAAXQEAVLine@GCS@@_K1@Z
	?_Change_array@?$vector@VMappedName@Data@@V?$allocator@VMappedName@Data@@@std@@@std@@AEAAXQEAVMappedName@Data@@_K1@Z
	?_Change_array@?$vector@VPoint@GCS@@V?$allocator@VPoint@GCS@@@std@@@std@@AEAAXQEAVPoint@GCS@@_K1@Z
	?_Change_array@?$vector@VPoly_Triangle@@V?$allocator@VPoly_Triangle@@@std@@@std@@AEAAXQEAVPoly_Triangle@@_K1@Z
	?_Change_array@?$vector@VTopoDS_Shape@@V?$allocator@VTopoDS_Shape@@@std@@@std@@AEAAXQEAVTopoDS_Shape@@_K1@Z
	?_Change_array@?$vector@VTopoShapeAdapter@oreo@@V?$allocator@VTopoShapeAdapter@oreo@@@std@@@std@@AEAAXQEAVTopoShapeAdapter@oreo@@_K1@Z
	?_Change_array@?$vector@Vgp_Pnt@@V?$allocator@Vgp_Pnt@@@std@@@std@@AEAAXQEAVgp_Pnt@@_K1@Z
	?_Complete@_TaskCollectionBaseImpl@details@Concurrency@@QEAAXXZ
	?_Copy@?$_Func_impl_no_alloc@V<lambda_1>@?1???$?0V?$_Fake_no_copy_callable_adapter@P8System@GCS@@EAAXAEBV?$Matrix@N$0?0$0?0$0A@$0?0$0?0@Eigen@@AEBV?$map@HHU?$less@H@std@@V?$allocator@U?$pair@$$CBHH@std@@@2@@std@@AEBV?$vector@PEANV?$allocator@PEAN@std@@@6@_N@ZPEAV12@AEAV34@AEAV56@AEAV76@_N@std@@@?$_Task_async_state@X@std@@QEAA@$$QEAV?$_Fake_no_copy_callable_adapter@P8System@GCS@@EAAXAEBV?$Matrix@N$0?0$0?0$0A@$0?0$0?0@Eigen@@AEBV?$map@HHU?$less@H@std@@V?$allocator@U?$pair@$$CBHH@std@@@2@@std@@AEBV?$vector@PEANV?$allocator@PEAN@std@@@6@_N@ZPEAV12@AEAV34@AEAV56@AEAV76@_N@3@@Z@X$$V@std@@EEBAPEAV?$_Func_base@X$$V@2@PEAX@Z
	?_Copy@?$_Func_impl_no_alloc@V<lambda_1>@?1??_MakeVoidToUnitFunc@details@Concurrency@@YA?AV?$function@$$A6AEXZ@std@@AEBV?$function@$$A6AXXZ@6@@Z@E$$V@std@@EEBAPEAV?$_Func_base@E$$V@2@PEAX@Z
	?_Copy@?$_Func_impl_no_alloc@V<lambda_1>@?4??_ScheduleContinuationTask@_Task_impl_base@details@Concurrency@@QEAAXPEAU_ContinuationTaskHandleBase@45@@Z@X$$V@std@@EEBAPEAV?$_Func_base@X$$V@2@PEAX@Z
	?_Copy@?$_Func_impl_no_alloc@V<lambda_1>@?7???R1?4??_ScheduleContinuationTask@_Task_impl_base@details@Concurrency@@QEAAXPEAU_ContinuationTaskHandleBase@45@@Z@QEBA@XZ@X$$V@std@@EEBAPEAV?$_Func_base@X$$V@2@PEAX@Z
	?_Copy@?$_Func_impl_no_alloc@V<lambda_1>@?CC@??_CancelAndRunContinuations@?$_Task_impl@E@details@Concurrency@@UEAA_N_N00AEBV?$shared_ptr@U_ExceptionHolder@details@Concurrency@@@std@@@Z@X$$V@std@@EEBAPEAV?$_Func_base@X$$V@2@PEAX@Z
	?_Copy@?$_Func_impl_no_alloc@V?$_Fake_no_copy_callable_adapter@P8System@GCS@@EAAXAEBV?$Matrix@N$0?0$0?0$0A@$0?0$0?0@Eigen@@AEBV?$map@HHU?$less@H@std@@V?$allocator@U?$pair@$$CBHH@std@@@2@@std@@AEBV?$vector@PEANV?$allocator@PEAN@std@@@6@_N@ZPEAV12@AEAV34@AEAV56@AEAV76@_N@std@@X$$V@std@@EEBAPEAV?$_Func_base@X$$V@2@PEAX@Z
	?_CreateImpl@?$task@E@Concurrency@@QEAAXPEAV_CancellationTokenState@details@2@Uscheduler_ptr@2@@Z
	?_Deallocate_for_capacity@?$basic_string@DU?$char_traits@D@std@@V?$allocator@D@2@@std@@CAXAEAV?$allocator@D@2@QEAD_K@Z
	?_Decref@_Ref_count_base@std@@QEAAXXZ
	?_Delete_this@?$_Func_impl_no_alloc@V<lambda_1>@?1???$?0V?$_Fake_no_copy_callable_adapter@P8System@GCS@@EAAXAEBV?$Matrix@N$0?0$0?0$0A@$0?0$0?0@Eigen@@AEBV?$map@HHU?$less@H@std@@V?$allocator@U?$pair@$$CBHH@std@@@2@@std@@AEBV?$vector@PEANV?$allocator@PEAN@std@@@6@_N@ZPEAV12@AEAV34@AEAV56@AEAV76@_N@std@@@?$_Task_async_state@X@std@@QEAA@$$QEAV?$_Fake_no_copy_callable_adapter@P8System@GCS@@EAAXAEBV?$Matrix@N$0?0$0?0$0A@$0?0$0?0@Eigen@@AEBV?$map@HHU?$less@H@std@@V?$allocator@U?$pair@$$CBHH@std@@@2@@std@@AEBV?$vector@PEANV?$allocator@PEAN@std@@@6@_N@ZPEAV12@AEAV34@AEAV56@AEAV76@_N@3@@Z@X$$V@std@@EEAAX_N@Z
	?_Delete_this@?$_Func_impl_no_alloc@V<lambda_1>@?1??_MakeVoidToUnitFunc@details@Concurrency@@YA?AV?$function@$$A6AEXZ@std@@AEBV?$function@$$A6AXXZ@6@@Z@E$$V@std@@EEAAX_N@Z
	?_Delete_this@?$_Func_impl_no_alloc@V<lambda_1>@?4??_ScheduleContinuationTask@_Task_impl_base@details@Concurrency@@QEAAXPEAU_ContinuationTaskHandleBase@45@@Z@X$$V@std@@EEAAX_N@Z
	?_Delete_this@?$_Func_impl_no_alloc@V<lambda_1>@?7???R1?4??_ScheduleContinuationTask@_Task_impl_base@details@Concurrency@@QEAAXPEAU_ContinuationTaskHandleBase@45@@Z@QEBA@XZ@X$$V@std@@EEAAX_N@Z
	?_Delete_this@?$_Func_impl_no_alloc@V<lambda_1>@?CC@??_CancelAndRunContinuations@?$_Task_impl@E@details@Concurrency@@UEAA_N_N00AEBV?$shared_ptr@U_ExceptionHolder@details@Concurrency@@@std@@@Z@X$$V@std@@EEAAX_N@Z
	?_Delete_this@?$_Func_impl_no_alloc@V?$_Fake_no_copy_callable_adapter@P8System@GCS@@EAAXAEBV?$Matrix@N$0?0$0?0$0A@$0?0$0?0@Eigen@@AEBV?$map@HHU?$less@H@std@@V?$allocator@U?$pair@$$CBHH@std@@@2@@std@@AEBV?$vector@PEANV?$allocator@PEAN@std@@@6@_N@ZPEAV12@AEAV34@AEAV56@AEAV76@_N@std@@X$$V@std@@EEAAX_N@Z
	?_Delete_this@?$_Ref_count@VKernelContext@oreo@@@std@@EEAAXXZ
	?_Delete_this@?$_Ref_count_obj2@U?$_Task_impl@E@details@Concurrency@@@std@@EEAAXXZ
	?_Delete_this@?$_Ref_count_obj2@U_ExceptionHolder@details@Concurrency@@@std@@EEAAXXZ
	?_Delete_this@?$_Ref_count_obj2@V?$output_string_adapter@DV?$basic_string@DU?$char_traits@D@std@@V?$allocator@D@2@@std@@@detail@json_abi_v3_12_0@nlohmann@@@std@@EEAAXXZ
	?_Delete_this@?$_Ref_count_obj2@VElementMap@Data@@@std@@EEAAXXZ
	?_Delete_this@?$_Ref_count_obj2@VElementMap@oreo@@@std@@EEAAXXZ
	?_DeregisterCallback@_CancellationTokenState@details@Concurrency@@QEAAXPEAV_CancellationTokenRegistration@23@@Z
	?_Destroy@?$_Ref_count@VKernelContext@oreo@@@std@@EEAAXXZ
	?_Destroy@?$_Ref_count_obj2@U?$_Task_impl@E@details@Concurrency@@@std@@EEAAXXZ
	?_Destroy@?$_Ref_count_obj2@U_ExceptionHolder@details@Concurrency@@@std@@EEAAXXZ
	?_Destroy@?$_Ref_count_obj2@V?$output_string_adapter@DV?$basic_string@DU?$char_traits@D@std@@V?$allocator@D@2@@std@@@detail@json_abi_v3_12_0@nlohmann@@@std@@EEAAXXZ
	?_Destroy@?$_Ref_count_obj2@VElementMap@Data@@@std@@EEAAXXZ
	?_Destroy@?$_Ref_count_obj2@VElementMap@oreo@@@std@@EEAAXXZ
	?_Destroy@?$_Variant_base@NH_NV?$basic_string@DU?$char_traits@D@std@@V?$allocator@D@2@@std@@Vgp_Vec@@Vgp_Pnt@@Vgp_Dir@@Vgp_Ax1@@Vgp_Ax2@@Vgp_Pln@@UElementRef@oreo@@V?$vector@UElementRef@oreo@@V?$allocator@UElementRef@oreo@@@std@@@2@@std@@QEAAXXZ
	?_Destroy@_RefCounter@details@Concurrency@@MEAAXXZ
	?_Do_call@?$_Func_impl_no_alloc@V<lambda_1>@?1???$?0V?$_Fake_no_copy_callable_adapter@P8System@GCS@@EAAXAEBV?$Matrix@N$0?0$0?0$0A@$0?0$0?0@Eigen@@AEBV?$map@HHU?$less@H@std@@V?$allocator@U?$pair@$$CBHH@std@@@2@@std@@AEBV?$vector@PEANV?$allocator@PEAN@std@@@6@_N@ZPEAV12@AEAV34@AEAV56@AEAV76@_N@std@@@?$_Task_async_state@X@std@@QEAA@$$QEAV?$_Fake_no_copy_callable_adapter@P8System@GCS@@EAAXAEBV?$Matrix@N$0?0$0?0$0A@$0?0$0?0@Eigen@@AEBV?$map@HHU?$less@H@std@@V?$allocator@U?$pair@$$CBHH@std@@@2@@std@@AEBV?$vector@PEANV?$allocator@PEAN@std@@@6@_N@ZPEAV12@AEAV34@AEAV56@AEAV76@_N@3@@Z@X$$V@std@@EEAAXXZ
	?_Do_call@?$_Func_impl_no_alloc@V<lambda_1>@?1??_MakeVoidToUnitFunc@details@Concurrency@@YA?AV?$function@$$A6AEXZ@std@@AEBV?$function@$$A6AXXZ@6@@Z@E$$V@std@@EEAAEXZ
	?_Do_call@?$_Func_impl_no_alloc@V<lambda_1>@?4??_ScheduleContinuationTask@_Task_impl_base@details@Concurrency@@QEAAXPEAU_ContinuationTaskHandleBase@45@@Z@X$$V@std@@EEAAXXZ
	?_Do_call@?$_Func_impl_no_alloc@V<lambda_1>@?7???R1?4??_ScheduleContinuationTask@_Task_impl_base@details@Concurrency@@QEAAXPEAU_ContinuationTaskHandleBase@45@@Z@QEBA@XZ@X$$V@std@@EEAAXXZ
	?_Do_call@?$_Func_impl_no_alloc@V<lambda_1>@?CC@??_CancelAndRunContinuations@?$_Task_impl@E@details@Concurrency@@UEAA_N_N00AEBV?$shared_ptr@U_ExceptionHolder@details@Concurrency@@@std@@@Z@X$$V@std@@EEAAXXZ
	?_Do_call@?$_Func_impl_no_alloc@V?$_Fake_no_copy_callable_adapter@P8System@GCS@@EAAXAEBV?$Matrix@N$0?0$0?0$0A@$0?0$0?0@Eigen@@AEBV?$map@HHU?$less@H@std@@V?$allocator@U?$pair@$$CBHH@std@@@2@@std@@AEBV?$vector@PEANV?$allocator@PEAN@std@@@6@_N@ZPEAV12@AEAV34@AEAV56@AEAV76@_N@std@@X$$V@std@@EEAAXXZ
	?_Do_notify@?$_Associated_state@H@std@@EEAAXPEAV?$unique_lock@Vmutex@std@@@2@_N@Z
	?_Endwrite@?$basic_filebuf@DU?$char_traits@D@std@@@std@@IEAA_NXZ
	?_Erase@?$_Tree@V?$_Tmap_traits@HUCachedFace@MeshCache@oreo@@U?$less@H@std@@V?$allocator@U?$pair@$$CBHUCachedFace@MeshCache@oreo@@@std@@@5@$0A@@std@@@std@@AEAA_KU?$pair@PEAU?$_Tree_node@U?$pair@$$CBHUCachedFace@MeshCache@oreo@@@std@@PEAX@std@@PEAU12@@2@@Z
	?_Erase@?$_Tree@V?$_Tmap_traits@PEAVConstraint@GCS@@V?$vector@PEANV?$allocator@PEAN@std@@@std@@U?$less@PEAVConstraint@GCS@@@4@V?$allocator@U?$pair@QEAVConstraint@GCS@@V?$vector@PEANV?$allocator@PEAN@std@@@std@@@std@@@4@$0A@@std@@@std@@AEAA_KU?$pair@PEAU?$_Tree_node@U?$pair@QEAVConstraint@GCS@@V?$vector@PEANV?$allocator@PEAN@std@@@std@@@std@@PEAX@std@@PEAU12@@2@@Z
	?_Erase@?$_Tree@V?$_Tmap_traits@V?$basic_string@DU?$char_traits@D@std@@V?$allocator@D@2@@std@@VNamedShape@oreo@@U?$less@V?$basic_string@DU?$char_traits@D@std@@V?$allocator@D@2@@std@@@2@V?$allocator@U?$pair@$$CBV?$basic_string@DU?$char_traits@D@std@@V?$allocator@D@2@@std@@VNamedShape@oreo@@@std@@@2@$0A@@std@@@std@@AEAA_KU?$pair@PEAU?$_Tree_node@U?$pair@$$CBV?$basic_string@DU?$char_traits@D@std@@V?$allocator@D@2@@std@@VNamedShape@oreo@@@std@@PEAX@std@@PEAU12@@2@@Z
	?_Erase@?$_Tree@V?$_Tmap_traits@V?$basic_string@DU?$char_traits@D@std@@V?$allocator@D@2@@std@@_NU?$less@V?$basic_string@DU?$char_traits@D@std@@V?$allocator@D@2@@std@@@2@V?$allocator@U?$pair@$$CBV?$basic_string@DU?$char_traits@D@std@@V?$allocator@D@2@@std@@_N@std@@@2@$0A@@std@@@std@@AEAA_KU?$pair@PEAU?$_Tree_node@U?$pair@$$CBV?$basic_string@DU?$char_traits@D@std@@V?$allocator@D@2@@std@@_N@std@@PEAX@std@@PEAU12@@2@@Z
	?_Erase@?$_Tree@V?$_Tmap_traits@VMappedName@Data@@VIndexedName@2@U?$less@X@std@@V?$allocator@U?$pair@$$CBVMappedName@Data@@VIndexedName@2@@std@@@5@$0A@@std@@@std@@AEAA_KU?$pair@PEAU?$_Tree_node@U?$pair@$$CBVMappedName@Data@@VIndexedName@2@@std@@PEAX@std@@PEAU12@@2@@Z
	?_Erase@?$_Tree@V?$_Tmap_traits@VMappedName@oreo@@VIndexedName@2@U?$less@VMappedName@oreo@@@std@@V?$allocator@U?$pair@$$CBVMappedName@oreo@@VIndexedName@2@@std@@@5@$0A@@std@@@std@@AEAA_KU?$pair@PEAU?$_Tree_node@U?$pair@$$CBVMappedName@oreo@@VIndexedName@2@@std@@PEAX@std@@PEAU12@@2@@Z
	?_Erase@?$_Tree@V?$_Tset_traits@HU?$less@H@std@@V?$allocator@H@2@$0A@@std@@@std@@AEAA_KU?$pair@PEAU?$_Tree_node@HPEAX@std@@PEAU12@@2@@Z
	?_Erase_unchecked@?$_Tree@V?$_Tmap_traits@VMappedName@Data@@VIndexedName@2@U?$less@X@std@@V?$allocator@U?$pair@$$CBVMappedName@Data@@VIndexedName@2@@std@@@5@$0A@@std@@@std@@AEAAPEAU?$_Tree_node@U?$pair@$$CBVMappedName@Data@@VIndexedName@2@@std@@PEAX@2@V?$_Tree_unchecked_const_iterator@V?$_Tree_val@U?$_Tree_simple_types@U?$pair@$$CBVMappedName@Data@@VIndexedName@2@@std@@@std@@@std@@U_Iterator_base0@2@@2@@Z
	?_Erase_unchecked@?$_Tree@V?$_Tmap_traits@VMappedName@oreo@@VIndexedName@2@U?$less@VMappedName@oreo@@@std@@V?$allocator@U?$pair@$$CBVMappedName@oreo@@VIndexedName@2@@std@@@5@$0A@@std@@@std@@AEAAPEAU?$_Tree_node@U?$pair@$$CBVMappedName@oreo@@VIndexedName@2@@std@@PEAX@2@V?$_Tree_unchecked_const_iterator@V?$_Tree_val@U?$_Tree_simple_types@U?$pair@$$CBVMappedName@oreo@@VIndexedName@2@@std@@@std@@@std@@U_Iterator_base0@2@@2@@Z
	?_Exec@?$_CancellationTokenCallback@V<lambda_1>@?1??_RegisterCancellation@_Task_impl_base@details@Concurrency@@QEAAXV?$weak_ptr@U_Task_impl_base@details@Concurrency@@@std@@@Z@@details@Concurrency@@MEAAXXZ
	?_Extract@?$_Tree_val@U?$_Tree_simple_types@H@std@@@std@@QEAAPEAU?$_Tree_node@HPEAX@2@V?$_Tree_unchecked_const_iterator@V?$_Tree_val@U?$_Tree_simple_types@H@std@@@std@@U_Iterator_base0@2@@2@@Z
	?_Extract@?$_Tree_val@U?$_Tree_simple_types@U?$pair@$$CBHUCachedFace@MeshCache@oreo@@@std@@@std@@@std@@QEAAPEAU?$_Tree_node@U?$pair@$$CBHUCachedFace@MeshCache@oreo@@@std@@PEAX@2@V?$_Tree_unchecked_const_iterator@V?$_Tree_val@U?$_Tree_simple_types@U?$pair@$$CBHUCachedFace@MeshCache@oreo@@@std@@@std@@@std@@U_Iterator_base0@2@@2@@Z
	?_Extract@?$_Tree_val@U?$_Tree_simple_types@U?$pair@$$CBV?$basic_string@DU?$char_traits@D@std@@V?$allocator@D@2@@std@@V?$basic_json@Vmap@std@@Vvector@2@V?$basic_string@DU?$char_traits@D@std@@V?$allocator@D@2@@2@_N_J_KNVallocator@2@Uadl_serializer@json_abi_v3_12_0@nlohmann@@V?$vector@EV?$allocator@E@std@@@2@X@json_abi_v3_12_0@nlohmann@@@std@@@std@@@std@@QEAAPEAU?$_Tree_node@U?$pair@$$CBV?$basic_string@DU?$char_traits@D@std@@V?$allocator@D@2@@std@@V?$basic_json@Vmap@std@@Vvector@2@V?$basic_string@DU?$char_traits@D@std@@V?$allocator@D@2@@2@_N_J_KNVallocator@2@Uadl_serializer@json_abi_v3_12_0@nlohmann@@V?$vector@EV?$allocator@E@std@@@2@X@json_abi_v3_12_0@nlohmann@@@std@@PEAX@2@V?$_Tree_unchecked_const_iterator@V?$_Tree_val@U?$_Tree_simple_types@U?$pair@$$CBV?$basic_string@DU?$char_traits@D@std@@V?$allocator@D@2@@std@@V?$basic_json@Vmap@std@@Vvector@2@V?$basic_string@DU?$char_traits@D@std@@V?$allocator@D@2@@2@_N_J_KNVallocator@2@Uadl_serializer@json_abi_v3_12_0@nlohmann@@V?$vector@EV?$allocator@E@std@@@2@X@json_abi_v3_12_0@nlohmann@@@std@@@std@@@std@@U_Iterator_base0@2@@2@@Z
	?_Extract@?$_Tree_val@U?$_Tree_simple_types@U?$pair@$$CBV?$basic_string@DU?$char_traits@D@std@@V?$allocator@D@2@@std@@VNamedShape@oreo@@@std@@@std@@@std@@QEAAPEAU?$_Tree_node@U?$pair@$$CBV?$basic_string@DU?$char_traits@D@std@@V?$allocator@D@2@@std@@VNamedShape@oreo@@@std@@PEAX@2@V?$_Tree_unchecked_const_iterator@V?$_Tree_val@U?$_Tree_simple_types@U?$pair@$$CBV?$basic_string@DU?$char_traits@D@std@@V?$allocator@D@2@@std@@VNamedShape@oreo@@@std@@@std@@@std@@U_Iterator_base0@2@@2@@Z
	?_Extract@?$_Tree_val@U?$_Tree_simple_types@U?$pair@$$CBV?$basic_string@DU?$char_traits@D@std@@V?$allocator@D@2@@std@@_N@std@@@std@@@std@@QEAAPEAU?$_Tree_node@U?$pair@$$CBV?$basic_string@DU?$char_traits@D@std@@V?$allocator@D@2@@std@@_N@std@@PEAX@2@V?$_Tree_unchecked_const_iterator@V?$_Tree_val@U?$_Tree_simple_types@U?$pair@$$CBV?$basic_string@DU?$char_traits@D@std@@V?$allocator@D@2@@std@@_N@std@@@std@@@std@@U_Iterator_base0@2@@2@@Z
	?_Extract@?$_Tree_val@U?$_Tree_simple_types@U?$pair@$$CBVIndexedName@Data@@V?$map@UNameKey@oreo@@UNameInfo@2@U?$less@UNameKey@oreo@@@std@@V?$allocator@U?$pair@$$CBUNameKey@oreo@@UNameInfo@2@@std@@@5@@std@@@std@@@std@@@std@@QEAAPEAU?$_Tree_node@U?$pair@$$CBVIndexedName@Data@@V?$map@UNameKey@oreo@@UNameInfo@2@U?$less@UNameKey@oreo@@@std@@V?$allocator@U?$pair@$$CBUNameKey@oreo@@UNameInfo@2@@std@@@5@@std@@@std@@PEAX@2@V?$_Tree_unchecked_const_iterator@V?$_Tree_val@U?$_Tree_simple_types@U?$pair@$$CBVIndexedName@Data@@V?$map@UNameKey@oreo@@UNameInfo@2@U?$less@UNameKey@oreo@@@std@@V?$allocator@U?$pair@$$CBUNameKey@oreo@@UNameInfo@2@@std@@@5@@std@@@std@@@std@@@std@@U_Iterator_base0@2@@2@@Z
	?_Extract@?$_Tree_val@U?$_Tree_simple_types@U?$pair@$$CBVIndexedName@oreo@@VMappedName@2@@std@@@std@@@std@@QEAAPEAU?$_Tree_node@U?$pair@$$CBVIndexedName@oreo@@VMappedName@2@@std@@PEAX@2@V?$_Tree_unchecked_const_iterator@V?$_Tree_val@U?$_Tree_simple_types@U?$pair@$$CBVIndexedName@oreo@@VMappedName@2@@std@@@std@@@std@@U_Iterator_base0@2@@2@@Z
	?_Extract@?$_Tree_val@U?$_Tree_simple_types@U?$pair@$$CBVMappedName@Data@@VIndexedName@2@@std@@@std@@@std@@QEAAPEAU?$_Tree_node@U?$pair@$$CBVMappedName@Data@@VIndexedName@2@@std@@PEAX@2@V?$_Tree_unchecked_const_iterator@V?$_Tree_val@U?$_Tree_simple_types@U?$pair@$$CBVMappedName@Data@@VIndexedName@2@@std@@@std@@@std@@U_Iterator_base0@2@@2@@Z
	?_Extract@?$_Tree_val@U?$_Tree_simple_types@U?$pair@$$CBVMappedName@oreo@@VIndexedName@2@@std@@@std@@@std@@QEAAPEAU?$_Tree_node@U?$pair@$$CBVMappedName@oreo@@VIndexedName@2@@std@@PEAX@2@V?$_Tree_unchecked_const_iterator@V?$_Tree_val@U?$_Tree_simple_types@U?$pair@$$CBVMappedName@oreo@@VIndexedName@2@@std@@@std@@@std@@U_Iterator_base0@2@@2@@Z
	?_Extract@?$_Tree_val@U?$_Tree_simple_types@U?$pair@QEAVConstraint@GCS@@V?$vector@PEANV?$allocator@PEAN@std@@@std@@@std@@@std@@@std@@QEAAPEAU?$_Tree_node@U?$pair@QEAVConstraint@GCS@@V?$vector@PEANV?$allocator@PEAN@std@@@std@@@std@@PEAX@2@V?$_Tree_unchecked_const_iterator@V?$_Tree_val@U?$_Tree_simple_types@U?$pair@QEAVConstraint@GCS@@V?$vector@PEANV?$allocator@PEAN@std@@@std@@@std@@@std@@@std@@U_Iterator_base0@2@@2@@Z
	?_FinalizeAndRunContinuations@?$_Task_impl@E@details@Concurrency@@QEAAXE@Z
	?_Find_root_name_end@filesystem@std@@YAPEB_WQEB_W0@Z
	?_Forced_rehash@?$_Hash@V?$_Umap_traits@IV?$shared_ptr@VElementMap@Data@@@std@@V?$_Uhash_compare@IU?$hash@I@std@@U?$equal_to@I@2@@2@V?$allocator@U?$pair@$$CBIV?$shared_ptr@VElementMap@Data@@@std@@@std@@@2@$0A@@std@@@std@@IEAAX_K@Z
	?_Forced_rehash@?$_Hash@V?$_Umap_traits@PEBVElementMap@Data@@IV?$_Uhash_compare@PEBVElementMap@Data@@U?$hash@PEBVElementMap@Data@@@std@@U?$equal_to@PEBVElementMap@Data@@@4@@std@@V?$allocator@U?$pair@QEBVElementMap@Data@@I@std@@@4@$0A@@std@@@std@@IEAAX_K@Z
	?_Forced_rehash@?$_Hash@V?$_Umap_traits@V?$basic_string@DU?$char_traits@D@std@@V?$allocator@D@2@@std@@HV?$_Uhash_compare@V?$basic_string@DU?$char_traits@D@std@@V?$allocator@D@2@@std@@U?$hash@V?$basic_string@DU?$char_traits@D@std@@V?$allocator@D@2@@std@@@2@U?$equal_to@V?$basic_string@DU?$char_traits@D@std@@V?$allocator@D@2@@std@@@2@@2@V?$allocator@U?$pair@$$CBV?$basic_string@DU?$char_traits@D@std@@V?$allocator@D@2@@std@@H@std@@@2@$0A@@std@@@std@@IEAAX_K@Z
	?_Forced_rehash@?$_Hash@V?$_Uset_traits@UByteArray@Data@@V?$_Uhash_compare@UByteArray@Data@@UByteArrayHasher@2@U?$equal_to@UByteArray@Data@@@std@@@std@@V?$allocator@UByteArray@Data@@@4@$0A@@std@@@std@@IEAAX_K@Z
	?_Get@?$_Func_impl_no_alloc@V<lambda_1>@?1???$?0V?$_Fake_no_copy_callable_adapter@P8System@GCS@@EAAXAEBV?$Matrix@N$0?0$0?0$0A@$0?0$0?0@Eigen@@AEBV?$map@HHU?$less@H@std@@V?$allocator@U?$pair@$$CBHH@std@@@2@@std@@AEBV?$vector@PEANV?$allocator@PEAN@std@@@6@_N@ZPEAV12@AEAV34@AEAV56@AEAV76@_N@std@@@?$_Task_async_state@X@std@@QEAA@$$QEAV?$_Fake_no_copy_callable_adapter@P8System@GCS@@EAAXAEBV?$Matrix@N$0?0$0?0$0A@$0?0$0?0@Eigen@@AEBV?$map@HHU?$less@H@std@@V?$allocator@U?$pair@$$CBHH@std@@@2@@std@@AEBV?$vector@PEANV?$allocator@PEAN@std@@@6@_N@ZPEAV12@AEAV34@AEAV56@AEAV76@_N@3@@Z@X$$V@std@@EEBAPEBXXZ
	?_Get@?$_Func_impl_no_alloc@V<lambda_1>@?1??_MakeVoidToUnitFunc@details@Concurrency@@YA?AV?$function@$$A6AEXZ@std@@AEBV?$function@$$A6AXXZ@6@@Z@E$$V@std@@EEBAPEBXXZ
	?_Get@?$_Func_impl_no_alloc@V<lambda_1>@?4??_ScheduleContinuationTask@_Task_impl_base@details@Concurrency@@QEAAXPEAU_ContinuationTaskHandleBase@45@@Z@X$$V@std@@EEBAPEBXXZ
	?_Get@?$_Func_impl_no_alloc@V<lambda_1>@?7???R1?4??_ScheduleContinuationTask@_Task_impl_base@details@Concurrency@@QEAAXPEAU_ContinuationTaskHandleBase@45@@Z@QEBA@XZ@X$$V@std@@EEBAPEBXXZ
	?_Get@?$_Func_impl_no_alloc@V<lambda_1>@?CC@??_CancelAndRunContinuations@?$_Task_impl@E@details@Concurrency@@UEAA_N_N00AEBV?$shared_ptr@U_ExceptionHolder@details@Concurrency@@@std@@@Z@X$$V@std@@EEBAPEBXXZ
	?_Get@?$_Func_impl_no_alloc@V?$_Fake_no_copy_callable_adapter@P8System@GCS@@EAAXAEBV?$Matrix@N$0?0$0?0$0A@$0?0$0?0@Eigen@@AEBV?$map@HHU?$less@H@std@@V?$allocator@U?$pair@$$CBHH@std@@@2@@std@@AEBV?$vector@PEANV?$allocator@PEAN@std@@@6@_N@ZPEAV12@AEAV34@AEAV56@AEAV76@_N@std@@X$$V@std@@EEBAPEBXXZ
	?_Get_deleter@_Ref_count_base@std@@UEBAPEAXAEBVtype_info@@@Z
	?_Get_value@?$_Associated_state@H@std@@UEAAAEAH_N@Z
	?_Get_value@?$_Task_async_state@X@std@@UEAAAEAH_N@Z
	?_Growmap@?$deque@UMappedNameRef@Data@@V?$allocator@UMappedNameRef@Data@@@std@@@std@@AEAAX_K@Z
	?_Growmap@?$deque@VStringIDRef@App@@V?$allocator@VStringIDRef@App@@@std@@@std@@AEAAX_K@Z
	?_HasUserException@_Task_impl_base@details@Concurrency@@QEAA_NXZ
	?_Has_deferred_function@?$_Associated_state@H@std@@EEBA_NXZ
	?_Has_deferred_function@?$_Deferred_async_state@X@std@@EEBA_NXZ
